EXPORTS
    _Z10AabbExpandR9btVector3S0_RKS_S2_ @1
    _Z10BoxSupportPKfS0_Pf @2
    _Z10btLargeDotPKfS0_i @3
    _Z10btPoolFreePv @4
    _Z10btRayAabb2RK9btVector3S1_PKjPS0_Rfff @5
    _Z10btSolveL1TPKfPfii @6
    _Z10gim_allocay @7
    _Z10hasContextv @8
    _Z10plBindBodyj @9
    _Z10plGenShapev @10
    _Z10plGetErrorv @11
    _Z10plVehiclefif @12
    _Z10plVehicleiii @13
    _Z10quatRotateRK12btQuaternionRK9btVector3 @14
    _Z11ReleaseHullR11PHullResult @15
    _Z11btAtan2Fastff @16
    _Z11btFuzzyZerof @17
    _Z11btLDLTAddTLPfS_PKfiiR20btAlignedObjectArrayIfE @18
    _Z11btMutexLockP11btSpinMutex @19
    _Z11btPoolAllocy @20
    _Z11btSolveLDLTPKfS0_Pfii @21
    _Z11cullPoints2iPfiiPi @22
    _Z11getIslandIdPK20btPersistentManifold @23
    _Z11getParamLeni @24
    _Z11gim_reallocPvyy @25
    _Z11plBindShapej @26
    _Z11plGetShapeijiPi @27
    _Z11plGetStringi @28
    _Z11plVehicle3fifff @29
    _Z11plVehiclefviPfi @30
    _Z12IsAlmostZeroRK9btVector3 @31
    _Z12PlaneProjectRK7btPlaneRK9btVector3 @32
    _Z12REPORT_ERRORi @33
    _Z12btFactorLDLTPfS_ii @34
    _Z12btLDLTRemovePPfPKiS_S_iiiiR20btAlignedObjectArrayIfE @35
    _Z12btSwapEndiani @36
    _Z12btSwapEndianj @37
    _Z12btSwapEndiant @38
    _Z12bt_vec_blendR9btVector3RKS_S2_f @39
    _Z12callbackFuncR15btManifoldPointPK24btCollisionObjectWrapperiiS3_ii @40
    _Z12evalEulerEqnRK9btVector3S1_S1_fRK11btMatrix3x3 @41
    _Z12maxdirsteridI9btVector3EiPKT_iRS2_R20btAlignedObjectArrayIiE @42
    _Z12outerProductRK9btVector3S1_ @43
    _Z12plBufferDataiiPv @44
    _Z12plCharacterfif @45
    _Z12plDeleteBodyj @46
    _Z12plGenVehiclev @47
    _Z12plGetIntegeri @48
    _Z12plGetShapefvjiPfi @49
    _Z12plGetWheelfviiPfi @50
    _Z12plRigidBodyfif @51
    _Z12plRigidBodyiii @52
    _Z13btClampNormalRK9btVector3S1_S1_fRS_ @53
    _Z13btMutexUnlockP11btSpinMutex @54
    _Z13btParallelForiiiRK18btIParallelForBody @55
    _Z13btPlaneSpace1I9btVector3EvRKT_RS1_S4_ @56
    _Z13btPoolReallocPvyy @57
    _Z13btVectorScalePfPKfi @58
    _Z13bt_edge_planeRK9btVector3S1_S1_R9btVector4 @59
    _Z13bt_unquantizePKtRK9btVector3S3_ @60
    _Z13calcBatchCostPKN27btSimulationIslandManagerMt6IslandE @61
    _Z13calcBatchCostiii @62
    _Z13gim_down_heapI15GIM_RSORT_TOKEN26GIM_RSORT_TOKEN_COMPARATOREvPT_jjT0_ @63
    _Z13gim_heap_sortI15GIM_RSORT_TOKEN26GIM_RSORT_TOKEN_COMPARATOREvPT_jT0_ @64
    _Z13plBindVehiclej @65
    _Z13plCharacter3fifff @66
    _Z13plCharacterfviPf @67
    _Z13plConstraintfif @68
    _Z13plConstraintiii @69
    _Z13plRigidBody3fifff @70
    _Z13plRigidBodyfviPfi @71
    _Z14btAlignPointerIcEPT_S1_y @72
    _Z14btIsMainThreadv @73
    _Z14btRemoveRowColPfiii @74
    _Z14maxdirfilteredI9btVector3EiPKT_iRS2_R20btAlignedObjectArrayIiE @75
    _Z14plConstraint3fifff @76
    _Z14plConstraintfviPfi @77
    _Z14plGenCharacterv @78
    _Z14polarDecomposeRK11btMatrix3x3RS_S2_ @79
    _Z15_node_collisionP12btGImpactBvhS0_RK26BT_BOX_BOX_TRANSFORM_CACHEiib @80
    _Z15btGetMatrixElemRK11btMatrix3x3i @81
    _Z15btTransformAabbRK9btVector3S1_fRK11btTransformRS_S5_ @82
    _Z15btTransformAabbRK9btVector3fRK11btTransformRS_S5_ @83
    _Z15bt_mat3_dot_colRK11btMatrix3x3RK9btVector3i @84
    _Z15gim_simd_memcpyPvPKvy @85
    _Z15plBindCharacterj @86
    _Z15plCreateContextv @87
    _Z15plDeleteVehiclej @88
    _Z15plDynamicWorldiii @89
    _Z15plGenConstrainti @90
    _Z15plGetCharacterbji @91
    _Z15plGetCharacterfjiPf @92
    _Z15plGetRigidBodyfjiPf @93
    _Z15plGetRigidBodyijiPi @94
    _Z15shortestArcQuatRK9btVector3S1_ @95
    _Z16btIsBodyInIslandRKN27btSimulationIslandManagerMt6IslandEPK17btCollisionObject @96
    _Z16btNormalizeAnglef @97
    _Z16matrixToEulerXYZRK11btMatrix3x3R9btVector3 @98
    _Z16plBindConstraintj @99
    _Z16plDestroyContextv @100
    _Z16plDynamicWorld3fifff @101
    _Z16plDynamicWorldfviPfi @102
    _Z16plGetCharacterfvjiPfi @103
    _Z16plGetRigidBody3fjiPfS_S_ @104
    _Z16plGetRigidBodyfvjiPfi @105
    _Z16plStepSimulationfif @106
    _Z17Profile_Get_TicksPm @107
    _Z17b2CollidePolygonsP16btManifoldResultPK12btBox2dShapeRK11btTransformS3_S6_ @108
    _Z17btSolveDantzigLCPiPfS_S_S_iS_S_PiR22btDantzigScratchMemory @109
    _Z17bt_quantize_clampPtRK9btVector3S2_S2_S2_ @110
    _Z17evalEulerEqnDerivRK9btVector3S1_fRK11btMatrix3x3 @111
    _Z17gim_swap_elementsI13GIM_AABB_DATAEvPT_yy @112
    _Z17gim_swap_elementsI15GIM_RSORT_TOKENEvPT_yy @113
    _Z17plContactCallBackPFbibibE @114
    _Z17plDeleteCharacterj @115
    _Z18SegmentSqrDistanceRK9btVector3S1_S1_RS_ @116
    _Z18btEnterProfileZonePKc @117
    _Z18btGetTaskSchedulerv @118
    _Z18btLeaveProfileZonev @119
    _Z18btSetTaskSchedulerP16btITaskScheduler @120
    _Z18btSwapScalarEndianRKfRf @121
    _Z18plDeleteConstraintj @122
    _Z18plGetDynamicWorldiiPi @123
    _Z19TestInternalObjectsRK11btTransformS1_RK9btVector3S4_RK18btConvexPolyhedronS7_f @124
    _Z19btSwapVector3EndianRK9btVector3RS_ @125
    _Z19btThreadsAreRunningv @126
    _Z19calcRollingFrictionR19btWheelContactPoint @127
    _Z19plGetDynamicWorld3fiPfS_S_ @128
    _Z19plGetDynamicWorldfviPfi @129
    _Z19plGetDynamicWorldiviPii @130
    _Z20DistanceBetweenLinesRK9btVector3S1_S1_S1_PS_S2_ @131
    _Z20PLANE_CLIP_POLYGON3DI9btVector39btVector4EjRKT0_PKT_jPS5_ @132
    _Z20TestAabbAgainstAabb2RK9btVector3S1_S1_S1_ @133
    _Z20dLineClosestApproachRK9btVector3S1_S1_S1_PfS2_ @134
    _Z20gim_get_free_handlerv @135
    _Z20gim_set_free_handlerPFvPvE @136
    _Z21CylinderLocalSupportXRK9btVector3S1_ @137
    _Z21CylinderLocalSupportYRK9btVector3S1_ @138
    _Z21CylinderLocalSupportZRK9btVector3S1_ @139
    _Z21PLANE_CLIP_TRIANGLE3DI9btVector39btVector4EjRKT0_RKT_S7_S7_PS5_ @140
    _Z21PlaneLineIntersectionRK7btPlaneRK9btVector3S4_ @141
    _Z21Profile_Get_Tick_Ratev @142
    _Z21btAdjustAngleToLimitsfff @143
    _Z21btAlignedFreeInternalPv @144
    _Z21btGetPPLTaskSchedulerv @145
    _Z21btGetTBBTaskSchedulerv @146
    _Z21btUnSwapVector3EndianR9btVector3 @147
    _Z21bt_plane_clip_polygonRK9btVector4PK9btVector3iPS2_ @148
    _Z21gim_get_alloc_handlerv @149
    _Z21gim_get_point_inertiaRK9btVector3f @150
    _Z21gim_set_alloc_handlerPFPvyE @151
    _Z22GrahamScanConvexHull2DR20btAlignedObjectArrayI13GrahamVector3ES2_RK9btVector3 @152
    _Z22ThreePlaneIntersectionRK7btPlaneS1_S1_ @153
    _Z22btAlignedAllocInternalyi @154
    _Z22btPopThreadsAreRunningv @155
    _Z22bt_plane_clip_triangleRK9btVector4RK9btVector3S4_S4_PS2_ @156
    _Z22gim_get_alloca_handlerv @157
    _Z22gim_set_alloca_handlerPFPvyE @158
    _Z22resolveSingleBilateralR11btRigidBodyRK9btVector3S0_S3_fS3_Rff @159
    _Z22resolveSingleCollisionP11btRigidBodyP17btCollisionObjectRK9btVector3S5_RK19btContactSolverInfof @160
    _Z23btAlignedAllocSetCustomPFPvyEPFvS_E @161
    _Z23btGetConstraintIslandIdPK17btTypedConstraint @162
    _Z23btGetCurrentThreadIndexv @163
    _Z23btPushThreadsAreRunningv @164
    _Z23btSegmentsClosestPointsR9btVector3S0_S0_RfS1_RKS_S3_fS3_f @165
    _Z23bt_distance_point_planeRK9btVector4RK9btVector3 @166
    _Z23gim_get_realloc_handlerv @167
    _Z23gim_set_realloc_handlerPFPvS_yyE @168
    _Z24InverseTransformPoint3x3R9btVector3RKS_RK11btTransform @169
    _Z24TestTriangleAgainstAabb2PK9btVector3RS0_S2_ @170
    _Z24btGetConstraintIslandId2PK17btTypedConstraint @171
    _Z24btGetOpenMPTaskSchedulerv @172
    _Z25_quantized_node_collisionPK21btGImpactQuantizedBvhS1_RK26BT_BOX_BOX_TRANSFORM_CACHEiib @173
    _Z25btEnterProfileZoneDefaultPKc @174
    _Z25btLeaveProfileZoneDefaultv @175
    _Z25btResetThreadIndexCounterv @176
    _Z25shortestArcQuatNormalize2R9btVector3S0_ @177
    _Z26PLANE_CLIP_POLYGON_COLLECTI9btVector3EvRKT_S3_ffPS1_Rj @178
    _Z26PLANE_CLIP_POLYGON_GENERICI9btVector39btVector422DISTANCE_PLANE_3D_FUNCEjRKT0_PKT_jPS6_T1_ @179
    _Z26btGenerateInternalEdgeInfoP22btBvhTriangleMeshShapeP17btTriangleInfoMap @180
    _Z27PLANE_CLIP_TRIANGLE_GENERICI9btVector39btVector422DISTANCE_PLANE_3D_FUNCEjRKT0_RKT_S8_S8_PS6_T1_ @181
    _Z27btNearestPointInLineSegmentRK9btVector3S1_S1_RS_ @182
    _Z27gim_inertia_add_transformedRK9btVector3S1_RK11btTransform @183
    _Z28btAdjustInternalEdgeContactsR15btManifoldPointPK24btCollisionObjectWrapperS3_iii @184
    _Z28btGetSequentialTaskSchedulerv @185
    _Z28symmetricSpatialOuterProductI20btSpatialForceVectorE22btSymmetricSpatialDyadRKT_S4_ @186
    _Z29btEstimateLDLTAddTLTmpbufSizei @187
    _Z29bt_plane_clip_polygon_collectRK9btVector3S1_ffPS_Ri @188
    _Z30btAlignedAllocSetCustomAlignedPFPvyiEPFvS_E @189
    _Z31btSetCustomEnterProfileZoneFuncPFvPKcE @190
    _Z31btSetCustomLeaveProfileZoneFuncPFvvE @191
    _Z31bt_calc_quantization_parametersR9btVector3S0_S0_RKS_S2_f @192
    _Z32btGetCurrentEnterProfileZoneFuncv @193
    _Z32btGetCurrentLeaveProfileZoneFuncv @194
    _Z32btGetMultiBodyConstraintIslandIdPK21btMultiBodyConstraint @195
    _Z32computeAngularImpulseDenominatorRK9btVector3RK11btMatrix3x3 @196
    _Z33btQuickprofGetCurrentThreadIndex2v @197
    _Z37testQuantizedAabbAgainstQuantizedAabbPKtS0_S0_S0_ @198
    _Z4lerpRK9btVector3S1_RKf @199
    _Z4orthRK9btVector3 @200
    _Z5MergeRK12btDbvtAabbMmS1_RS_ @201
    _Z5aboveP9btVector3RK4int3RKS_f @202
    _Z5btCosf @203
    _Z5btDotRK9btVector3S1_ @204
    _Z5btMaxIfERKT_S2_S2_ @205
    _Z5btMaxIiERKT_S2_S2_ @206
    _Z5btMinIfERKT_S2_S2_ @207
    _Z5btMinIiERKT_S2_S2_ @208
    _Z5btPowff @209
    _Z5btSinf @210
    _Z6SelectRK12btDbvtAabbMmS1_S1_ @211
    _Z6btAcosf @212
    _Z6btAsinf @213
    _Z6btFabsf @214
    _Z6btFmodff @215
    _Z6btFselfff @216
    _Z6btSqrtf @217
    _Z6btSwapI12btDbvtAabbMmEvRT_S2_ @218
    _Z6btSwapI9btVector3EvRT_S2_ @219
    _Z6btSwapIN10btSoftBody4FaceEEvRT_S3_ @220
    _Z6btSwapIN10btSoftBody4LinkEEvRT_S3_ @221
    _Z6btSwapIP17btBroadphaseProxyEvRT_S3_ @222
    _Z6btSwapIP20btAlignedObjectArrayI9btVector3EEvRT_S5_ @223
    _Z6btSwapIPN10btSoftBody7ClusterEEvRT_S4_ @224
    _Z6btSwapIPN12gjkepa2_impl3GJK3sSVEEvRT_S5_ @225
    _Z6btSwapIPN20btConvexHullInternal4FaceEEvRT_S4_ @226
    _Z6btSwapIfEvRT_S1_ @227
    _Z6btSwapIiEvRT_S1_ @228
    _Z6btSwapIsEvRT_S1_ @229
    _Z6printfPKcz @230
    _Z6sscanfPKcS0_z @231
    _Z7GetDistfffPKf @232
    _Z7btAtan2ff @233
    _Z7btClampIfEvRT_RKS0_S3_ @234
    _Z7btCrossRK9btVector3S1_ @235
    _Z7btEqualff @236
    _Z7hasedgeRK4int3ii @237
    _Z7hasvertRK4int3i @238
    _Z7setElemR9btMatrixXIfEiif @239
    _Z7sprintfPcPKcz @240
    _Z8NotEqualRK12btDbvtAabbMmS1_ @241
    _Z8btSelectjii @242
    _Z8btSetMaxIfEvRT_RKS0_ @243
    _Z8btSetMinIfEvRT_RKS0_ @244
    _Z8btTripleRK9btVector3S1_S1_ @245
    _Z8dBoxBox2RK9btVector3PKfS1_S1_S3_S1_RS_PfPiiP12dContactGeomiRN36btDiscreteCollisionDetectorInterface6ResultE @246
    _Z8gim_freePv @247
    _Z8notExistRK9btVector3RK20btAlignedObjectArrayIS_E @248
    _Z8plCreatei @249
    _Z8plShapefif @250
    _Z8plShapeiii @251
    _Z8plWheelfiif @252
    _Z9HsiehHashILi6EEjPKv @253
    _Z9IntersectRK12btDbvtAabbMmS1_ @254
    _Z9PlaneTestRK7btPlaneRK9btVector3 @255
    _Z9ProximityRK12btDbvtAabbMmS1_ @256
    _Z9SplitTestR7ConvexHRK7btPlane @257
    _Z9TriNormalRK9btVector3S1_S1_ @258
    _Z9btClampedIfERKT_S2_S2_S2_ @259
    _Z9btEpsRootv @260
    _Z9btMachEpsv @261
    _Z9btOutcodeRK9btVector3S1_ @262
    _Z9btRadiansf @263
    _Z9btRayAabbRK9btVector3S1_S1_S1_RfRS_ @264
    _Z9btSetZeroIfEvPT_i @265
    _Z9btSolveL1PKfPfii @266
    _Z9gim_allocy @267
    _Z9plGenBodyv @268
    _Z9plShape3fifff @269
    _Z9plShapefviPfi @270
    _Z9shareedgeRK4int3S1_ @271
    _ZGVZN11btMatrix3x311getIdentityEvE14identityMatrix @272 DATA
    _ZGVZN11btTransform11getIdentityEvE17identityTransform @273 DATA
    _ZGVZN12btQuaternion11getIdentityEvE12identityQuat @274 DATA
    _ZGVZNK10btSoftBody4Body15invWorldInertiaEvE3iwi @275 DATA
    _ZGVZNK10btSoftBody4Body5xformEvE8identity @276 DATA
    _ZGVZNK15btSoftColliders13CollideSDF_RS6DoNodeERN10btSoftBody4NodeEE9iwiStatic @277 DATA
    _ZGVZNK24btSoftBodyCollisionShape15getLocalScalingEvE5dummy @278 DATA
    _ZN10ClipVertexC1Ev @279
    _ZN10HullResultC1Ev @280
    _ZN10HullResultD1Ev @281
    _ZN10btBoxShape15setLocalScalingERK9btVector3 @282
    _ZN10btBoxShape9setMarginEf @283
    _ZN10btBoxShapeC1ERK9btVector3 @284
    _ZN10btBoxShapeC2ERK9btVector3 @285
    _ZN10btBoxShapeD0Ev @286
    _ZN10btBoxShapeD1Ev @287
    _ZN10btBoxShapedlEPv @288
    _ZN10btBoxShapenwEy @289
    _ZN10btDbvtNodeC1Ev @290
    _ZN10btQuadWord8setValueERKfS1_S1_S1_ @291
    _ZN10btQuadWordC2ERKfS1_S1_S1_ @292
    _ZN10btQuadWordC2Ev @293
    _ZN10btQuadWordcvPfEv @294
    _ZN10btSoftBody10appendFaceEiPNS_8MaterialE @295
    _ZN10btSoftBody10appendFaceEiiiPNS_8MaterialE @296
    _ZN10btSoftBody10appendLinkEPNS_4NodeES1_PNS_8MaterialEb @297
    _ZN10btSoftBody10appendLinkEiPNS_8MaterialE @298
    _ZN10btSoftBody10appendLinkEiiPNS_8MaterialEb @299
    _ZN10btSoftBody10appendNodeERK9btVector3f @300
    _ZN10btSoftBody10appendNoteEPKcRK9btVector3PNS_4FaceE @301
    _ZN10btSoftBody10appendNoteEPKcRK9btVector3PNS_4LinkE @302
    _ZN10btSoftBody10appendNoteEPKcRK9btVector3PNS_4NodeE @303
    _ZN10btSoftBody10appendNoteEPKcRK9btVector3RK9btVector4PNS_4NodeES9_S9_S9_ @304
    _ZN10btSoftBody10clusterComEPKNS_7ClusterE @305
    _ZN10btSoftBody10updateAreaEb @306
    _ZN10btSoftBody10updatePoseEv @307
    _ZN10btSoftBody11addVelocityERK9btVector3 @308
    _ZN10btSoftBody11addVelocityERK9btVector3i @309
    _ZN10btSoftBody11appendTetraEiPNS_8MaterialE @310
    _ZN10btSoftBody11appendTetraEiiiiPNS_8MaterialE @311
    _ZN10btSoftBody11applyForcesEv @312
    _ZN10btSoftBody11setVelocityERK9btVector3 @313
    _ZN10btSoftBody11staticSolveEi @314
    _ZN10btSoftBody12PSolve_LinksEPS_ff @315
    _ZN10btSoftBody12VSolve_LinksEPS_f @316
    _ZN10btSoftBody12appendAnchorEiP11btRigidBodyRK9btVector3bf @317
    _ZN10btSoftBody12appendAnchorEiP11btRigidBodybf @318
    _ZN10btSoftBody12dampClustersEv @319
    _ZN10btSoftBody12getWorldInfoEv @320
    _ZN10btSoftBody12initDefaultsEv @321
    _ZN10btSoftBody12setTotalMassEfb @322
    _ZN10btSoftBody12updateBoundsEv @323
    _ZN10btSoftBody13applyClustersEb @324
    _ZN10btSoftBody13predictMotionEf @325
    _ZN10btSoftBody13setVolumeMassEf @326
    _ZN10btSoftBody13solveClustersERK20btAlignedObjectArrayIPS_E @327
    _ZN10btSoftBody13solveClustersEf @328
    _ZN10btSoftBody13updateNormalsEv @329
    _ZN10btSoftBody14PSolve_AnchorsEPS_ff @330
    _ZN10btSoftBody14appendMaterialEv @331
    _ZN10btSoftBody14clusterImpulseEPNS_7ClusterERK9btVector3RKNS_7ImpulseE @332
    _ZN10btSoftBody14releaseClusterEi @333
    _ZN10btSoftBody14updateClustersEv @334
    _ZN10btSoftBody15RayFromToCaster17rayFromToTriangleERK9btVector3S3_S3_S3_S3_S3_f @335
    _ZN10btSoftBody15RayFromToCaster7ProcessEPK10btDbvtNode @336
    _ZN10btSoftBody15RayFromToCasterC1ERK9btVector3S3_f @337
    _ZN10btSoftBody15RayFromToCasterC2ERK9btVector3S3_f @338
    _ZN10btSoftBody15RayFromToCasterD0Ev @339
    _ZN10btSoftBody15RayFromToCasterD1Ev @340
    _ZN10btSoftBody15cleanupClustersEv @341
    _ZN10btSoftBody15clusterAImpulseEPNS_7ClusterERKNS_7ImpulseE @342
    _ZN10btSoftBody15clusterDImpulseEPNS_7ClusterERK9btVector3S4_ @343
    _ZN10btSoftBody15clusterVImpulseEPNS_7ClusterERK9btVector3S4_ @344
    _ZN10btSoftBody15clusterVelocityEPKNS_7ClusterERK9btVector3 @345
    _ZN10btSoftBody15getWindVelocityEv @346
    _ZN10btSoftBody15integrateMotionEv @347
    _ZN10btSoftBody15prepareClustersEi @348
    _ZN10btSoftBody15releaseClustersEv @349
    _ZN10btSoftBody15setTotalDensityEf @350
    _ZN10btSoftBody15setWindVelocityERK9btVector3 @351
    _ZN10btSoftBody15updateConstantsEv @352
    _ZN10btSoftBody16PSolve_RContactsEPS_ff @353
    _ZN10btSoftBody16PSolve_SContactsEPS_ff @354
    _ZN10btSoftBody16clusterDAImpulseEPNS_7ClusterERK9btVector3 @355
    _ZN10btSoftBody16clusterDCImpulseEPNS_7ClusterERK9btVector3 @356
    _ZN10btSoftBody16clusterVAImpulseEPNS_7ClusterERK9btVector3 @357
    _ZN10btSoftBody16generateClustersEii @358
    _ZN10btSoftBody16setVolumeDensityEf @359
    _ZN10btSoftBody16solveConstraintsEv @360
    _ZN10btSoftBody17appendLinearJointERKNS_6LJoint5SpecsENS_4BodyE @361
    _ZN10btSoftBody17appendLinearJointERKNS_6LJoint5SpecsEPNS_7ClusterENS_4BodyE @362
    _ZN10btSoftBody17appendLinearJointERKNS_6LJoint5SpecsEPS_ @363
    _ZN10btSoftBody17getSoftBodySolverEv @364
    _ZN10btSoftBody17indicesToPointersEPKi @365
    _ZN10btSoftBody17pointersToIndicesEv @366
    _ZN10btSoftBody17setCollisionShapeEP16btCollisionShape @367
    _ZN10btSoftBody17setSoftBodySolverEP16btSoftBodySolver @368
    _ZN10btSoftBody18addAeroForceToFaceERK9btVector3i @369
    _ZN10btSoftBody18addAeroForceToNodeERK9btVector3i @370
    _ZN10btSoftBody18appendAngularJointERKNS_6AJoint5SpecsENS_4BodyE @371
    _ZN10btSoftBody18appendAngularJointERKNS_6AJoint5SpecsEPNS_7ClusterENS_4BodyE @372
    _ZN10btSoftBody18appendAngularJointERKNS_6AJoint5SpecsEPS_ @373
    _ZN10btSoftBody18getRestLengthScaleEv @374
    _ZN10btSoftBody18initializeClustersEv @375
    _ZN10btSoftBody18initializeFaceTreeEv @376
    _ZN10btSoftBody18setRestLengthScaleEf @377
    _ZN10btSoftBody19updateLinkConstantsEv @378
    _ZN10btSoftBody20randomizeConstraintsEv @379
    _ZN10btSoftBody20resetLinkRestLengthsEv @380
    _ZN10btSoftBody22solveCommonConstraintsEPPS_ii @381
    _ZN10btSoftBody23defaultCollisionHandlerEPK24btCollisionObjectWrapper @382
    _ZN10btSoftBody23defaultCollisionHandlerEPS_ @383
    _ZN10btSoftBody26generateBendingConstraintsEiPNS_8MaterialE @384
    _ZN10btSoftBody4BodyC1EPK17btCollisionObject @385
    _ZN10btSoftBody4BodyC1EPNS_7ClusterE @386
    _ZN10btSoftBody4BodyC1Ev @387
    _ZN10btSoftBody4FaceC1Ev @388
    _ZN10btSoftBody4LinkC1Ev @389
    _ZN10btSoftBody4LinkdaEPv @390
    _ZN10btSoftBody4LinknaEy @391
    _ZN10btSoftBody4LinknwEyPv @392
    _ZN10btSoftBody4NodeC1Ev @393
    _ZN10btSoftBody4NoteC1Ev @394
    _ZN10btSoftBody4PoseC1Ev @395
    _ZN10btSoftBody4PoseD1Ev @396
    _ZN10btSoftBody4sCtiC1Ev @397
    _ZN10btSoftBody5Joint7PrepareEfi @398
    _ZN10btSoftBody5JointC2Ev @399
    _ZN10btSoftBody5JointD2Ev @400
    _ZN10btSoftBody5JointaSERKS0_ @401
    _ZN10btSoftBody5TetraC1Ev @402
    _ZN10btSoftBody5scaleERK9btVector3 @403
    _ZN10btSoftBody6AJoint5SolveEff @404
    _ZN10btSoftBody6AJoint7PrepareEfi @405
    _ZN10btSoftBody6AJoint9TerminateEf @406
    _ZN10btSoftBody6AJointC1Ev @407
    _ZN10btSoftBody6AJointD0Ev @408
    _ZN10btSoftBody6AJointD1Ev @409
    _ZN10btSoftBody6AnchorC1ERKS0_ @410
    _ZN10btSoftBody6AnchorC1Ev @411
    _ZN10btSoftBody6CJoint5SolveEff @412
    _ZN10btSoftBody6CJoint7PrepareEfi @413
    _ZN10btSoftBody6CJoint9TerminateEf @414
    _ZN10btSoftBody6CJointC1Ev @415
    _ZN10btSoftBody6CJointD0Ev @416
    _ZN10btSoftBody6CJointD1Ev @417
    _ZN10btSoftBody6CJointaSERKS0_ @418
    _ZN10btSoftBody6ConfigC1Ev @419
    _ZN10btSoftBody6ConfigD1Ev @420
    _ZN10btSoftBody6LJoint5SolveEff @421
    _ZN10btSoftBody6LJoint7PrepareEfi @422
    _ZN10btSoftBody6LJoint9TerminateEf @423
    _ZN10btSoftBody6LJointC1Ev @424
    _ZN10btSoftBody6LJointD0Ev @425
    _ZN10btSoftBody6LJointD1Ev @426
    _ZN10btSoftBody6refineEPNS_10ImplicitFnEfb @427
    _ZN10btSoftBody6rotateERK12btQuaternion @428
    _ZN10btSoftBody6upcastEP17btCollisionObject @429
    _ZN10btSoftBody7ClusterC1Ev @430
    _ZN10btSoftBody7ClusterD1Ev @431
    _ZN10btSoftBody7ElementC2Ev @432
    _ZN10btSoftBody7FeatureC2Ev @433
    _ZN10btSoftBody7ImpulseC1Ev @434
    _ZN10btSoftBody7cutLinkEPKNS_4NodeES2_f @435
    _ZN10btSoftBody7cutLinkEiif @436
    _ZN10btSoftBody7rayTestERK9btVector3S2_RNS_8sRayCastE @437
    _ZN10btSoftBody7sMediumC1Ev @438
    _ZN10btSoftBody7setMassEif @439
    _ZN10btSoftBody7setPoseEbb @440
    _ZN10btSoftBody8MaterialC1Ev @441
    _ZN10btSoftBody8RContactC1ERKS0_ @442
    _ZN10btSoftBody8RContactC1Ev @443
    _ZN10btSoftBody8SContactC1Ev @444
    _ZN10btSoftBody8addForceERK9btVector3 @445
    _ZN10btSoftBody8addForceERK9btVector3i @446
    _ZN10btSoftBody9getSolverENS_8ePSolver1_E @447
    _ZN10btSoftBody9getSolverENS_8eVSolver1_E @448
    _ZN10btSoftBody9setSolverENS_14eSolverPresets1_E @449
    _ZN10btSoftBody9transformERK11btTransform @450
    _ZN10btSoftBody9translateERK9btVector3 @451
    _ZN10btSoftBodyC1EP19btSoftBodyWorldInfo @452
    _ZN10btSoftBodyC1EP19btSoftBodyWorldInfoiPK9btVector3PKf @453
    _ZN10btSoftBodyC2EP19btSoftBodyWorldInfo @454
    _ZN10btSoftBodyC2EP19btSoftBodyWorldInfoiPK9btVector3PKf @455
    _ZN10btSoftBodyD0Ev @456
    _ZN10btSoftBodyD1Ev @457
    _ZN10btSoftBodyD2Ev @458
    _ZN10btTriIndexC1EiiP16btCollisionShape @459
    _ZN10btTriangleC1Ev @460
    _ZN11DebugLogger1aENSt7__cxx1112basic_stringIcSt11char_traitsIcESaIcEEE @461
    _ZN11DebugLogger1eENSt7__cxx1112basic_stringIcSt11char_traitsIcESaIcEEE @462
    _ZN11DebugLogger1iENSt7__cxx1112basic_stringIcSt11char_traitsIcESaIcEEE @463
    _ZN11DebugLogger1wENSt7__cxx1112basic_stringIcSt11char_traitsIcESaIcEEE @464
    _ZN11DebugLogger2pfEf @465
    _ZN11DebugLogger2piEi @466
    _ZN11DebugLogger3hexEi @467
    _ZN11DebugLogger8toStringEb @468
    _ZN11DebugLoggerC1Ev @469
    _ZN11DebugLoggerD1Ev @470
    _ZN11GIM_CONTACT19interpolate_normalsEP9btVector3i @471
    _ZN11GIM_CONTACT19interpolate_normalsEP9btVector3j @472
    _ZN11GIM_CONTACTC1ERKS_ @473
    _ZN11HullLibrary10extrudableEf @474
    _ZN11HullLibrary11ComputeHullEjPK9btVector3R11PHullResultj @475
    _ZN11HullLibrary11FindSimplexEP9btVector3iR20btAlignedObjectArrayIiE @476
    _ZN11HullLibrary11calchullgenEP9btVector3ii @477
    _ZN11HullLibrary13ReleaseResultER10HullResult @478
    _ZN11HullLibrary15CleanupVerticesEjPK9btVector3jRjPS0_fRS0_ @479
    _ZN11HullLibrary16BringOutYourDeadEPK9btVector3jPS0_RjPjj @480
    _ZN11HullLibrary16CreateConvexHullERK8HullDescR10HullResult @481
    _ZN11HullLibrary16allocateTriangleEiii @482
    _ZN11HullLibrary18deAllocateTriangleEP14btHullTriangle @483
    _ZN11HullLibrary6b2bfixEP14btHullTriangleS1_ @484
    _ZN11HullLibrary7checkitEP14btHullTriangle @485
    _ZN11HullLibrary7extrudeEP14btHullTrianglei @486
    _ZN11HullLibrary8calchullEP9btVector3iR20btAlignedObjectArrayIjERii @487
    _ZN11HullLibrary9removeb2bEP14btHullTriangleS1_ @488
    _ZN11HullLibraryC1Ev @489
    _ZN11HullLibraryD1Ev @490
    _ZN11PHullResultC1Ev @491
    _ZN11PHullResultD1Ev @492
    _ZN11btConeShape14setConeUpIndexEi @493
    _ZN11btConeShape15setLocalScalingERK9btVector3 @494
    _ZN11btConeShapeC1Eff @495
    _ZN11btConeShapeC2Eff @496
    _ZN11btConeShapeD0Ev @497
    _ZN11btConeShapeD1Ev @498
    _ZN11btConeShapeD2Ev @499
    _ZN11btConeShapedlEPv @500
    _ZN11btConeShapenwEy @501
    _ZN11btDbvtProxyC1ERK9btVector3S2_Pvii @502
    _ZN11btMatrix3x311diagonalizeERS_fi @503
    _ZN11btMatrix3x311getIdentityEv @504
    _ZN11btMatrix3x311setIdentityEv @505
    _ZN11btMatrix3x311setRotationERK12btQuaternion @506
    _ZN11btMatrix3x315extractRotationER12btQuaternionfi @507
    _ZN11btMatrix3x316deSerializeFloatERK20btMatrix3x3FloatData @508
    _ZN11btMatrix3x317deSerializeDoubleERK21btMatrix3x3DoubleData @509
    _ZN11btMatrix3x322setFromOpenGLSubMatrixEPKf @510
    _ZN11btMatrix3x38setValueERKfS1_S1_S1_S1_S1_S1_S1_S1_ @511
    _ZN11btMatrix3x3C1ERK12btQuaternion @512
    _ZN11btMatrix3x3C1ERKS_ @513
    _ZN11btMatrix3x3C1ERKfS1_S1_S1_S1_S1_S1_S1_S1_ @514
    _ZN11btMatrix3x3C1Ev @515
    _ZN11btMatrix3x3aSERKS_ @516
    _ZN11btMatrix3x3ixEi @517
    _ZN11btMatrix3x3mIERKS_ @518
    _ZN11btMatrix3x3mLERKS_ @519
    _ZN11btMatrix3x3pLERKS_ @520
    _ZN11btMultiBody10setupFixedEifRK9btVector3iRK12btQuaternionS2_S2_b @521
    _ZN11btMultiBody11setJointPosEif @522
    _ZN11btMultiBody11setJointVelEif @523
    _ZN11btMultiBody11setupPlanarEifRK9btVector3iRK12btQuaternionS2_S2_b @524
    _ZN11btMultiBody12addBaseForceERK9btVector3 @525
    _ZN11btMultiBody12addLinkForceEiRK9btVector3 @526
    _ZN11btMultiBody13addLinkTorqueEiRK9btVector3 @527
    _ZN11btMultiBody13setPosUpdatedEb @528
    _ZN11btMultiBody13setupRevoluteEifRK9btVector3iRK12btQuaternionS2_S2_S2_b @529
    _ZN11btMultiBody14addJointTorqueEif @530
    _ZN11btMultiBody14setCompanionIdEi @531
    _ZN11btMultiBody14setupPrismaticEifRK9btVector3iRK12btQuaternionS2_S2_S2_b @532
    _ZN11btMultiBody14setupSphericalEifRK9btVector3iRK12btQuaternionS2_S2_b @533
    _ZN11btMultiBody15clearVelocitiesEv @534
    _ZN11btMultiBody15getBaseColliderEv @535
    _ZN11btMultiBody16finalizeMultiDofEv @536
    _ZN11btMultiBody17forwardKinematicsER20btAlignedObjectArrayI12btQuaternionERS0_I9btVector3E @537
    _ZN11btMultiBody19getJointPosMultiDofEi @538
    _ZN11btMultiBody19getJointVelMultiDofEi @539
    _ZN11btMultiBody19setJointPosMultiDofEiPf @540
    _ZN11btMultiBody19setJointVelMultiDofEiPf @541
    _ZN11btMultiBody21applyDeltaVeeMultiDofEPKff @542
    _ZN11btMultiBody21clearConstraintForcesEv @543
    _ZN11btMultiBody21clearForcesAndTorquesEv @544
    _ZN11btMultiBody21stepPositionsMultiDofEfPfS0_ @545
    _ZN11btMultiBody21updateLinksDofOffsetsEv @546
    _ZN11btMultiBody22addBaseConstraintForceERK9btVector3 @547
    _ZN11btMultiBody22addJointTorqueMultiDofEiPKf @548
    _ZN11btMultiBody22addJointTorqueMultiDofEiif @549
    _ZN11btMultiBody22addLinkConstraintForceEiRK9btVector3 @550
    _ZN11btMultiBody22applyDeltaVeeMultiDof2EPKff @551
    _ZN11btMultiBody22getJointTorqueMultiDofEi @552
    _ZN11btMultiBody23addBaseConstraintTorqueERK9btVector3 @553
    _ZN11btMultiBody23addLinkConstraintTorqueEiRK9btVector3 @554
    _ZN11btMultiBody24processDeltaVeeMultiDof2Ev @555
    _ZN11btMultiBody29checkMotionAndSleepIfRequiredEf @556
    _ZN11btMultiBody36updateCollisionObjectWorldTransformsER20btAlignedObjectArrayI12btQuaternionERS0_I9btVector3E @557
    _ZN11btMultiBody52computeAccelerationsArticulatedBodyAlgorithmMultiDofEfR20btAlignedObjectArrayIfERS0_I9btVector3ERS0_I11btMatrix3x3Eb @558
    _ZN11btMultiBody6wakeUpEv @559
    _ZN11btMultiBody7getLinkEi @560
    _ZN11btMultiBody9goToSleepEv @561
    _ZN11btMultiBodyC1EifRK9btVector3bbb @562
    _ZN11btMultiBodyC2EifRK9btVector3bbb @563
    _ZN11btMultiBodyD0Ev @564
    _ZN11btMultiBodyD1Ev @565
    _ZN11btMultiBodyD2Ev @566
    _ZN11btMultiBodydlEPv @567
    _ZN11btRigidBody10applyForceERK9btVector3S2_ @568
    _ZN11btRigidBody10setDampingEff @569
    _ZN11btRigidBody10setGravityERK9btVector3 @570
    _ZN11btRigidBody11applyTorqueERK9btVector3 @571
    _ZN11btRigidBody11clearForcesEv @572
    _ZN11btRigidBody12applyDampingEf @573
    _ZN11btRigidBody12applyGravityEv @574
    _ZN11btRigidBody12applyImpulseERK9btVector3S2_ @575
    _ZN11btRigidBody12setMassPropsEfRK9btVector3 @576
    _ZN11btRigidBody13wantsSleepingEv @577
    _ZN11btRigidBody14getMotionStateEv @578
    _ZN11btRigidBody14obtsetPositionEfff @579
    _ZN11btRigidBody14obtsetRotationE12btQuaternion @580
    _ZN11btRigidBody14setupRigidBodyERKNS_27btRigidBodyConstructionInfoE @581
    _ZN11btRigidBody15setLinearFactorERK9btVector3 @582
    _ZN11btRigidBody16addConstraintRefEP17btTypedConstraint @583
    _ZN11btRigidBody16getConstraintRefEi @584
    _ZN11btRigidBody16setAngularFactorERK9btVector3 @585
    _ZN11btRigidBody16setAngularFactorEf @586
    _ZN11btRigidBody17applyCentralForceERK9btVector3 @587
    _ZN11btRigidBody17getCollisionShapeEv @588
    _ZN11btRigidBody17setLinearVelocityERK9btVector3 @589
    _ZN11btRigidBody18applyTorqueImpulseERK9btVector3 @590
    _ZN11btRigidBody18getBroadphaseProxyEv @591
    _ZN11btRigidBody18proceedToTransformERK11btTransform @592
    _ZN11btRigidBody18saveKinematicStateEf @593
    _ZN11btRigidBody18setAngularVelocityERK9btVector3 @594
    _ZN11btRigidBody18updateDeactivationEf @595
    _ZN11btRigidBody19applyCentralImpulseERK9btVector3 @596
    _ZN11btRigidBody19integrateVelocitiesEf @597
    _ZN11btRigidBody19removeConstraintRefEP17btTypedConstraint @598
    _ZN11btRigidBody19updateInertiaTensorEv @599
    _ZN11btRigidBody24setCenterOfMassTransformERK11btTransform @600
    _ZN11btRigidBody26predictIntegratedTransformEfR11btTransform @601
    _ZN11btRigidBody27btRigidBodyConstructionInfoC1EfP13btMotionStateP16btCollisionShapeRK9btVector3 @602
    _ZN11btRigidBody6upcastEP17btCollisionObject @603
    _ZN11btRigidBody6upcastEPK17btCollisionObject @604
    _ZN11btRigidBodyC1ERKNS_27btRigidBodyConstructionInfoE @605
    _ZN11btRigidBodyC1EfP13btMotionStateP16btCollisionShapeRK9btVector3 @606
    _ZN11btRigidBodyC2ERKNS_27btRigidBodyConstructionInfoE @607
    _ZN11btRigidBodyC2EfP13btMotionStateP16btCollisionShapeRK9btVector3 @608
    _ZN11btRigidBodyD0Ev @609
    _ZN11btRigidBodyD1Ev @610
    _ZN11btShapeHull19getUnitSpherePointsEv @611
    _ZN11btShapeHull9buildHullEf @612
    _ZN11btShapeHullC1EPK13btConvexShape @613
    _ZN11btShapeHullC2EPK13btConvexShape @614
    _ZN11btShapeHullD1Ev @615
    _ZN11btShapeHullD2Ev @616
    _ZN11btSparseSdfILi3EE10InitializeEii @617
    _ZN11btSparseSdfILi3EE15DistanceToShapeERK9btVector3PK16btCollisionShape @618
    _ZN11btSparseSdfILi3EE16RemoveReferencesEP16btCollisionShape @619
    _ZN11btSparseSdfILi3EE4HashEiiiPK16btCollisionShape @620
    _ZN11btSparseSdfILi3EE4LerpEfff @621
    _ZN11btSparseSdfILi3EE5ResetEv @622
    _ZN11btSparseSdfILi3EE8EvaluateERK9btVector3PK16btCollisionShapeRS1_f @623
    _ZN11btSparseSdfILi3EE9BuildCellERNS0_4CellE @624
    _ZN11btSparseSdfILi3EE9DecomposeEf @625
    _ZN11btSparseSdfILi3EEC1Ev @626
    _ZN11btSparseSdfILi3EED1Ev @627
    _ZN11btSpinMutex4lockEv @628
    _ZN11btSpinMutex6unlockEv @629
    _ZN11btSpinMutex7tryLockEv @630
    _ZN11btSpinMutexC1Ev @631
    _ZN11btSymMatrixIiE6resizeEiRKi @632
    _ZN11btSymMatrixIiEC1EiRKi @633
    _ZN11btSymMatrixIiED1Ev @634
    _ZN11btSymMatrixIiEclEii @635
    _ZN11btTransform11getIdentityEv @636
    _ZN11btTransform11setIdentityEv @637
    _ZN11btTransform11setRotationERK12btQuaternion @638
    _ZN11btTransform16deSerializeFloatERK20btTransformFloatData @639
    _ZN11btTransform17deSerializeDoubleERK21btTransformDoubleData @640
    _ZN11btTransform19setFromOpenGLMatrixEPKf @641
    _ZN11btTransform8getBasisEv @642
    _ZN11btTransform8setBasisERK11btMatrix3x3 @643
    _ZN11btTransform9getOriginEv @644
    _ZN11btTransform9setOriginERK9btVector3 @645
    _ZN11btTransformC1ERK11btMatrix3x3RK9btVector3 @646
    _ZN11btTransformC1ERK12btQuaternionRK9btVector3 @647
    _ZN11btTransformC1ERKS_ @648
    _ZN11btTransformC1Ev @649
    _ZN11btTransformaSERKS_ @650
    _ZN11btTransformmLERKS_ @651
    _ZN11btUnionFind10getElementEi @652
    _ZN11btUnionFind11sortIslandsEv @653
    _ZN11btUnionFind4FreeEv @654
    _ZN11btUnionFind4findEi @655
    _ZN11btUnionFind5resetEi @656
    _ZN11btUnionFind5uniteEii @657
    _ZN11btUnionFind8allocateEi @658
    _ZN11btUnionFindC1Ev @659
    _ZN11btUnionFindC2Ev @660
    _ZN11btUnionFindD1Ev @661
    _ZN11btUnionFindD2Ev @662
    _ZN11btWheelInfo11RaycastInfoC1Ev @663
    _ZN11btWheelInfo11updateWheelERK11btRigidBodyRNS_11RaycastInfoE @664
    _ZN11btWheelInfoC1ER27btWheelInfoConstructionInfo @665
    _ZN11btWheelInfoC1ERKS_ @666
    _ZN12CProfileNode10Get_ParentEv @667
    _ZN12CProfileNode11Get_SiblingEv @668
    _ZN12CProfileNode12Get_Sub_NodeEPKc @669
    _ZN12CProfileNode13CleanupMemoryEv @670
    _ZN12CProfileNode14Get_Total_TimeEv @671
    _ZN12CProfileNode15Get_Total_CallsEv @672
    _ZN12CProfileNode4CallEv @673
    _ZN12CProfileNode5ResetEv @674
    _ZN12CProfileNode6ReturnEv @675
    _ZN12CProfileNode8Get_NameEv @676
    _ZN12CProfileNode9Get_ChildEv @677
    _ZN12CProfileNodeC1EPKcPS_ @678
    _ZN12CProfileNodeC2EPKcPS_ @679
    _ZN12CProfileNodeD1Ev @680
    _ZN12CProfileNodeD2Ev @681
    _ZN12GIM_BOX_TREE10build_treeER9gim_arrayI13GIM_AABB_DATAE @682
    _ZN12GIM_BOX_TREE15_build_sub_treeER9gim_arrayI13GIM_AABB_DATAEjj @683
    _ZN12GIM_BOX_TREE20_calc_splitting_axisER9gim_arrayI13GIM_AABB_DATAEjj @684
    _ZN12GIM_BOX_TREE30_sort_and_calc_splitting_indexER9gim_arrayI13GIM_AABB_DATAEjjj @685
    _ZN12GIM_BVH_DATAC1ERKS_ @686
    _ZN12GIM_BVH_DATAC1Ev @687
    _ZN12VehicleQueue7enqueueEP25btDefaultVehicleRaycasterN16btRaycastVehicle15btVehicleTuningE @688
    _ZN12VehicleQueueC1Ev @689
    _ZN12VehicleQueueC2Ev @690
    _ZN12btAxisSweep3C1ERK9btVector3S2_tP22btOverlappingPairCacheb @691
    _ZN12btAxisSweep3C2ERK9btVector3S2_tP22btOverlappingPairCacheb @692
    _ZN12btAxisSweep3D0Ev @693
    _ZN12btAxisSweep3D1Ev @694
    _ZN12btBox2dShape15setLocalScalingERK9btVector3 @695
    _ZN12btBox2dShape9setMarginEf @696
    _ZN12btBox2dShapeD0Ev @697
    _ZN12btBox2dShapeD1Ev @698
    _ZN12btBox2dShapedlEPv @699
    _ZN12btConeShapeXC1Eff @700
    _ZN12btConeShapeXC2Eff @701
    _ZN12btConeShapeXD0Ev @702
    _ZN12btConeShapeXD1Ev @703
    _ZN12btConeShapeZC1Eff @704
    _ZN12btConeShapeZC2Eff @705
    _ZN12btConeShapeZD0Ev @706
    _ZN12btConeShapeZD1Ev @707
    _ZN12btConvexCast10CastResult13reportFailureEii @708
    _ZN12btConvexCast10CastResult15drawCoordSystemERK11btTransform @709
    _ZN12btConvexCast10CastResult9DebugDrawEf @710
    _ZN12btConvexCast10CastResultC1Ev @711
    _ZN12btConvexCast10CastResultD0Ev @712
    _ZN12btConvexCast10CastResultD1Ev @713
    _ZN12btConvexCastC2Ev @714
    _ZN12btConvexCastD0Ev @715
    _ZN12btConvexCastD1Ev @716
    _ZN12btConvexCastD2Ev @717
    _ZN12btDbvtAabbMm10FromPointsEPPK9btVector3i @718
    _ZN12btDbvtAabbMm12SignedExpandERK9btVector3 @719
    _ZN12btDbvtAabbMm6ExpandERK9btVector3 @720
    _ZN12btDbvtAabbMm6FromCEERK9btVector3S2_ @721
    _ZN12btDbvtAabbMm6FromCRERK9btVector3f @722
    _ZN12btDbvtAabbMm6FromMMERK9btVector3S2_ @723
    _ZN12btDbvtAabbMmC1Ev @724
    _ZN12btDispatcherC2Ev @725
    _ZN12btDispatcherD0Ev @726
    _ZN12btDispatcherD1Ev @727
    _ZN12btDispatcherD2Ev @728
    _ZN12btEmptyShape15setLocalScalingERK9btVector3 @729
    _ZN12btEmptyShapeC1Ev @730
    _ZN12btEmptyShapeC2Ev @731
    _ZN12btEmptyShapeD0Ev @732
    _ZN12btEmptyShapeD1Ev @733
    _ZN12btEmptyShapeD2Ev @734
    _ZN12btEmptyShapedlEPv @735
    _ZN12btGImpactBvh12setNodeBoundEiRK6btAABB @736
    _ZN12btGImpactBvh14find_collisionEPS_RK11btTransformS0_S3_R9btPairSet @737
    _ZN12btGImpactBvh5refitEv @738
    _ZN12btGImpactBvh8buildSetEv @739
    _ZN12btHashStringC1EPKc @740
    _ZN12btMLCPSolver10createMLCPERK19btContactSolverInfo @741
    _ZN12btMLCPSolver14createMLCPFastERK19btContactSolverInfo @742
    _ZN12btMLCPSolver28solveGroupCacheFriendlySetupEPP17btCollisionObjectiPP20btPersistentManifoldiPP17btTypedConstraintiRK19btContactSolverInfoP12btIDebugDraw @743
    _ZN12btMLCPSolver33solveGroupCacheFriendlyIterationsEPP17btCollisionObjectiPP20btPersistentManifoldiPP17btTypedConstraintiRK19btContactSolverInfoP12btIDebugDraw @744
    _ZN12btMLCPSolver9solveMLCPERK19btContactSolverInfo @745
    _ZN12btMLCPSolverC1EP21btMLCPSolverInterface @746
    _ZN12btMLCPSolverC2EP21btMLCPSolverInterface @747
    _ZN12btMLCPSolverD0Ev @748
    _ZN12btMLCPSolverD1Ev @749
    _ZN12btMLCPSolverD2Ev @750
    _ZN12btQuaternion11getIdentityEv @751
    _ZN12btQuaternion11setRotationERK9btVector3RKf @752
    _ZN12btQuaternion13safeNormalizeEv @753
    _ZN12btQuaternion9normalizeEv @754
    _ZN12btQuaternionC1ERK9btVector3RKf @755
    _ZN12btQuaternionC1ERKfS1_S1_S1_ @756
    _ZN12btQuaternionC1Ev @757
    _ZN12btQuaterniondVERKf @758
    _ZN12btQuaternionmLERKS_ @759
    _ZN12btQuaternionmLERKf @760
    _ZN12btSimplePairC1Eii @761
    _ZN12btSolverBody17writebackVelocityEv @762
    _ZN12btSolverBody18internalSetInvMassERK9btVector3 @763
    _ZN12btSolverBody20internalApplyImpulseERK9btVector3S2_f @764
    _ZN12btSolverBody23internalGetPushVelocityEv @765
    _ZN12btSolverBody23internalGetTurnVelocityEv @766
    _ZN12btSolverBody24internalApplyPushImpulseERK9btVector3S2_f @767
    _ZN12btSolverBody29writebackVelocityAndTransformEff @768
    _ZN12btSolverBody30internalGetDeltaLinearVelocityEv @769
    _ZN12btSolverBody31internalGetDeltaAngularVelocityEv @770
    _ZN12btSolverBodyC1ERKS_ @771
    _ZN12btSolverBodyC1Ev @772
    _ZN12btSolverBodynwEyPv @773
    _ZN12gjkepa2_impl13MinkowskiDiff12EnableMarginEb @774
    _ZN12gjkepa2_impl13MinkowskiDiffC1Ev @775
    _ZN12gjkepa2_impl13MinkowskiDiffaSERKS0_ @776
    _ZN12gjkepa2_impl3EPA10InitializeEv @777
    _ZN12gjkepa2_impl3EPA11getedgedistEPNS0_5sFaceEPNS_3GJK3sSVES5_Rf @778
    _ZN12gjkepa2_impl3EPA4bindEPNS0_5sFaceEjS2_j @779
    _ZN12gjkepa2_impl3EPA5sFaceC1Ev @780
    _ZN12gjkepa2_impl3EPA5sListC1Ev @781
    _ZN12gjkepa2_impl3EPA6appendERNS0_5sListEPNS0_5sFaceE @782
    _ZN12gjkepa2_impl3EPA6expandEjPNS_3GJK3sSVEPNS0_5sFaceEjRNS0_8sHorizonE @783
    _ZN12gjkepa2_impl3EPA6removeERNS0_5sListEPNS0_5sFaceE @784
    _ZN12gjkepa2_impl3EPA7newfaceEPNS_3GJK3sSVES3_S3_b @785
    _ZN12gjkepa2_impl3EPA8EvaluateERNS_3GJKERK9btVector3 @786
    _ZN12gjkepa2_impl3EPA8findbestEv @787
    _ZN12gjkepa2_impl3EPA8sHorizonC1Ev @788
    _ZN12gjkepa2_impl3EPAC1Ev @789
    _ZN12gjkepa2_impl3GJK10InitializeEv @790
    _ZN12gjkepa2_impl3GJK13EncloseOriginEv @791
    _ZN12gjkepa2_impl3GJK13appendverticeERNS0_8sSimplexERK9btVector3 @792
    _ZN12gjkepa2_impl3GJK13projectoriginERK9btVector3S3_PfRj @793
    _ZN12gjkepa2_impl3GJK13projectoriginERK9btVector3S3_S3_PfRj @794
    _ZN12gjkepa2_impl3GJK13projectoriginERK9btVector3S3_S3_S3_PfRj @795
    _ZN12gjkepa2_impl3GJK13removeverticeERNS0_8sSimplexE @796
    _ZN12gjkepa2_impl3GJK3detERK9btVector3S3_S3_ @797
    _ZN12gjkepa2_impl3GJK3sSVC1Ev @798
    _ZN12gjkepa2_impl3GJK8EvaluateERKNS_13MinkowskiDiffERK9btVector3 @799
    _ZN12gjkepa2_impl3GJKC1Ev @800
    _ZN13BulletContext10addVehicleEP16btRaycastVehicle @801
    _ZN13BulletContext10col_filterEP13ContactCBInfoS1_ @802
    _ZN13BulletContext10getRayTestEi @803
    _ZN13BulletContext10getVehicleEj @804
    _ZN13BulletContext10hasRayTestEv @805
    _ZN13BulletContext10queueShapeEv @806
    _ZN13BulletContext11isAxisSweepEv @807
    _ZN13BulletContext12addCharacterEP9Character @808
    _ZN13BulletContext12addRigidBodyEP11btRigidBody @809
    _ZN13BulletContext12clearRayTestEv @810
    _ZN13BulletContext12getCharacterEj @811
    _ZN13BulletContext12getLastErrorEv @812
    _ZN13BulletContext12getRigidBodyEj @813
    _ZN13BulletContext12queueVehicleEv @814
    _ZN13BulletContext13addConstraintEP17btTypedConstraint @815
    _ZN13BulletContext13deleteVehicleEj @816
    _ZN13BulletContext13findRigidBodyEP11btRigidBody @817
    _ZN13BulletContext13getConstraintEj @818
    _ZN13BulletContext13getNumRayTestEv @819
    _ZN13BulletContext13setBroadphaseEP21btBroadphaseInterfaceb @820
    _ZN13BulletContext14queueCharacterEv @821
    _ZN13BulletContext14queueRigidBodyEv @822
    _ZN13BulletContext15deleteCharacterEj @823
    _ZN13BulletContext15deleteRigidBodyEj @824
    _ZN13BulletContext15getVehRayCasterEv @825
    _ZN13BulletContext15queueConstraintEi @826
    _ZN13BulletContext16deleteConstraintEj @827
    _ZN13BulletContext17addCollisionShapeEP16btCollisionShape @828
    _ZN13BulletContext17getCollisionShapeEj @829
    _ZN13BulletContext18findCollisionShapeEP16btCollisionShape @830
    _ZN13BulletContext19isTheContextCreatedEv @831
    _ZN13BulletContext20initCharacterContextEv @832
    _ZN13BulletContext20initVehicleRayCasterEv @833
    _ZN13BulletContext26findRigidBodyByUserPointerEi @834
    _ZN13BulletContext7rayTestERK9btVector3S2_b @835
    _ZN13BulletContext8getWorldEv @836
    _ZN13BulletContext8setErrorEi @837
    _ZN13BulletContextC1Ev @838
    _ZN13BulletContextC2Ev @839
    _ZN13BulletContextD0Ev @840
    _ZN13BulletContextD1Ev @841
    _ZN13BulletContextD2Ev @842
    _ZN13ContactCBInfoC1Ev @843
    _ZN13ContactCBInfoC2Ev @844
    _ZN13GIM_AABB_DATAC1ERKS_ @845
    _ZN13GrahamVector3C1ERK9btVector3i @846
    _ZN13RayTestResultC1Ev @847
    _ZN13RayTestResultC2Ev @848
    _ZN13btConvexShapeC1Ev @849
    _ZN13btConvexShapeC2Ev @850
    _ZN13btConvexShapeD0Ev @851
    _ZN13btConvexShapeD1Ev @852
    _ZN13btConvexShapeD2Ev @853
    _ZN13btConvexShapedlEPv @854
    _ZN13btGhostObject28addOverlappingObjectInternalEP17btBroadphaseProxyS1_ @855
    _ZN13btGhostObject31removeOverlappingObjectInternalEP17btBroadphaseProxyP12btDispatcherS1_ @856
    _ZN13btGhostObject6upcastEP17btCollisionObject @857
    _ZN13btGhostObjectC1Ev @858
    _ZN13btGhostObjectC2Ev @859
    _ZN13btGhostObjectD0Ev @860
    _ZN13btGhostObjectD1Ev @861
    _ZN13btGhostObjectD2Ev @862
    _ZN13btIndexedMeshC1Ev @863
    _ZN13btIndexedMeshnwEyPv @864
    _ZN13btMotionStateC2Ev @865
    _ZN13btMotionStateD2Ev @866
    _ZN13btSphereShape9setMarginEf @867
    _ZN13btSphereShapeC1Ef @868
    _ZN13btSphereShapeD0Ev @869
    _ZN13btSphereShapeD1Ev @870
    _ZN13btSphereShapedlEPv @871
    _ZN13btSphereShapenwEy @872
    _ZN13btTypedObjectC2Ei @873
    _ZN14CProfileSampleC1EPKc @874
    _ZN14CProfileSampleC2EPKc @875
    _ZN14CProfileSampleD1Ev @876
    _ZN14CProfileSampleD2Ev @877
    _ZN14CharacterQueue7enqueueEP11DebugLogger @878
    _ZN14CharacterQueueC1Ev @879
    _ZN14CharacterQueueC2Ev @880
    _ZN14btAngularLimit3setEfffff @881
    _ZN14btAngularLimit4testEf @882
    _ZN14btAngularLimitC1Ev @883
    _ZN14btCapsuleShape15setLocalScalingERK9btVector3 @884
    _ZN14btCapsuleShape16deSerializeFloatEP18btCapsuleShapeData @885
    _ZN14btCapsuleShape9setMarginEf @886
    _ZN14btCapsuleShapeC1Eff @887
    _ZN14btCapsuleShapeC2Eff @888
    _ZN14btCapsuleShapeC2Ev @889
    _ZN14btCapsuleShapeD0Ev @890
    _ZN14btCapsuleShapeD1Ev @891
    _ZN14btCapsuleShapeD2Ev @892
    _ZN14btCapsuleShapedlEPv @893
    _ZN14btCapsuleShapenwEy @894
    _ZN14btConcaveShape9setMarginEf @895
    _ZN14btConcaveShapeC1Ev @896
    _ZN14btConcaveShapeC2Ev @897
    _ZN14btConcaveShapeD0Ev @898
    _ZN14btConcaveShapeD1Ev @899
    _ZN14btConcaveShapeD2Ev @900
    _ZN14btConcaveShapedlEPv @901
    _ZN14btConcaveShapenwEy @902
    _ZN14btContactArray14merge_contactsERKS_b @903
    _ZN14btContactArray21merge_contacts_uniqueERKS_ @904
    _ZN14btGeometryUtil19isPointInsidePlanesERK20btAlignedObjectArrayI9btVector3ERKS1_f @905
    _ZN14btGeometryUtil22areVerticesBehindPlaneERK9btVector3RK20btAlignedObjectArrayIS0_Ef @906
    _ZN14btGeometryUtil29getPlaneEquationsFromVerticesER20btAlignedObjectArrayI9btVector3ES3_ @907
    _ZN14btGeometryUtil29getVerticesFromPlaneEquationsERK20btAlignedObjectArrayI9btVector3ERS2_ @908
    _ZN14btHullTriangle4neibEii @909
    _ZN14btHullTriangleC1Eiii @910
    _ZN14btHullTriangleD1Ev @911
    _ZN14btInternalEdgeC1Ev @912
    _ZN14btOptimizedBvh12refitPartialEP23btStridingMeshInterfaceRK9btVector3S4_ @913
    _ZN14btOptimizedBvh14updateBvhNodesEP23btStridingMeshInterfaceiii @914
    _ZN14btOptimizedBvh18deSerializeInPlaceEPvjb @915
    _ZN14btOptimizedBvh5buildEP23btStridingMeshInterfacebRK9btVector3S4_ @916
    _ZN14btOptimizedBvh5refitEP23btStridingMeshInterfaceRK9btVector3S4_ @917
    _ZN14btOptimizedBvhC1Ev @918
    _ZN14btOptimizedBvhC2Ev @919
    _ZN14btOptimizedBvhD0Ev @920
    _ZN14btOptimizedBvhD1Ev @921
    _ZN14btOptimizedBvhD2Ev @922
    _ZN14btOptimizedBvhdlEPv @923
    _ZN14btOptimizedBvhdlEPvS0_ @924
    _ZN14btOptimizedBvhnwEy @925
    _ZN14btOptimizedBvhnwEyPv @926
    _ZN14btQuantizedBvh11isQuantizedEv @927
    _ZN14btQuantizedBvh13buildInternalEv @928
    _ZN14btQuantizedBvh13swapLeafNodesEii @929
    _ZN14btQuantizedBvh16deSerializeFloatER23btQuantizedBvhFloatData @930
    _ZN14btQuantizedBvh17calcSplittingAxisEii @931
    _ZN14btQuantizedBvh17deSerializeDoubleER24btQuantizedBvhDoubleData @932
    _ZN14btQuantizedBvh18deSerializeInPlaceEPvjb @933
    _ZN14btQuantizedBvh20updateSubtreeHeadersEii @934
    _ZN14btQuantizedBvh21mergeInternalNodeAabbEiRK9btVector3S2_ @935
    _ZN14btQuantizedBvh21setQuantizationValuesERK9btVector3S2_f @936
    _ZN14btQuantizedBvh22setInternalNodeAabbMaxEiRK9btVector3 @937
    _ZN14btQuantizedBvh22setInternalNodeAabbMinEiRK9btVector3 @938
    _ZN14btQuantizedBvh25sortAndCalcSplittingIndexEiii @939
    _ZN14btQuantizedBvh26setInternalNodeEscapeIndexEii @940
    _ZN14btQuantizedBvh30assignInternalNodeFromLeafNodeEii @941
    _ZN14btQuantizedBvh32getAlignmentSerializationPaddingEv @942
    _ZN14btQuantizedBvh9buildTreeEii @943
    _ZN14btQuantizedBvhC1ERS_b @944
    _ZN14btQuantizedBvhC1Ev @945
    _ZN14btQuantizedBvhC2ERS_b @946
    _ZN14btQuantizedBvhC2Ev @947
    _ZN14btQuantizedBvhD0Ev @948
    _ZN14btQuantizedBvhD1Ev @949
    _ZN14btQuantizedBvhD2Ev @950
    _ZN14btQuantizedBvhdlEPv @951
    _ZN14btQuantizedBvhdlEPvS0_ @952
    _ZN14btQuantizedBvhnwEyPv @953
    _ZN14btTriangleInfoC1Ev @954
    _ZN14btTriangleMesh11addTriangleERK9btVector3S2_S2_b @955
    _ZN14btTriangleMesh15findOrAddVertexERK9btVector3b @956
    _ZN14btTriangleMesh18addTriangleIndicesEiii @957
    _ZN14btTriangleMesh18preallocateIndicesEi @958
    _ZN14btTriangleMesh19preallocateVerticesEi @959
    _ZN14btTriangleMesh8addIndexEi @960
    _ZN14btTriangleMeshC1Ebb @961
    _ZN14btTriangleMeshC2Ebb @962
    _ZN14btTriangleMeshD0Ev @963
    _ZN14btTriangleMeshD1Ev @964
    _ZN15CProfileManager12FrameCounterE @965 DATA
    _ZN15CProfileManager12Get_IteratorEv @966
    _ZN15CProfileManager12Stop_ProfileEv @967
    _ZN15CProfileManager13CleanupMemoryEv @968
    _ZN15CProfileManager13Start_ProfileEPKc @969
    _ZN15CProfileManager13dumpRecursiveEP16CProfileIteratori @970
    _ZN15CProfileManager16Release_IteratorEP16CProfileIterator @971
    _ZN15CProfileManager20Get_Time_Since_ResetEv @972
    _ZN15CProfileManager23Increment_Frame_CounterEv @973
    _ZN15CProfileManager27Get_Frame_Count_Since_ResetEv @974
    _ZN15CProfileManager5ResetEv @975
    _ZN15CProfileManager7dumpAllEv @976
    _ZN15CProfileManager9ResetTimeE @977 DATA
    _ZN15ConstraintQueue7enqueueEv @978
    _ZN15ConstraintQueueC1Ei @979
    _ZN15ConstraintQueueC2Ei @980
    _ZN15GIM_RSORT_TOKENC1ERKS_ @981
    _ZN15GIM_RSORT_TOKENC1Ev @982
    _ZN15btCapsuleShapeXC1Eff @983
    _ZN15btCapsuleShapeXC2Eff @984
    _ZN15btCapsuleShapeXD0Ev @985
    _ZN15btCapsuleShapeXD1Ev @986
    _ZN15btCapsuleShapeZC1Eff @987
    _ZN15btCapsuleShapeZC2Eff @988
    _ZN15btCapsuleShapeZD0Ev @989
    _ZN15btCapsuleShapeZD1Ev @990
    _ZN15btCompoundShape13addChildShapeERK11btTransformP16btCollisionShape @991
    _ZN15btCompoundShape15setLocalScalingERK9btVector3 @992
    _ZN15btCompoundShape16removeChildShapeEP16btCollisionShape @993
    _ZN15btCompoundShape17getChildTransformEi @994
    _ZN15btCompoundShape20recalculateLocalAabbEv @995
    _ZN15btCompoundShape20updateChildTransformEiRK11btTransformb @996
    _ZN15btCompoundShape23removeChildShapeByIndexEi @997
    _ZN15btCompoundShape26createAabbTreeFromChildrenEv @998
    _ZN15btCompoundShape9setMarginEf @999
    _ZN15btCompoundShapeC1Ebi @1000
    _ZN15btCompoundShapeC2Ebi @1001
    _ZN15btCompoundShapeD0Ev @1002
    _ZN15btCompoundShapeD1Ev @1003
    _ZN15btCompoundShapeD2Ev @1004
    _ZN15btCompoundShapedlEPv @1005
    _ZN15btCompoundShapenwEy @1006
    _ZN15btConvex2dShape15setLocalScalingERK9btVector3 @1007
    _ZN15btConvex2dShape9setMarginEf @1008
    _ZN15btConvex2dShapeC1EP13btConvexShape @1009
    _ZN15btConvex2dShapeC2EP13btConvexShape @1010
    _ZN15btConvex2dShapeD0Ev @1011
    _ZN15btConvex2dShapeD1Ev @1012
    _ZN15btConvex2dShapeD2Ev @1013
    _ZN15btConvex2dShapedlEPv @1014
    _ZN15btCylinderShape15setLocalScalingERK9btVector3 @1015
    _ZN15btCylinderShape9setMarginEf @1016
    _ZN15btCylinderShapeC1ERK9btVector3 @1017
    _ZN15btCylinderShapeC2ERK9btVector3 @1018
    _ZN15btCylinderShapeD0Ev @1019
    _ZN15btCylinderShapeD1Ev @1020
    _ZN15btCylinderShapeD2Ev @1021
    _ZN15btCylinderShapedlEPv @1022
    _ZN15btCylinderShapenwEy @1023
    _ZN15btDynamicsWorld10addVehicleEP17btActionInterface @1024
    _ZN15btDynamicsWorld12addCharacterEP17btActionInterface @1025
    _ZN15btDynamicsWorld13addConstraintEP17btTypedConstraintb @1026
    _ZN15btDynamicsWorld13getConstraintEi @1027
    _ZN15btDynamicsWorld13getSolverInfoEv @1028
    _ZN15btDynamicsWorld13removeVehicleEP17btActionInterface @1029
    _ZN15btDynamicsWorld15removeCharacterEP17btActionInterface @1030
    _ZN15btDynamicsWorld16removeConstraintEP17btTypedConstraint @1031
    _ZN15btDynamicsWorldC2EP12btDispatcherP21btBroadphaseInterfaceP24btCollisionConfiguration @1032
    _ZN15btDynamicsWorldD2Ev @1033
    _ZN15btGjkConvexCast16calcTimeOfImpactERK11btTransformS2_S2_S2_RN12btConvexCast10CastResultE @1034
    _ZN15btGjkConvexCastC1EPK13btConvexShapeS2_P22btVoronoiSimplexSolver @1035
    _ZN15btGjkConvexCastC2EPK13btConvexShapeS2_P22btVoronoiSimplexSolver @1036
    _ZN15btGjkConvexCastD0Ev @1037
    _ZN15btGjkConvexCastD1Ev @1038
    _ZN15btGjkEpaSolver211PenetrationEPK13btConvexShapeRK11btTransformS2_S5_RK9btVector3RNS_8sResultsEb @1039
    _ZN15btGjkEpaSolver214SignedDistanceEPK13btConvexShapeRK11btTransformS2_S5_RK9btVector3RNS_8sResultsE @1040
    _ZN15btGjkEpaSolver214SignedDistanceERK9btVector3fPK13btConvexShapeRK11btTransformRNS_8sResultsE @1041
    _ZN15btGjkEpaSolver220StackSizeRequirementEv @1042
    _ZN15btGjkEpaSolver28DistanceEPK13btConvexShapeRK11btTransformS2_S5_RK9btVector3RNS_8sResultsE @1043
    _ZN15btGjkEpaSolver28sResultsC1Ev @1044
    _ZN15btJacobianEntry19getRelativeVelocityERK9btVector3S2_S2_S2_ @1045
    _ZN15btJacobianEntryC1ERK11btMatrix3x3S2_RK9btVector3S5_S5_S5_fS5_f @1046
    _ZN15btJacobianEntryC1ERK9btVector3RK11btMatrix3x3S5_S2_S2_ @1047
    _ZN15btJacobianEntryC1Ev @1048
    _ZN15btManifoldPointC1ERK9btVector3S2_S2_f @1049
    _ZN15btManifoldPointC1Ev @1050
    _ZN15btMultibodyLink10setAxisTopEiRK9btVector3 @1051
    _ZN15btMultibodyLink10setAxisTopEiRKfS1_S1_ @1052
    _ZN15btMultibodyLink13setAxisBottomEiRK9btVector3 @1053
    _ZN15btMultibodyLink13setAxisBottomEiRKfS1_S1_ @1054
    _ZN15btMultibodyLink19updateCacheMultiDofEPf @1055
    _ZN15btMultibodyLinkC1ERKS_ @1056
    _ZN15btMultibodyLinkC1Ev @1057
    _ZN15btMultibodyLinknwEyPv @1058
    _ZN15btNullPairCache18addOverlappingPairEP17btBroadphaseProxyS1_ @1059
    _ZN15btNullPairCache18hasDeferredRemovalEv @1060
    _ZN15btNullPairCache19cleanProxyFromPairsEP17btBroadphaseProxyP12btDispatcher @1061
    _ZN15btNullPairCache20cleanOverlappingPairER16btBroadphasePairP12btDispatcher @1062
    _ZN15btNullPairCache20sortOverlappingPairsEP12btDispatcher @1063
    _ZN15btNullPairCache21removeOverlappingPairEP17btBroadphaseProxyS1_P12btDispatcher @1064
    _ZN15btNullPairCache23getOverlappingPairArrayEv @1065
    _ZN15btNullPairCache24setOverlapFilterCallbackEP23btOverlapFilterCallback @1066
    _ZN15btNullPairCache26getOverlappingPairArrayPtrEv @1067
    _ZN15btNullPairCache26processAllOverlappingPairsEP17btOverlapCallbackP12btDispatcher @1068
    _ZN15btNullPairCache28setInternalGhostPairCallbackEP25btOverlappingPairCallback @1069
    _ZN15btNullPairCache37removeOverlappingPairsContainingProxyEP17btBroadphaseProxyP12btDispatcher @1070
    _ZN15btNullPairCache8findPairEP17btBroadphaseProxyS1_ @1071
    _ZN15btNullPairCacheC1Ev @1072
    _ZN15btNullPairCacheD0Ev @1073
    _ZN15btNullPairCacheD1Ev @1074
    _ZN15btPoolAllocator10freeMemoryEPv @1075
    _ZN15btPoolAllocator8allocateEi @1076
    _ZN15btPoolAllocator8validPtrEPv @1077
    _ZN15btPoolAllocatorC1Eii @1078
    _ZN15btPoolAllocatorD1Ev @1079
    _ZN15btSoftColliders11ClusterBase12SolveContactERKN15btGjkEpaSolver28sResultsEN10btSoftBody4BodyES6_RNS5_6CJointE @1080
    _ZN15btSoftColliders11ClusterBaseC2Ev @1081
    _ZN15btSoftColliders11ClusterBaseD0Ev @1082
    _ZN15btSoftColliders11ClusterBaseD1Ev @1083
    _ZN15btSoftColliders11ClusterBaseD2Ev @1084
    _ZN15btSoftColliders12CollideCL_RS13ProcessColObjEP10btSoftBodyPK24btCollisionObjectWrapper @1085
    _ZN15btSoftColliders12CollideCL_RS7ProcessEPK10btDbvtNode @1086
    _ZN15btSoftColliders12CollideCL_RSC1Ev @1087
    _ZN15btSoftColliders12CollideCL_RSD0Ev @1088
    _ZN15btSoftColliders12CollideCL_RSD1Ev @1089
    _ZN15btSoftColliders12CollideCL_SS15ProcessSoftSoftEP10btSoftBodyS2_ @1090
    _ZN15btSoftColliders12CollideCL_SS7ProcessEPK10btDbvtNodeS3_ @1091
    _ZN15btSoftColliders12CollideCL_SSC1Ev @1092
    _ZN15btSoftColliders12CollideCL_SSD0Ev @1093
    _ZN15btSoftColliders12CollideCL_SSD1Ev @1094
    _ZN15btSoftColliders12CollideVF_SS7ProcessEPK10btDbvtNodeS3_ @1095
    _ZN15btSoftColliders12CollideVF_SSC1Ev @1096
    _ZN15btSoftColliders12CollideVF_SSD0Ev @1097
    _ZN15btSoftColliders12CollideVF_SSD1Ev @1098
    _ZN15btSoftColliders13CollideSDF_RS7ProcessEPK10btDbvtNode @1099
    _ZN15btSoftColliders13CollideSDF_RSC1Ev @1100
    _ZN15btSoftColliders13CollideSDF_RSD0Ev @1101
    _ZN15btSoftColliders13CollideSDF_RSD1Ev @1102
    _ZN15btTransformUtil17calculateVelocityERK11btTransformS2_fR9btVector3S4_ @1103
    _ZN15btTransformUtil18integrateTransformERK11btTransformRK9btVector3S5_fRS0_ @1104
    _ZN15btTransformUtil22calculateDiffAxisAngleERK11btTransformS2_R9btVector3Rf @1105
    _ZN15btTriangleShape12getVertexPtrEi @1106
    _ZN15btTriangleShapeC1ERK9btVector3S2_S2_ @1107
    _ZN15btTriangleShapeC2ERK9btVector3S2_S2_ @1108
    _ZN15btTriangleShapeD0Ev @1109
    _ZN15btTriangleShapeD1Ev @1110
    _ZN15btTriangleShapeD2Ev @1111
    _ZN15btTriangleShapedlEPv @1112
    _ZN15btUsageBitfield5resetEv @1113
    _ZN15btUsageBitfieldC1Ev @1114
    _ZN16CProfileIterator11Enter_ChildEi @1115
    _ZN16CProfileIterator12Enter_ParentEv @1116
    _ZN16CProfileIterator16Get_Current_NameEv @1117
    _ZN16CProfileIterator22Get_Current_Total_TimeEv @1118
    _ZN16CProfileIterator23Get_Current_Parent_NameEv @1119
    _ZN16CProfileIterator23Get_Current_Total_CallsEv @1120
    _ZN16CProfileIterator29Get_Current_Parent_Total_TimeEv @1121
    _ZN16CProfileIterator4NextEv @1122
    _ZN16CProfileIterator5FirstEv @1123
    _ZN16CProfileIterator7Is_DoneEv @1124
    _ZN16CProfileIterator7Is_RootEv @1125
    _ZN16CProfileIteratorC1EP12CProfileNode @1126
    _ZN16CProfileIteratorC2EP12CProfileNode @1127
    _ZN16btBU_Simplex1to49addVertexERK9btVector3 @1128
    _ZN16btBU_Simplex1to4C1ERK9btVector3 @1129
    _ZN16btBU_Simplex1to4C1ERK9btVector3S2_ @1130
    _ZN16btBU_Simplex1to4C1ERK9btVector3S2_S2_ @1131
    _ZN16btBU_Simplex1to4C1ERK9btVector3S2_S2_S2_ @1132
    _ZN16btBU_Simplex1to4C1Ev @1133
    _ZN16btBU_Simplex1to4C2ERK9btVector3 @1134
    _ZN16btBU_Simplex1to4C2ERK9btVector3S2_ @1135
    _ZN16btBU_Simplex1to4C2ERK9btVector3S2_S2_ @1136
    _ZN16btBU_Simplex1to4C2ERK9btVector3S2_S2_S2_ @1137
    _ZN16btBU_Simplex1to4C2Ev @1138
    _ZN16btBU_Simplex1to4D0Ev @1139
    _ZN16btBU_Simplex1to4D1Ev @1140
    _ZN16btBU_Simplex1to4D2Ev @1141
    _ZN16btBU_Simplex1to4dlEPv @1142
    _ZN16btBoxBoxDetector16getClosestPointsERKN36btDiscreteCollisionDetectorInterface17ClosestPointInputERNS0_6ResultEP12btIDebugDrawb @1143
    _ZN16btBoxBoxDetectorC1EPK10btBoxShapeS2_ @1144
    _ZN16btBoxBoxDetectorC2EPK10btBoxShapeS2_ @1145
    _ZN16btBoxBoxDetectorD0Ev @1146
    _ZN16btBoxBoxDetectorD1Ev @1147
    _ZN16btBroadphasePairC1ER17btBroadphaseProxyS1_ @1148
    _ZN16btBroadphasePairC1ERKS_ @1149
    _ZN16btBroadphasePairC1Ev @1150
    _ZN16btBroadphasePairnwEyPv @1151
    _ZN16btBvhSubtreeInfo23setAabbFromQuantizeNodeERK18btQuantizedBvhNode @1152
    _ZN16btBvhSubtreeInfoC1Ev @1153
    _ZN16btBvhSubtreeInfonwEyPv @1154
    _ZN16btCollisionShape14setUserPointerEPv @1155
    _ZN16btCollisionShapeC2Ev @1156
    _ZN16btCollisionShapeD2Ev @1157
    _ZN16btCollisionWorld11contactTestEP17btCollisionObjectRNS_21ContactResultCallbackE @1158
    _ZN16btCollisionWorld11updateAabbsEv @1159
    _ZN16btCollisionWorld12getPairCacheEv @1160
    _ZN16btCollisionWorld13getBroadphaseEv @1161
    _ZN16btCollisionWorld13getDispatcherEv @1162
    _ZN16btCollisionWorld13rayTestSingleERK11btTransformS2_P17btCollisionObjectPK16btCollisionShapeS2_RNS_17RayResultCallbackE @1163
    _ZN16btCollisionWorld13setBroadphaseEP21btBroadphaseInterface @1164
    _ZN16btCollisionWorld14LocalRayResultC1EPK17btCollisionObjectPNS_14LocalShapeInfoERK9btVector3f @1165
    _ZN16btCollisionWorld14debugDrawWorldEv @1166
    _ZN16btCollisionWorld14getDebugDrawerEv @1167
    _ZN16btCollisionWorld14setDebugDrawerEP12btIDebugDraw @1168
    _ZN16btCollisionWorld15contactPairTestEP17btCollisionObjectS1_RNS_21ContactResultCallbackE @1169
    _ZN16btCollisionWorld15debugDrawObjectERK11btTransformPK16btCollisionShapeRK9btVector3 @1170
    _ZN16btCollisionWorld15getDispatchInfoEv @1171
    _ZN16btCollisionWorld16updateSingleAabbEP17btCollisionObject @1172
    _ZN16btCollisionWorld17LocalConvexResultC1EPK17btCollisionObjectPNS_14LocalShapeInfoERK9btVector3S8_f @1173
    _ZN16btCollisionWorld17RayResultCallbackC2Ev @1174
    _ZN16btCollisionWorld17RayResultCallbackD2Ev @1175
    _ZN16btCollisionWorld17objectQuerySingleEPK13btConvexShapeRK11btTransformS5_P17btCollisionObjectPK16btCollisionShapeS5_RNS_20ConvexResultCallbackEf @1176
    _ZN16btCollisionWorld18addCollisionObjectEP17btCollisionObjectii @1177
    _ZN16btCollisionWorld20ConvexResultCallbackC2Ev @1178
    _ZN16btCollisionWorld20ConvexResultCallbackD2Ev @1179
    _ZN16btCollisionWorld21rayTestSingleInternalERK11btTransformS2_PK24btCollisionObjectWrapperRNS_17RayResultCallbackE @1180
    _ZN16btCollisionWorld21removeCollisionObjectEP17btCollisionObject @1181
    _ZN16btCollisionWorld23computeOverlappingPairsEv @1182
    _ZN16btCollisionWorld23getCollisionObjectArrayEv @1183
    _ZN16btCollisionWorld24AllHitsRayResultCallback15addSingleResultERNS_14LocalRayResultEb @1184
    _ZN16btCollisionWorld24AllHitsRayResultCallbackC1ERK9btVector3S3_ @1185
    _ZN16btCollisionWorld24AllHitsRayResultCallbackD0Ev @1186
    _ZN16btCollisionWorld24AllHitsRayResultCallbackD1Ev @1187
    _ZN16btCollisionWorld24ClosestRayResultCallback15addSingleResultERNS_14LocalRayResultEb @1188
    _ZN16btCollisionWorld24ClosestRayResultCallbackC1ERK9btVector3S3_ @1189
    _ZN16btCollisionWorld24ClosestRayResultCallbackD0Ev @1190
    _ZN16btCollisionWorld24ClosestRayResultCallbackD1Ev @1191
    _ZN16btCollisionWorld25objectQuerySingleInternalEPK13btConvexShapeRK11btTransformS5_PK24btCollisionObjectWrapperRNS_20ConvexResultCallbackEf @1192
    _ZN16btCollisionWorld25serializeCollisionObjectsEP12btSerializer @1193
    _ZN16btCollisionWorld27ClosestConvexResultCallback15addSingleResultERNS_17LocalConvexResultEb @1194
    _ZN16btCollisionWorld27ClosestConvexResultCallbackC2ERK9btVector3S3_ @1195
    _ZN16btCollisionWorld27ClosestConvexResultCallbackD0Ev @1196
    _ZN16btCollisionWorld27ClosestConvexResultCallbackD1Ev @1197
    _ZN16btCollisionWorld27ClosestConvexResultCallbackD2Ev @1198
    _ZN16btCollisionWorld33performDiscreteCollisionDetectionEv @1199
    _ZN16btCollisionWorld9serializeEP12btSerializer @1200
    _ZN16btCollisionWorldC1EP12btDispatcherP21btBroadphaseInterfaceP24btCollisionConfiguration @1201
    _ZN16btCollisionWorldC2EP12btDispatcherP21btBroadphaseInterfaceP24btCollisionConfiguration @1202
    _ZN16btCollisionWorldD0Ev @1203
    _ZN16btCollisionWorldD1Ev @1204
    _ZN16btCollisionWorldD2Ev @1205
    _ZN16btCylinderShapeXC1ERK9btVector3 @1206
    _ZN16btCylinderShapeXC2ERK9btVector3 @1207
    _ZN16btCylinderShapeXD0Ev @1208
    _ZN16btCylinderShapeXD1Ev @1209
    _ZN16btCylinderShapeXdlEPv @1210
    _ZN16btCylinderShapeXnwEy @1211
    _ZN16btCylinderShapeZC1ERK9btVector3 @1212
    _ZN16btCylinderShapeZC2ERK9btVector3 @1213
    _ZN16btCylinderShapeZD0Ev @1214
    _ZN16btCylinderShapeZD1Ev @1215
    _ZN16btCylinderShapeZdlEPv @1216
    _ZN16btCylinderShapeZnwEy @1217
    _ZN16btDbvtBroadphase10printStatsEv @1218
    _ZN16btDbvtBroadphase11createProxyERK9btVector3S2_iPviiP12btDispatcher @1219
    _ZN16btDbvtBroadphase12destroyProxyEP17btBroadphaseProxyP12btDispatcher @1220
    _ZN16btDbvtBroadphase18setAabbForceUpdateEP17btBroadphaseProxyRK9btVector3S4_P12btDispatcher @1221
    _ZN16btDbvtBroadphase22performDeferredRemovalEP12btDispatcher @1222
    _ZN16btDbvtBroadphase23getOverlappingPairCacheEv @1223
    _ZN16btDbvtBroadphase25calculateOverlappingPairsEP12btDispatcher @1224
    _ZN16btDbvtBroadphase7collideEP12btDispatcher @1225
    _ZN16btDbvtBroadphase7rayTestERK9btVector3S2_R23btBroadphaseRayCallbackS2_S2_ @1226
    _ZN16btDbvtBroadphase7setAabbEP17btBroadphaseProxyRK9btVector3S4_P12btDispatcher @1227
    _ZN16btDbvtBroadphase8aabbTestERK9btVector3S2_R24btBroadphaseAabbCallback @1228
    _ZN16btDbvtBroadphase8optimizeEv @1229
    _ZN16btDbvtBroadphase9benchmarkEP21btBroadphaseInterface @1230
    _ZN16btDbvtBroadphase9resetPoolEP12btDispatcher @1231
    _ZN16btDbvtBroadphaseC1EP22btOverlappingPairCache @1232
    _ZN16btDbvtBroadphaseC2EP22btOverlappingPairCache @1233
    _ZN16btDbvtBroadphaseD0Ev @1234
    _ZN16btDbvtBroadphaseD1Ev @1235
    _ZN16btDbvtBroadphaseD2Ev @1236
    _ZN16btDispatcherInfoC1Ev @1237
    _ZN16btEmptyAlgorithm10CreateFunc24CreateCollisionAlgorithmER36btCollisionAlgorithmConstructionInfoPK24btCollisionObjectWrapperS5_ @1238
    _ZN16btEmptyAlgorithm10CreateFuncC1Ev @1239
    _ZN16btEmptyAlgorithm10CreateFuncD0Ev @1240
    _ZN16btEmptyAlgorithm10CreateFuncD1Ev @1241
    _ZN16btEmptyAlgorithm16processCollisionEPK24btCollisionObjectWrapperS2_RK16btDispatcherInfoP16btManifoldResult @1242
    _ZN16btEmptyAlgorithm21calculateTimeOfImpactEP17btCollisionObjectS1_RK16btDispatcherInfoP16btManifoldResult @1243
    _ZN16btEmptyAlgorithm22getAllContactManifoldsER20btAlignedObjectArrayIP20btPersistentManifoldE @1244
    _ZN16btEmptyAlgorithmC1ERK36btCollisionAlgorithmConstructionInfo @1245
    _ZN16btEmptyAlgorithmC2ERK36btCollisionAlgorithmConstructionInfo @1246
    _ZN16btEmptyAlgorithmD0Ev @1247
    _ZN16btEmptyAlgorithmD1Ev @1248
    _ZN16btGearConstraint8getInfo1EPN17btTypedConstraint17btConstraintInfo1E @1249
    _ZN16btGearConstraint8getInfo2EPN17btTypedConstraint17btConstraintInfo2E @1250
    _ZN16btGearConstraint8setParamEifi @1251
    _ZN16btGearConstraintC1ER11btRigidBodyS1_RK9btVector3S4_f @1252
    _ZN16btGearConstraintC2ER11btRigidBodyS1_RK9btVector3S4_f @1253
    _ZN16btGearConstraintD0Ev @1254
    _ZN16btGearConstraintD1Ev @1255
    _ZN16btGearConstraintD2Ev @1256
    _ZN16btITaskScheduler10deactivateEv @1257
    _ZN16btITaskScheduler8activateEv @1258
    _ZN16btITaskSchedulerC1EPKc @1259
    _ZN16btITaskSchedulerC2EPKc @1260
    _ZN16btITaskSchedulerD2Ev @1261
    _ZN16btLemkeAlgorithm10validBasisERK20btAlignedObjectArrayIiE @1262
    _ZN16btLemkeAlgorithm11greaterZeroERK9btVectorXIfE @1263
    _ZN16btLemkeAlgorithm21LexicographicPositiveERK9btVectorXIfE @1264
    _ZN16btLemkeAlgorithm24findLexicographicMinimumERK9btMatrixXIfERKi @1265
    _ZN16btLemkeAlgorithm26GaussJordanEliminationStepER9btMatrixXIfEiiRK20btAlignedObjectArrayIiE @1266
    _ZN16btLemkeAlgorithm5solveEj @1267
    _ZN16btManifoldResult12setBody0WrapEPK24btCollisionObjectWrapper @1268
    _ZN16btManifoldResult12setBody1WrapEPK24btCollisionObjectWrapper @1269
    _ZN16btManifoldResult15addContactPointERK9btVector3S2_f @1270
    _ZN16btManifoldResult20refreshContactPointsEv @1271
    _ZN16btManifoldResult20setShapeIdentifiersAEii @1272
    _ZN16btManifoldResult20setShapeIdentifiersBEii @1273
    _ZN16btManifoldResult21getPersistentManifoldEv @1274
    _ZN16btManifoldResult21setPersistentManifoldEP20btPersistentManifold @1275
    _ZN16btManifoldResult25calculateCombinedFrictionEPK17btCollisionObjectS2_ @1276
    _ZN16btManifoldResult28calculateCombinedRestitutionEPK17btCollisionObjectS2_ @1277
    _ZN16btManifoldResult31calculateCombinedContactDampingEPK17btCollisionObjectS2_ @1278
    _ZN16btManifoldResult32calculateCombinedRollingFrictionEPK17btCollisionObjectS2_ @1279
    _ZN16btManifoldResult33calculateCombinedContactStiffnessEPK17btCollisionObjectS2_ @1280
    _ZN16btManifoldResult33calculateCombinedSpinningFrictionEPK17btCollisionObjectS2_ @1281
    _ZN16btManifoldResultC1EPK24btCollisionObjectWrapperS2_ @1282
    _ZN16btManifoldResultC1Ev @1283
    _ZN16btManifoldResultC2EPK24btCollisionObjectWrapperS2_ @1284
    _ZN16btManifoldResultC2Ev @1285
    _ZN16btManifoldResultD0Ev @1286
    _ZN16btManifoldResultD1Ev @1287
    _ZN16btManifoldResultD2Ev @1288
    _ZN16btPointCollector15addContactPointERK9btVector3S2_f @1289
    _ZN16btPointCollector20setShapeIdentifiersAEii @1290
    _ZN16btPointCollector20setShapeIdentifiersBEii @1291
    _ZN16btPointCollectorC1Ev @1292
    _ZN16btPointCollectorD0Ev @1293
    _ZN16btPointCollectorD1Ev @1294
    _ZN16btRaycastVehicle11defaultInitERKNS_15btVehicleTuningE @1295
    _ZN16btRaycastVehicle12getRigidBodyEv @1296
    _ZN16btRaycastVehicle12getWheelInfoEi @1297
    _ZN16btRaycastVehicle12updateActionEP16btCollisionWorldf @1298
    _ZN16btRaycastVehicle13updateVehicleEf @1299
    _ZN16btRaycastVehicle14updateFrictionEf @1300
    _ZN16btRaycastVehicle15btVehicleTuningC1Ev @1301
    _ZN16btRaycastVehicle15resetSuspensionEv @1302
    _ZN16btRaycastVehicle16applyEngineForceEfi @1303
    _ZN16btRaycastVehicle16setSteeringValueEfi @1304
    _ZN16btRaycastVehicle16updateSuspensionEf @1305
    _ZN16btRaycastVehicle19setCoordinateSystemEiii @1306
    _ZN16btRaycastVehicle20updateWheelTransformEib @1307
    _ZN16btRaycastVehicle23updateWheelTransformsWSER11btWheelInfob @1308
    _ZN16btRaycastVehicle7rayCastER11btWheelInfo @1309
    _ZN16btRaycastVehicle8addWheelERK9btVector3S2_S2_ffRKNS_15btVehicleTuningEb @1310
    _ZN16btRaycastVehicle8setBrakeEfi @1311
    _ZN16btRaycastVehicle9debugDrawEP12btIDebugDraw @1312
    _ZN16btRaycastVehicleC1ERKNS_15btVehicleTuningEP11btRigidBodyP18btVehicleRaycaster @1313
    _ZN16btRaycastVehicleC2ERKNS_15btVehicleTuningEP11btRigidBodyP18btVehicleRaycaster @1314
    _ZN16btRaycastVehicleD0Ev @1315
    _ZN16btRaycastVehicleD1Ev @1316
    _ZN16btRaycastVehicleD2Ev @1317
    _ZN16btSoftBodySolver12getTimeScaleEv @1318
    _ZN16btSoftBodySolver29getNumberOfPositionIterationsEv @1319
    _ZN16btSoftBodySolver29getNumberOfVelocityIterationsEv @1320
    _ZN16btSoftBodySolver29setNumberOfPositionIterationsEi @1321
    _ZN16btSoftBodySolver29setNumberOfVelocityIterationsEi @1322
    _ZN16btSoftBodySolverC2Ev @1323
    _ZN16btSoftBodySolverD2Ev @1324
    _ZN16btTriangleBuffer15processTriangleEP9btVector3ii @1325
    _ZN16btTriangleBufferD0Ev @1326
    _ZN16btTriangleBufferD1Ev @1327
    _ZN17CONTACT_KEY_TOKENC1ERKS_ @1328
    _ZN17CONTACT_KEY_TOKENC1Eji @1329
    _ZN17DebugDrawcallback15processTriangleEP9btVector3ii @1330
    _ZN17DebugDrawcallback28internalProcessTriangleIndexEP9btVector3ii @1331
    _ZN17DebugDrawcallbackC1EP12btIDebugDrawRK11btTransformRK9btVector3 @1332
    _ZN17DebugDrawcallbackD0Ev @1333
    _ZN17DebugDrawcallbackD1Ev @1334
    _ZN17GIM_BOX_TREE_NODEC1Ev @1335
    _ZN17GIM_BVH_TREE_NODE12setDataIndexEi @1336
    _ZN17GIM_BVH_TREE_NODE14setEscapeIndexEi @1337
    _ZN17GIM_BVH_TREE_NODEC1ERKS_ @1338
    _ZN17GIM_BVH_TREE_NODEC1Ev @1339
    _ZN17ThreadsafeCounter7getNextEv @1340
    _ZN17ThreadsafeCounterC1Ev @1341
    _ZN17bt32BitAxisSweep3C1ERK9btVector3S2_jP22btOverlappingPairCacheb @1342
    _ZN17bt32BitAxisSweep3C2ERK9btVector3S2_jP22btOverlappingPairCacheb @1343
    _ZN17bt32BitAxisSweep3D0Ev @1344
    _ZN17bt32BitAxisSweep3D1Ev @1345
    _ZN17btActionInterface12getFixedBodyEv @1346
    _ZN17btActionInterfaceC2Ev @1347
    _ZN17btActionInterfaceD2Ev @1348
    _ZN17btBroadphaseProxy10isCompoundEi @1349
    _ZN17btBroadphaseProxy10isConvex2dEi @1350
    _ZN17btBroadphaseProxy10isSoftBodyEi @1351
    _ZN17btBroadphaseProxy12isPolyhedralEi @1352
    _ZN17btBroadphaseProxy8isConvexEi @1353
    _ZN17btBroadphaseProxy9isConcaveEi @1354
    _ZN17btBroadphaseProxyC2ERK9btVector3S2_Pvii @1355
    _ZN17btBroadphaseProxyC2Ev @1356
    _ZN17btBroadphaseProxynaEyPv @1357
    _ZN17btBroadphaseProxynwEyPv @1358
    _ZN17btCollisionObject11setFrictionEf @1359
    _ZN17btCollisionObject12setIslandTagEi @1360
    _ZN17btCollisionObject12setUserIndexEi @1361
    _ZN17btCollisionObject14setCompanionIdEi @1362
    _ZN17btCollisionObject14setHitFractionEf @1363
    _ZN17btCollisionObject14setRestitutionEf @1364
    _ZN17btCollisionObject14setUserPointerEPv @1365
    _ZN17btCollisionObject17getCollisionShapeEv @1366
    _ZN17btCollisionObject17getWorldTransformEv @1367
    _ZN17btCollisionObject17setCollisionFlagsEi @1368
    _ZN17btCollisionObject17setCollisionShapeEP16btCollisionShape @1369
    _ZN17btCollisionObject17setWorldTransformERK11btTransform @1370
    _ZN17btCollisionObject18setRollingFrictionEf @1371
    _ZN17btCollisionObject18setWorldArrayIndexEi @1372
    _ZN17btCollisionObject19getBroadphaseHandleEv @1373
    _ZN17btCollisionObject19setBroadphaseHandleEP17btBroadphaseProxy @1374
    _ZN17btCollisionObject19setDeactivationTimeEf @1375
    _ZN17btCollisionObject19setSpinningFrictionEf @1376
    _ZN17btCollisionObject22setAnisotropicFrictionERK9btVector3i @1377
    _ZN17btCollisionObject23setIgnoreCollisionCheckEPKS_b @1378
    _ZN17btCollisionObject30getInterpolationWorldTransformEv @1379
    _ZN17btCollisionObject30setInterpolationLinearVelocityERK9btVector3 @1380
    _ZN17btCollisionObject30setInterpolationWorldTransformERK11btTransform @1381
    _ZN17btCollisionObject31setInterpolationAngularVelocityERK9btVector3 @1382
    _ZN17btCollisionObjectC1Ev @1383
    _ZN17btCollisionObjectC2Ev @1384
    _ZN17btCollisionObjectD0Ev @1385
    _ZN17btCollisionObjectD1Ev @1386
    _ZN17btCollisionObjectD2Ev @1387
    _ZN17btCollisionObjectdlEPv @1388
    _ZN17btCollisionObjectnwEy @1389
    _ZN17btConvexHullShape15setLocalScalingERK9btVector3 @1390
    _ZN17btConvexHullShape17getUnscaledPointsEv @1391
    _ZN17btConvexHullShape18optimizeConvexHullEv @1392
    _ZN17btConvexHullShape8addPointERK9btVector3b @1393
    _ZN17btConvexHullShapeC1EPKfii @1394
    _ZN17btConvexHullShapeC2EPKfii @1395
    _ZN17btConvexHullShapeD0Ev @1396
    _ZN17btConvexHullShapeD1Ev @1397
    _ZN17btConvexHullShapedlEPv @1398
    _ZN17btConvexHullShapenwEy @1399
    _ZN17btFixedConstraintC1ER11btRigidBodyS1_RK11btTransformS4_ @1400
    _ZN17btFixedConstraintC2ER11btRigidBodyS1_RK11btTransformS4_ @1401
    _ZN17btFixedConstraintD0Ev @1402
    _ZN17btFixedConstraintD1Ev @1403
    _ZN17btFixedConstraintD2Ev @1404
    _ZN17btGjkPairDetector13setMinkowskiAEPK13btConvexShape @1405
    _ZN17btGjkPairDetector13setMinkowskiBEPK13btConvexShape @1406
    _ZN17btGjkPairDetector16getClosestPointsERKN36btDiscreteCollisionDetectorInterface17ClosestPointInputERNS0_6ResultEP12btIDebugDrawb @1407
    _ZN17btGjkPairDetector23setCachedSeperatingAxisERK9btVector3 @1408
    _ZN17btGjkPairDetector26getClosestPointsNonVirtualERKN36btDiscreteCollisionDetectorInterface17ClosestPointInputERNS0_6ResultEP12btIDebugDraw @1409
    _ZN17btGjkPairDetectorC1EPK13btConvexShapeS2_P22btVoronoiSimplexSolverP30btConvexPenetrationDepthSolver @1410
    _ZN17btGjkPairDetectorC1EPK13btConvexShapeS2_iiffP22btVoronoiSimplexSolverP30btConvexPenetrationDepthSolver @1411
    _ZN17btGjkPairDetectorC2EPK13btConvexShapeS2_P22btVoronoiSimplexSolverP30btConvexPenetrationDepthSolver @1412
    _ZN17btGjkPairDetectorC2EPK13btConvexShapeS2_iiffP22btVoronoiSimplexSolverP30btConvexPenetrationDepthSolver @1413
    _ZN17btGjkPairDetectorD0Ev @1414
    _ZN17btGjkPairDetectorD1Ev @1415
    _ZN17btHingeConstraint11enableMotorEb @1416
    _ZN17btHingeConstraint13buildJacobianEv @1417
    _ZN17btHingeConstraint13getHingeAngleERK11btTransformS2_ @1418
    _ZN17btHingeConstraint13getHingeAngleEv @1419
    _ZN17btHingeConstraint13getRigidBodyAEv @1420
    _ZN17btHingeConstraint13getRigidBodyBEv @1421
    _ZN17btHingeConstraint13getSolveLimitEv @1422
    _ZN17btHingeConstraint14setAngularOnlyEb @1423
    _ZN17btHingeConstraint14setMotorTargetERK12btQuaternionf @1424
    _ZN17btHingeConstraint14setMotorTargetEff @1425
    _ZN17btHingeConstraint16getInfo2InternalEPN17btTypedConstraint17btConstraintInfo2ERK11btTransformS5_RK9btVector3S8_ @1426
    _ZN17btHingeConstraint18getInfo1NonVirtualEPN17btTypedConstraint17btConstraintInfo1E @1427
    _ZN17btHingeConstraint18getInfo2NonVirtualEPN17btTypedConstraint17btConstraintInfo2ERK11btTransformS5_RK9btVector3S8_ @1428
    _ZN17btHingeConstraint18setMaxMotorImpulseEf @1429
    _ZN17btHingeConstraint21getEnableAngularMotorEv @1430
    _ZN17btHingeConstraint22setMotorTargetVelocityEf @1431
    _ZN17btHingeConstraint32getInfo2InternalUsingFrameOffsetEPN17btTypedConstraint17btConstraintInfo2ERK11btTransformS5_RK9btVector3S8_ @1432
    _ZN17btHingeConstraint8getInfo1EPN17btTypedConstraint17btConstraintInfo1E @1433
    _ZN17btHingeConstraint8getInfo2EPN17btTypedConstraint17btConstraintInfo2E @1434
    _ZN17btHingeConstraint8setLimitEfffff @1435
    _ZN17btHingeConstraint8setParamEifi @1436
    _ZN17btHingeConstraint9getAFrameEv @1437
    _ZN17btHingeConstraint9getBFrameEv @1438
    _ZN17btHingeConstraint9setFramesERK11btTransformS2_ @1439
    _ZN17btHingeConstraint9testLimitERK11btTransformS2_ @1440
    _ZN17btHingeConstraint9updateRHSEf @1441
    _ZN17btHingeConstraintC1ER11btRigidBodyRK11btTransformb @1442
    _ZN17btHingeConstraintC1ER11btRigidBodyRK9btVector3S4_b @1443
    _ZN17btHingeConstraintC1ER11btRigidBodyS1_RK11btTransformS4_b @1444
    _ZN17btHingeConstraintC1ER11btRigidBodyS1_RK9btVector3S4_S4_S4_b @1445
    _ZN17btHingeConstraintC2ER11btRigidBodyRK11btTransformb @1446
    _ZN17btHingeConstraintC2ER11btRigidBodyRK9btVector3S4_b @1447
    _ZN17btHingeConstraintC2ER11btRigidBodyS1_RK11btTransformS4_b @1448
    _ZN17btHingeConstraintC2ER11btRigidBodyS1_RK9btVector3S4_S4_S4_b @1449
    _ZN17btHingeConstraintD0Ev @1450
    _ZN17btHingeConstraintD1Ev @1451
    _ZN17btHingeConstraintD2Ev @1452
    _ZN17btHingeConstraintdlEPv @1453
    _ZN17btHingeConstraintnwEy @1454
    _ZN17btOverlapCallbackC2Ev @1455
    _ZN17btOverlapCallbackD2Ev @1456
    _ZN17btSoftBodyHelpers10CreateRopeER19btSoftBodyWorldInfoRK9btVector3S4_ii @1457
    _ZN17btSoftBodyHelpers11CalculateUVEiiiii @1458
    _ZN17btSoftBodyHelpers11CreatePatchER19btSoftBodyWorldInfoRK9btVector3S4_S4_S4_iiib @1459
    _ZN17btSoftBodyHelpers12DrawFaceTreeEP10btSoftBodyP12btIDebugDrawii @1460
    _ZN17btSoftBodyHelpers12DrawNodeTreeEP10btSoftBodyP12btIDebugDrawii @1461
    _ZN17btSoftBodyHelpers13CreatePatchUVER19btSoftBodyWorldInfoRK9btVector3S4_S4_S4_iiibPf @1462
    _ZN17btSoftBodyHelpers15CreateEllipsoidER19btSoftBodyWorldInfoRK9btVector3S4_i @1463
    _ZN17btSoftBodyHelpers15DrawClusterTreeEP10btSoftBodyP12btIDebugDrawii @1464
    _ZN17btSoftBodyHelpers17CreateFromTriMeshER19btSoftBodyWorldInfoPKfPKiib @1465
    _ZN17btSoftBodyHelpers19ReoptimizeLinkOrderEP10btSoftBody @1466
    _ZN17btSoftBodyHelpers20CreateFromConvexHullER19btSoftBodyWorldInfoPK9btVector3ib @1467
    _ZN17btSoftBodyHelpers20CreateFromTetGenDataER19btSoftBodyWorldInfoPKcS3_S3_bbb @1468
    _ZN17btSoftBodyHelpers4DrawEP10btSoftBodyP12btIDebugDrawi @1469
    _ZN17btSoftBodyHelpers9DrawFrameEP10btSoftBodyP12btIDebugDraw @1470
    _ZN17btSoftBodyHelpers9DrawInfosEP10btSoftBodyP12btIDebugDrawbbb @1471
    _ZN17btTriangleInfoMap11deSerializeER21btTriangleInfoMapData @1472
    _ZN17btTriangleInfoMapC1Ev @1473
    _ZN17btTriangleInfoMapD0Ev @1474
    _ZN17btTriangleInfoMapD1Ev @1475
    _ZN17btTriangleShapeEx25overlap_test_conservativeERKS_ @1476
    _ZN17btTriangleShapeExC1ERK9btVector3S2_S2_ @1477
    _ZN17btTriangleShapeExC1Ev @1478
    _ZN17btTriangleShapeExD0Ev @1479
    _ZN17btTriangleShapeExD1Ev @1480
    _ZN17btTypedConstraint10setEnabledEb @1481
    _ZN17btTypedConstraint12getFixedBodyEv @1482
    _ZN17btTypedConstraint13buildJacobianEv @1483
    _ZN17btTypedConstraint13getRigidBodyAEv @1484
    _ZN17btTypedConstraint13getRigidBodyBEv @1485
    _ZN17btTypedConstraint14getDbgDrawSizeEv @1486
    _ZN17btTypedConstraint14getMotorFactorEfffff @1487
    _ZN17btTypedConstraint16getJointFeedbackEv @1488
    _ZN17btTypedConstraint21setupSolverConstraintER20btAlignedObjectArrayI18btSolverConstraintEiif @1489
    _ZN17btTypedConstraint23solveConstraintObsoleteER12btSolverBodyS1_f @1490
    _ZN17btTypedConstraint25internalSetAppliedImpulseEf @1491
    _ZN17btTypedConstraintC1E21btTypedConstraintTypeR11btRigidBody @1492
    _ZN17btTypedConstraintC1E21btTypedConstraintTypeR11btRigidBodyS2_ @1493
    _ZN17btTypedConstraintC2E21btTypedConstraintTypeR11btRigidBody @1494
    _ZN17btTypedConstraintC2E21btTypedConstraintTypeR11btRigidBodyS2_ @1495
    _ZN17btTypedConstraintD2Ev @1496
    _ZN17btTypedConstraintdlEPv @1497
    _ZN17gim_contact_array14merge_contactsERKS_b @1498
    _ZN17gim_contact_array21merge_contacts_uniqueERKS_ @1499
    _ZN18GIM_BVH_DATA_ARRAYC1Ev @1500
    _ZN18GIM_BVH_DATA_ARRAYD1Ev @1501
    _ZN18GIM_ShapeRetriever13getChildShapeEi @1502
    _ZN18GIM_ShapeRetriever19ChildShapeRetriever13getChildShapeEi @1503
    _ZN18GIM_ShapeRetriever19ChildShapeRetrieverC1Ev @1504
    _ZN18GIM_ShapeRetriever19ChildShapeRetrieverC2Ev @1505
    _ZN18GIM_ShapeRetriever19ChildShapeRetrieverD0Ev @1506
    _ZN18GIM_ShapeRetriever19ChildShapeRetrieverD1Ev @1507
    _ZN18GIM_ShapeRetriever19ChildShapeRetrieverD2Ev @1508
    _ZN18GIM_ShapeRetriever19TetraShapeRetriever13getChildShapeEi @1509
    _ZN18GIM_ShapeRetriever19TetraShapeRetrieverC1Ev @1510
    _ZN18GIM_ShapeRetriever19TetraShapeRetrieverD0Ev @1511
    _ZN18GIM_ShapeRetriever19TetraShapeRetrieverD1Ev @1512
    _ZN18GIM_ShapeRetriever22TriangleShapeRetriever13getChildShapeEi @1513
    _ZN18GIM_ShapeRetriever22TriangleShapeRetrieverC1Ev @1514
    _ZN18GIM_ShapeRetriever22TriangleShapeRetrieverD0Ev @1515
    _ZN18GIM_ShapeRetriever22TriangleShapeRetrieverD1Ev @1516
    _ZN18GIM_ShapeRetrieverC1EPK23btGImpactShapeInterface @1517
    _ZN18GIM_ShapeRetrieverD1Ev @1518
    _ZN18btAlignedAllocatorI10btTriIndexLj16EE10deallocateEPS0_ @1519
    _ZN18btAlignedAllocatorI10btTriIndexLj16EE8allocateEiPPKS0_ @1520
    _ZN18btAlignedAllocatorI10btTriIndexLj16EEC1Ev @1521
    _ZN18btAlignedAllocatorI10btTriangleLj16EE10deallocateEPS0_ @1522
    _ZN18btAlignedAllocatorI10btTriangleLj16EE8allocateEiPPKS0_ @1523
    _ZN18btAlignedAllocatorI11GIM_CONTACTLj16EE10deallocateEPS0_ @1524
    _ZN18btAlignedAllocatorI11GIM_CONTACTLj16EE8allocateEiPPKS0_ @1525
    _ZN18btAlignedAllocatorI11btJointNodeLj16EE10deallocateEPS0_ @1526
    _ZN18btAlignedAllocatorI11btJointNodeLj16EE8allocateEiPPKS0_ @1527
    _ZN18btAlignedAllocatorI11btJointNodeLj16EEC1Ev @1528
    _ZN18btAlignedAllocatorI11btMatrix3x3Lj16EE10deallocateEPS0_ @1529
    _ZN18btAlignedAllocatorI11btMatrix3x3Lj16EE8allocateEiPPKS0_ @1530
    _ZN18btAlignedAllocatorI11btMatrix3x3Lj16EEC1Ev @1531
    _ZN18btAlignedAllocatorI11btTransformLj16EE10deallocateEPS0_ @1532
    _ZN18btAlignedAllocatorI11btWheelInfoLj16EE10deallocateEPS0_ @1533
    _ZN18btAlignedAllocatorI11btWheelInfoLj16EE8allocateEiPPKS0_ @1534
    _ZN18btAlignedAllocatorI11btWheelInfoLj16EEC1Ev @1535
    _ZN18btAlignedAllocatorI12GIM_BVH_DATALj16EE10deallocateEPS0_ @1536
    _ZN18btAlignedAllocatorI12GIM_BVH_DATALj16EE8allocateEiPPKS0_ @1537
    _ZN18btAlignedAllocatorI12GIM_BVH_DATALj16EEC1Ev @1538
    _ZN18btAlignedAllocatorI12btHashStringLj16EE10deallocateEPS0_ @1539
    _ZN18btAlignedAllocatorI12btHashStringLj16EE8allocateEiPPKS0_ @1540
    _ZN18btAlignedAllocatorI12btHashStringLj16EEC1Ev @1541
    _ZN18btAlignedAllocatorI12btQuaternionLj16EE10deallocateEPS0_ @1542
    _ZN18btAlignedAllocatorI12btQuaternionLj16EE8allocateEiPPKS0_ @1543
    _ZN18btAlignedAllocatorI12btQuaternionLj16EEC1Ev @1544
    _ZN18btAlignedAllocatorI12btSimplePairLj16EE10deallocateEPS0_ @1545
    _ZN18btAlignedAllocatorI12btSimplePairLj16EE8allocateEiPPKS0_ @1546
    _ZN18btAlignedAllocatorI12btSimplePairLj16EEC1Ev @1547
    _ZN18btAlignedAllocatorI12btSolverBodyLj16EE10deallocateEPS0_ @1548
    _ZN18btAlignedAllocatorI12btSolverBodyLj16EE8allocateEiPPKS0_ @1549
    _ZN18btAlignedAllocatorI12btSolverBodyLj16EEC1Ev @1550
    _ZN18btAlignedAllocatorI13GrahamVector3Lj16EE10deallocateEPS0_ @1551
    _ZN18btAlignedAllocatorI13GrahamVector3Lj16EE8allocateEiPPKS0_ @1552
    _ZN18btAlignedAllocatorI13GrahamVector3Lj16EEC1Ev @1553
    _ZN18btAlignedAllocatorI13btIndexedMeshLj16EE10deallocateEPS0_ @1554
    _ZN18btAlignedAllocatorI13btIndexedMeshLj16EE8allocateEiPPKS0_ @1555
    _ZN18btAlignedAllocatorI13btIndexedMeshLj16EEC1Ev @1556
    _ZN18btAlignedAllocatorI14btInternalEdgeLj16EE10deallocateEPS0_ @1557
    _ZN18btAlignedAllocatorI14btInternalEdgeLj16EE8allocateEiPPKS0_ @1558
    _ZN18btAlignedAllocatorI14btInternalEdgeLj16EEC1Ev @1559
    _ZN18btAlignedAllocatorI14btTriangleInfoLj16EE10deallocateEPS0_ @1560
    _ZN18btAlignedAllocatorI14btTriangleInfoLj16EE8allocateEiPPKS0_ @1561
    _ZN18btAlignedAllocatorI14btTriangleInfoLj16EEC1Ev @1562
    _ZN18btAlignedAllocatorI15btMultibodyLinkLj16EE10deallocateEPS0_ @1563
    _ZN18btAlignedAllocatorI15btMultibodyLinkLj16EE8allocateEiPPKS0_ @1564
    _ZN18btAlignedAllocatorI15btMultibodyLinkLj16EEC1Ev @1565
    _ZN18btAlignedAllocatorI16btBroadphasePairLj16EE10deallocateEPS0_ @1566
    _ZN18btAlignedAllocatorI16btBroadphasePairLj16EE8allocateEiPPKS0_ @1567
    _ZN18btAlignedAllocatorI16btBroadphasePairLj16EEC1Ev @1568
    _ZN18btAlignedAllocatorI16btBvhSubtreeInfoLj16EE10deallocateEPS0_ @1569
    _ZN18btAlignedAllocatorI16btBvhSubtreeInfoLj16EE8allocateEiPPKS0_ @1570
    _ZN18btAlignedAllocatorI16btBvhSubtreeInfoLj16EEC1Ev @1571
    _ZN18btAlignedAllocatorI17CONTACT_KEY_TOKENLj16EE10deallocateEPS0_ @1572
    _ZN18btAlignedAllocatorI17CONTACT_KEY_TOKENLj16EE8allocateEiPPKS0_ @1573
    _ZN18btAlignedAllocatorI17CONTACT_KEY_TOKENLj16EEC1Ev @1574
    _ZN18btAlignedAllocatorI17GIM_BVH_TREE_NODELj16EE10deallocateEPS0_ @1575
    _ZN18btAlignedAllocatorI17GIM_BVH_TREE_NODELj16EE8allocateEiPPKS0_ @1576
    _ZN18btAlignedAllocatorI18btOptimizedBvhNodeLj16EE10deallocateEPS0_ @1577
    _ZN18btAlignedAllocatorI18btOptimizedBvhNodeLj16EE8allocateEiPPKS0_ @1578
    _ZN18btAlignedAllocatorI18btOptimizedBvhNodeLj16EEC1Ev @1579
    _ZN18btAlignedAllocatorI18btQuantizedBvhNodeLj16EE10deallocateEPS0_ @1580
    _ZN18btAlignedAllocatorI18btQuantizedBvhNodeLj16EE8allocateEiPPKS0_ @1581
    _ZN18btAlignedAllocatorI18btQuantizedBvhNodeLj16EEC1Ev @1582
    _ZN18btAlignedAllocatorI18btSolverConstraintLj16EE10deallocateEPS0_ @1583
    _ZN18btAlignedAllocatorI18btSolverConstraintLj16EE8allocateEiPPKS0_ @1584
    _ZN18btAlignedAllocatorI18btSolverConstraintLj16EEC1Ev @1585
    _ZN18btAlignedAllocatorI20btAlignedObjectArrayIPK10btDbvtNodeELj16EE10deallocateEPS4_ @1586
    _ZN18btAlignedAllocatorI20btAlignedObjectArrayIPK10btDbvtNodeELj16EE8allocateEiPPKS4_ @1587
    _ZN18btAlignedAllocatorI20btAlignedObjectArrayIPK10btDbvtNodeELj16EEC1Ev @1588
    _ZN18btAlignedAllocatorI20btAlignedObjectArrayIiELj16EE10deallocateEPS1_ @1589
    _ZN18btAlignedAllocatorI20btAlignedObjectArrayIiELj16EE8allocateEiPPKS1_ @1590
    _ZN18btAlignedAllocatorI20btAlignedObjectArrayIiELj16EEC1Ev @1591
    _ZN18btAlignedAllocatorI20btCompoundShapeChildLj16EE10deallocateEPS0_ @1592
    _ZN18btAlignedAllocatorI20btCompoundShapeChildLj16EE8allocateEiPPKS0_ @1593
    _ZN18btAlignedAllocatorI20btCompoundShapeChildLj16EEC1Ev @1594
    _ZN18btAlignedAllocatorI20btInternalVertexPairLj16EE10deallocateEPS0_ @1595
    _ZN18btAlignedAllocatorI20btInternalVertexPairLj16EE8allocateEiPPKS0_ @1596
    _ZN18btAlignedAllocatorI20btInternalVertexPairLj16EEC1Ev @1597
    _ZN18btAlignedAllocatorI20btMaterialPropertiesLj16EE10deallocateEPS0_ @1598
    _ZN18btAlignedAllocatorI20btMaterialPropertiesLj16EE8allocateEiPPKS0_ @1599
    _ZN18btAlignedAllocatorI20btMaterialPropertiesLj16EEC1Ev @1600
    _ZN18btAlignedAllocatorI21BT_QUANTIZED_BVH_NODELj16EE10deallocateEPS0_ @1601
    _ZN18btAlignedAllocatorI21BT_QUANTIZED_BVH_NODELj16EE8allocateEiPPKS0_ @1602
    _ZN18btAlignedAllocatorI21BT_QUANTIZED_BVH_NODELj16EEC1Ev @1603
    _ZN18btAlignedAllocatorI27btMultiBodySolverConstraintLj16EE10deallocateEPS0_ @1604
    _ZN18btAlignedAllocatorI27btMultiBodySolverConstraintLj16EE8allocateEiPPKS0_ @1605
    _ZN18btAlignedAllocatorI6btFaceLj16EE10deallocateEPS0_ @1606
    _ZN18btAlignedAllocatorI6btFaceLj16EE8allocateEiPPKS0_ @1607
    _ZN18btAlignedAllocatorI6btFaceLj16EEC1Ev @1608
    _ZN18btAlignedAllocatorI7btPlaneLj16EE10deallocateEPS0_ @1609
    _ZN18btAlignedAllocatorI7btPlaneLj16EE8allocateEiPPKS0_ @1610
    _ZN18btAlignedAllocatorI7btPlaneLj16EEC1Ev @1611
    _ZN18btAlignedAllocatorI8GIM_PAIRLj16EE10deallocateEPS0_ @1612
    _ZN18btAlignedAllocatorI8GIM_PAIRLj16EE8allocateEiPPKS0_ @1613
    _ZN18btAlignedAllocatorI8GIM_PAIRLj16EEC1Ev @1614
    _ZN18btAlignedAllocatorI9NodeLinksLj16EE10deallocateEPS0_ @1615
    _ZN18btAlignedAllocatorI9NodeLinksLj16EE8allocateEiPPKS0_ @1616
    _ZN18btAlignedAllocatorI9NodeLinksLj16EEC1Ev @1617
    _ZN18btAlignedAllocatorI9btElementLj16EE10deallocateEPS0_ @1618
    _ZN18btAlignedAllocatorI9btElementLj16EE8allocateEiPPKS0_ @1619
    _ZN18btAlignedAllocatorI9btElementLj16EEC1Ev @1620
    _ZN18btAlignedAllocatorI9btHashIntLj16EE10deallocateEPS0_ @1621
    _ZN18btAlignedAllocatorI9btHashIntLj16EE8allocateEiPPKS0_ @1622
    _ZN18btAlignedAllocatorI9btHashIntLj16EEC1Ev @1623
    _ZN18btAlignedAllocatorI9btHashKeyI10btTriIndexELj16EE10deallocateEPS2_ @1624
    _ZN18btAlignedAllocatorI9btHashKeyI10btTriIndexELj16EE8allocateEiPPKS2_ @1625
    _ZN18btAlignedAllocatorI9btHashKeyI10btTriIndexELj16EEC1Ev @1626
    _ZN18btAlignedAllocatorI9btHashPtrLj16EE10deallocateEPS0_ @1627
    _ZN18btAlignedAllocatorI9btHashPtrLj16EE8allocateEiPPKS0_ @1628
    _ZN18btAlignedAllocatorI9btHashPtrLj16EEC1Ev @1629
    _ZN18btAlignedAllocatorI9btVector3Lj16EE10deallocateEPS0_ @1630
    _ZN18btAlignedAllocatorI9btVector3Lj16EE8allocateEiPPKS0_ @1631
    _ZN18btAlignedAllocatorI9btVector3Lj16EEC1Ev @1632
    _ZN18btAlignedAllocatorI9btVectorXIfELj16EE10deallocateEPS1_ @1633
    _ZN18btAlignedAllocatorI9btVectorXIfELj16EE8allocateEiPPKS1_ @1634
    _ZN18btAlignedAllocatorI9btVectorXIfELj16EEC1Ev @1635
    _ZN18btAlignedAllocatorIN10btSoftBody4FaceELj16EE10deallocateEPS1_ @1636
    _ZN18btAlignedAllocatorIN10btSoftBody4FaceELj16EE8allocateEiPPKS1_ @1637
    _ZN18btAlignedAllocatorIN10btSoftBody4FaceELj16EEC1Ev @1638
    _ZN18btAlignedAllocatorIN10btSoftBody4LinkELj16EE10deallocateEPS1_ @1639
    _ZN18btAlignedAllocatorIN10btSoftBody4LinkELj16EE8allocateEiPPKS1_ @1640
    _ZN18btAlignedAllocatorIN10btSoftBody4LinkELj16EEC1Ev @1641
    _ZN18btAlignedAllocatorIN10btSoftBody4NodeELj16EE10deallocateEPS1_ @1642
    _ZN18btAlignedAllocatorIN10btSoftBody4NodeELj16EE8allocateEiPPKS1_ @1643
    _ZN18btAlignedAllocatorIN10btSoftBody4NodeELj16EEC1Ev @1644
    _ZN18btAlignedAllocatorIN10btSoftBody4NoteELj16EE10deallocateEPS1_ @1645
    _ZN18btAlignedAllocatorIN10btSoftBody4NoteELj16EE8allocateEiPPKS1_ @1646
    _ZN18btAlignedAllocatorIN10btSoftBody4NoteELj16EEC1Ev @1647
    _ZN18btAlignedAllocatorIN10btSoftBody5TetraELj16EE10deallocateEPS1_ @1648
    _ZN18btAlignedAllocatorIN10btSoftBody5TetraELj16EE8allocateEiPPKS1_ @1649
    _ZN18btAlignedAllocatorIN10btSoftBody5TetraELj16EEC1Ev @1650
    _ZN18btAlignedAllocatorIN10btSoftBody6AnchorELj16EE10deallocateEPS1_ @1651
    _ZN18btAlignedAllocatorIN10btSoftBody6AnchorELj16EE8allocateEiPPKS1_ @1652
    _ZN18btAlignedAllocatorIN10btSoftBody6AnchorELj16EEC1Ev @1653
    _ZN18btAlignedAllocatorIN10btSoftBody8RContactELj16EE10deallocateEPS1_ @1654
    _ZN18btAlignedAllocatorIN10btSoftBody8RContactELj16EE8allocateEiPPKS1_ @1655
    _ZN18btAlignedAllocatorIN10btSoftBody8RContactELj16EEC1Ev @1656
    _ZN18btAlignedAllocatorIN10btSoftBody8SContactELj16EE10deallocateEPS1_ @1657
    _ZN18btAlignedAllocatorIN10btSoftBody8SContactELj16EE8allocateEiPPKS1_ @1658
    _ZN18btAlignedAllocatorIN10btSoftBody8SContactELj16EEC1Ev @1659
    _ZN18btAlignedAllocatorIN10btSoftBody8ePSolver1_ELj16EE10deallocateEPS2_ @1660
    _ZN18btAlignedAllocatorIN10btSoftBody8ePSolver1_ELj16EE8allocateEiPPKS2_ @1661
    _ZN18btAlignedAllocatorIN10btSoftBody8ePSolver1_ELj16EEC1Ev @1662
    _ZN18btAlignedAllocatorIN10btSoftBody8eVSolver1_ELj16EE10deallocateEPS2_ @1663
    _ZN18btAlignedAllocatorIN10btSoftBody8eVSolver1_ELj16EE8allocateEiPPKS2_ @1664
    _ZN18btAlignedAllocatorIN10btSoftBody8eVSolver1_ELj16EEC1Ev @1665
    _ZN18btAlignedAllocatorIN17btTypedConstraint17btConstraintInfo1ELj16EE10deallocateEPS1_ @1666
    _ZN18btAlignedAllocatorIN17btTypedConstraint17btConstraintInfo1ELj16EE8allocateEiPPKS1_ @1667
    _ZN18btAlignedAllocatorIN17btTypedConstraint17btConstraintInfo1ELj16EEC1Ev @1668
    _ZN18btAlignedAllocatorIN20btConvexHullComputer4EdgeELj16EE10deallocateEPS1_ @1669
    _ZN18btAlignedAllocatorIN20btConvexHullComputer4EdgeELj16EE8allocateEiPPKS1_ @1670
    _ZN18btAlignedAllocatorIN20btConvexHullComputer4EdgeELj16EEC1Ev @1671
    _ZN18btAlignedAllocatorIN20btConvexHullInternal7Point32ELj16EE10deallocateEPS1_ @1672
    _ZN18btAlignedAllocatorIN20btConvexHullInternal7Point32ELj16EE8allocateEiPPKS1_ @1673
    _ZN18btAlignedAllocatorIN20btConvexHullInternal7Point32ELj16EEC1Ev @1674
    _ZN18btAlignedAllocatorIN24btConstraintSolverPoolMt12ThreadSolverELj16EE10deallocateEPS1_ @1675
    _ZN18btAlignedAllocatorIN24btConstraintSolverPoolMt12ThreadSolverELj16EE8allocateEiPPKS1_ @1676
    _ZN18btAlignedAllocatorIN24btConstraintSolverPoolMt12ThreadSolverELj16EEC1Ev @1677
    _ZN18btAlignedAllocatorIN6btDbvt6sStkNNELj16EE10deallocateEPS1_ @1678
    _ZN18btAlignedAllocatorIN6btDbvt6sStkNNELj16EE8allocateEiPPKS1_ @1679
    _ZN18btAlignedAllocatorIN6btDbvt6sStkNNELj16EEC1Ev @1680
    _ZN18btAlignedAllocatorIN6btDbvt7sStkCLNELj16EE10deallocateEPS1_ @1681
    _ZN18btAlignedAllocatorIN6btDbvt7sStkCLNELj16EE8allocateEiPPKS1_ @1682
    _ZN18btAlignedAllocatorIN6btDbvt7sStkCLNELj16EEC1Ev @1683
    _ZN18btAlignedAllocatorIN7ConvexH8HalfEdgeELj16EE10deallocateEPS1_ @1684
    _ZN18btAlignedAllocatorIN7ConvexH8HalfEdgeELj16EE8allocateEiPPKS1_ @1685
    _ZN18btAlignedAllocatorIN7ConvexH8HalfEdgeELj16EEC1Ev @1686
    _ZN18btAlignedAllocatorIP10btDbvtNodeLj16EE10deallocateEPS1_ @1687
    _ZN18btAlignedAllocatorIP10btDbvtNodeLj16EE8allocateEiPPKS1_ @1688
    _ZN18btAlignedAllocatorIP10btDbvtNodeLj16EEC1Ev @1689
    _ZN18btAlignedAllocatorIP10btSoftBodyLj16EE10deallocateEPS1_ @1690
    _ZN18btAlignedAllocatorIP10btSoftBodyLj16EE8allocateEiPPKS1_ @1691
    _ZN18btAlignedAllocatorIP10btSoftBodyLj16EEC1Ev @1692
    _ZN18btAlignedAllocatorIP11btMultiBodyLj16EE10deallocateEPS1_ @1693
    _ZN18btAlignedAllocatorIP11btMultiBodyLj16EE8allocateEiPPKS1_ @1694
    _ZN18btAlignedAllocatorIP11btMultiBodyLj16EEC1Ev @1695
    _ZN18btAlignedAllocatorIP11btRigidBodyLj16EE10deallocateEPS1_ @1696
    _ZN18btAlignedAllocatorIP11btRigidBodyLj16EE8allocateEiPPKS1_ @1697
    _ZN18btAlignedAllocatorIP11btRigidBodyLj16EEC1Ev @1698
    _ZN18btAlignedAllocatorIP14btHullTriangleLj16EE10deallocateEPS1_ @1699
    _ZN18btAlignedAllocatorIP14btHullTriangleLj16EE8allocateEiPPKS1_ @1700
    _ZN18btAlignedAllocatorIP14btHullTriangleLj16EEC1Ev @1701
    _ZN18btAlignedAllocatorIP14btOptimizedBvhLj16EE10deallocateEPS1_ @1702
    _ZN18btAlignedAllocatorIP14btOptimizedBvhLj16EE8allocateEiPPKS1_ @1703
    _ZN18btAlignedAllocatorIP14btOptimizedBvhLj16EEC1Ev @1704
    _ZN18btAlignedAllocatorIP16btCollisionShapeLj16EE10deallocateEPS1_ @1705
    _ZN18btAlignedAllocatorIP16btCollisionShapeLj16EE8allocateEiPPKS1_ @1706
    _ZN18btAlignedAllocatorIP16btCollisionShapeLj16EEC1Ev @1707
    _ZN18btAlignedAllocatorIP17btActionInterfaceLj16EE10deallocateEPS1_ @1708
    _ZN18btAlignedAllocatorIP17btActionInterfaceLj16EE8allocateEiPPKS1_ @1709
    _ZN18btAlignedAllocatorIP17btActionInterfaceLj16EEC1Ev @1710
    _ZN18btAlignedAllocatorIP17btCollisionObjectLj16EE10deallocateEPS1_ @1711
    _ZN18btAlignedAllocatorIP17btCollisionObjectLj16EE8allocateEiPPKS1_ @1712
    _ZN18btAlignedAllocatorIP17btCollisionObjectLj16EEC1Ev @1713
    _ZN18btAlignedAllocatorIP17btTriangleInfoMapLj16EE10deallocateEPS1_ @1714
    _ZN18btAlignedAllocatorIP17btTriangleInfoMapLj16EE8allocateEiPPKS1_ @1715
    _ZN18btAlignedAllocatorIP17btTriangleInfoMapLj16EEC1Ev @1716
    _ZN18btAlignedAllocatorIP17btTypedConstraintLj16EE10deallocateEPS1_ @1717
    _ZN18btAlignedAllocatorIP17btTypedConstraintLj16EE8allocateEiPPKS1_ @1718
    _ZN18btAlignedAllocatorIP17btTypedConstraintLj16EEC1Ev @1719
    _ZN18btAlignedAllocatorIP18btConstraintSolverLj16EE10deallocateEPS1_ @1720
    _ZN18btAlignedAllocatorIP18btConstraintSolverLj16EE8allocateEiPPKS1_ @1721
    _ZN18btAlignedAllocatorIP18btConstraintSolverLj16EEC1Ev @1722
    _ZN18btAlignedAllocatorIP18btSolverConstraintLj16EE10deallocateEPS1_ @1723
    _ZN18btAlignedAllocatorIP18btSolverConstraintLj16EE8allocateEiPPKS1_ @1724
    _ZN18btAlignedAllocatorIP18btSolverConstraintLj16EEC1Ev @1725
    _ZN18btAlignedAllocatorIP18btVector3FloatDataLj16EE10deallocateEPS1_ @1726
    _ZN18btAlignedAllocatorIP18btVector3FloatDataLj16EE8allocateEiPPKS1_ @1727
    _ZN18btAlignedAllocatorIP18btVector3FloatDataLj16EEC1Ev @1728
    _ZN18btAlignedAllocatorIP19btVector3DoubleDataLj16EE10deallocateEPS1_ @1729
    _ZN18btAlignedAllocatorIP19btVector3DoubleDataLj16EE8allocateEiPPKS1_ @1730
    _ZN18btAlignedAllocatorIP19btVector3DoubleDataLj16EEC1Ev @1731
    _ZN18btAlignedAllocatorIP20btCollisionAlgorithmLj16EE10deallocateEPS1_ @1732
    _ZN18btAlignedAllocatorIP20btCollisionAlgorithmLj16EE8allocateEiPPKS1_ @1733
    _ZN18btAlignedAllocatorIP20btCollisionAlgorithmLj16EEC1Ev @1734
    _ZN18btAlignedAllocatorIP20btPersistentManifoldLj16EE10deallocateEPS1_ @1735
    _ZN18btAlignedAllocatorIP20btPersistentManifoldLj16EE8allocateEiPPKS1_ @1736
    _ZN18btAlignedAllocatorIP20btPersistentManifoldLj16EEC1Ev @1737
    _ZN18btAlignedAllocatorIP21btMultiBodyConstraintLj16EE10deallocateEPS1_ @1738
    _ZN18btAlignedAllocatorIP21btMultiBodyConstraintLj16EE8allocateEiPPKS1_ @1739
    _ZN18btAlignedAllocatorIP21btMultiBodyConstraintLj16EEC1Ev @1740
    _ZN18btAlignedAllocatorIP22btGImpactMeshShapePartLj16EE10deallocateEPS1_ @1741
    _ZN18btAlignedAllocatorIP26btTriangleIndexVertexArrayLj16EE10deallocateEPS1_ @1742
    _ZN18btAlignedAllocatorIP26btTriangleIndexVertexArrayLj16EE8allocateEiPPKS1_ @1743
    _ZN18btAlignedAllocatorIP26btTriangleIndexVertexArrayLj16EEC1Ev @1744
    _ZN18btAlignedAllocatorIP27btStridingMeshInterfaceDataLj16EE10deallocateEPS1_ @1745
    _ZN18btAlignedAllocatorIP27btStridingMeshInterfaceDataLj16EE8allocateEiPPKS1_ @1746
    _ZN18btAlignedAllocatorIP27btStridingMeshInterfaceDataLj16EEC1Ev @1747
    _ZN18btAlignedAllocatorIPK10btDbvtNodeLj16EE10deallocateEPS2_ @1748
    _ZN18btAlignedAllocatorIPK10btDbvtNodeLj16EE8allocateEiPPKS2_ @1749
    _ZN18btAlignedAllocatorIPK10btDbvtNodeLj16EEC1Ev @1750
    _ZN18btAlignedAllocatorIPK17btCollisionObjectLj16EE10deallocateEPS2_ @1751
    _ZN18btAlignedAllocatorIPK17btCollisionObjectLj16EE8allocateEiPPKS2_ @1752
    _ZN18btAlignedAllocatorIPK17btCollisionObjectLj16EEC1Ev @1753
    _ZN18btAlignedAllocatorIPKcLj16EE10deallocateEPS1_ @1754
    _ZN18btAlignedAllocatorIPKcLj16EE8allocateEiPPKS1_ @1755
    _ZN18btAlignedAllocatorIPKcLj16EEC1Ev @1756
    _ZN18btAlignedAllocatorIPN10btSoftBody4NodeELj16EE10deallocateEPS2_ @1757
    _ZN18btAlignedAllocatorIPN10btSoftBody4NodeELj16EE8allocateEiPPKS2_ @1758
    _ZN18btAlignedAllocatorIPN10btSoftBody4NodeELj16EEC1Ev @1759
    _ZN18btAlignedAllocatorIPN10btSoftBody5JointELj16EE10deallocateEPS2_ @1760
    _ZN18btAlignedAllocatorIPN10btSoftBody5JointELj16EE8allocateEiPPKS2_ @1761
    _ZN18btAlignedAllocatorIPN10btSoftBody5JointELj16EEC1Ev @1762
    _ZN18btAlignedAllocatorIPN10btSoftBody7ClusterELj16EE10deallocateEPS2_ @1763
    _ZN18btAlignedAllocatorIPN10btSoftBody7ClusterELj16EE8allocateEiPPKS2_ @1764
    _ZN18btAlignedAllocatorIPN10btSoftBody7ClusterELj16EEC1Ev @1765
    _ZN18btAlignedAllocatorIPN10btSoftBody8MaterialELj16EE10deallocateEPS2_ @1766
    _ZN18btAlignedAllocatorIPN10btSoftBody8MaterialELj16EE8allocateEiPPKS2_ @1767
    _ZN18btAlignedAllocatorIPN10btSoftBody8MaterialELj16EEC1Ev @1768
    _ZN18btAlignedAllocatorIPN11btSparseSdfILi3EE4CellELj16EE10deallocateEPS3_ @1769
    _ZN18btAlignedAllocatorIPN11btSparseSdfILi3EE4CellELj16EE8allocateEiPPKS3_ @1770
    _ZN18btAlignedAllocatorIPN11btSparseSdfILi3EE4CellELj16EEC1Ev @1771
    _ZN18btAlignedAllocatorIPN20btConvexHullInternal4FaceELj16EE10deallocateEPS2_ @1772
    _ZN18btAlignedAllocatorIPN20btConvexHullInternal4FaceELj16EE8allocateEiPPKS2_ @1773
    _ZN18btAlignedAllocatorIPN20btConvexHullInternal4FaceELj16EEC1Ev @1774
    _ZN18btAlignedAllocatorIPN20btConvexHullInternal6VertexELj16EE10deallocateEPS2_ @1775
    _ZN18btAlignedAllocatorIPN20btConvexHullInternal6VertexELj16EE8allocateEiPPKS2_ @1776
    _ZN18btAlignedAllocatorIPN20btConvexHullInternal6VertexELj16EEC1Ev @1777
    _ZN18btAlignedAllocatorIPN27btSimulationIslandManagerMt6IslandELj16EE10deallocateEPS2_ @1778
    _ZN18btAlignedAllocatorIPN27btSimulationIslandManagerMt6IslandELj16EE8allocateEiPPKS2_ @1779
    _ZN18btAlignedAllocatorIPN27btSimulationIslandManagerMt6IslandELj16EEC1Ev @1780
    _ZN18btAlignedAllocatorIPcLj16EE10deallocateEPS0_ @1781
    _ZN18btAlignedAllocatorIPcLj16EE8allocateEiPPKS0_ @1782
    _ZN18btAlignedAllocatorIPcLj16EEC1Ev @1783
    _ZN18btAlignedAllocatorIPfLj16EE10deallocateEPS0_ @1784
    _ZN18btAlignedAllocatorIPfLj16EE8allocateEiPPKS0_ @1785
    _ZN18btAlignedAllocatorIPhLj16EE10deallocateEPS0_ @1786
    _ZN18btAlignedAllocatorIPhLj16EE8allocateEiPPKS0_ @1787
    _ZN18btAlignedAllocatorIPhLj16EEC1Ev @1788
    _ZN18btAlignedAllocatorIPiLj16EE10deallocateEPS0_ @1789
    _ZN18btAlignedAllocatorIPiLj16EE8allocateEiPPKS0_ @1790
    _ZN18btAlignedAllocatorIPiLj16EEC1Ev @1791
    _ZN18btAlignedAllocatorIPsLj16EE10deallocateEPS0_ @1792
    _ZN18btAlignedAllocatorIPsLj16EE8allocateEiPPKS0_ @1793
    _ZN18btAlignedAllocatorIPsLj16EEC1Ev @1794
    _ZN18btAlignedAllocatorIbLj16EE10deallocateEPb @1795
    _ZN18btAlignedAllocatorIbLj16EE8allocateEiPPKb @1796
    _ZN18btAlignedAllocatorIbLj16EEC1Ev @1797
    _ZN18btAlignedAllocatorIfLj16EE10deallocateEPf @1798
    _ZN18btAlignedAllocatorIfLj16EE8allocateEiPPKf @1799
    _ZN18btAlignedAllocatorIfLj16EEC1Ev @1800
    _ZN18btAlignedAllocatorIiLj16EE10deallocateEPi @1801
    _ZN18btAlignedAllocatorIiLj16EE8allocateEiPPKi @1802
    _ZN18btAlignedAllocatorIiLj16EEC1Ev @1803
    _ZN18btAlignedAllocatorIjLj16EE10deallocateEPj @1804
    _ZN18btAlignedAllocatorIjLj16EE8allocateEiPPKj @1805
    _ZN18btAlignedAllocatorIjLj16EEC1Ev @1806
    _ZN18btAlignedAllocatorItLj16EE10deallocateEPt @1807
    _ZN18btAlignedAllocatorItLj16EE8allocateEiPPKt @1808
    _ZN18btAlignedAllocatorItLj16EEC1Ev @1809
    _ZN18btAngleCompareFuncC1ERK9btVector3 @1810
    _ZN18btConstraintSolver12prepareSolveEii @1811
    _ZN18btConstraintSolver9allSolvedERK19btContactSolverInfoP12btIDebugDraw @1812
    _ZN18btConstraintSolverC2Ev @1813
    _ZN18btConstraintSolverD2Ev @1814
    _ZN18btConvexPolyhedron10initializeEv @1815
    _ZN18btConvexPolyhedronC1Ev @1816
    _ZN18btConvexPolyhedronC2Ev @1817
    _ZN18btConvexPolyhedronD0Ev @1818
    _ZN18btConvexPolyhedronD1Ev @1819
    _ZN18btConvexPolyhedronD2Ev @1820
    _ZN18btConvexPolyhedrondlEPv @1821
    _ZN18btConvexPolyhedrondlEPvS0_ @1822
    _ZN18btConvexPolyhedronnwEyPv @1823
    _ZN18btDbvtTreeCollider7ProcessEPK10btDbvtNode @1824
    _ZN18btDbvtTreeCollider7ProcessEPK10btDbvtNodeS2_ @1825
    _ZN18btDbvtTreeColliderC1EP16btDbvtBroadphase @1826
    _ZN18btDbvtTreeColliderD0Ev @1827
    _ZN18btDbvtTreeColliderD1Ev @1828
    _ZN18btGImpactMeshShape10postUpdateEv @1829
    _ZN18btGImpactMeshShape13calcLocalAABBEv @1830
    _ZN18btGImpactMeshShape13getChildShapeEi @1831
    _ZN18btGImpactMeshShape15setLocalScalingERK9btVector3 @1832
    _ZN18btGImpactMeshShape17setChildTransformEiRK11btTransform @1833
    _ZN18btGImpactMeshShape9setMarginEf @1834
    _ZN18btGImpactMeshShapeD0Ev @1835
    _ZN18btGImpactMeshShapeD1Ev @1836
    _ZN18btHinge2Constraint13setLowerLimitEf @1837
    _ZN18btHinge2Constraint13setUpperLimitEf @1838
    _ZN18btHinge2ConstraintC1ER11btRigidBodyS1_R9btVector3S3_S3_ @1839
    _ZN18btHinge2ConstraintC2ER11btRigidBodyS1_R9btVector3S3_S3_ @1840
    _ZN18btHinge2ConstraintD0Ev @1841
    _ZN18btHinge2ConstraintD1Ev @1842
    _ZN18btHinge2ConstraintdlEPv @1843
    _ZN18btHinge2ConstraintnwEy @1844
    _ZN18btIParallelForBodyC2Ev @1845
    _ZN18btIParallelForBodyD2Ev @1846
    _ZN18btInfMaskConverterC1Ei @1847
    _ZN18btMultiSphereShapeC1EPK9btVector3PKfi @1848
    _ZN18btMultiSphereShapeC2EPK9btVector3PKfi @1849
    _ZN18btMultiSphereShapeD0Ev @1850
    _ZN18btMultiSphereShapeD1Ev @1851
    _ZN18btMultiSphereShapedlEPv @1852
    _ZN18btMultiSphereShapenwEy @1853
    _ZN18btOptimizedBvhNodeC1Ev @1854
    _ZN18btOptimizedBvhNodenwEyPv @1855
    _ZN18btQuantizedBvhNodenwEyPv @1856
    _ZN18btQuantizedBvhTree10build_treeER18GIM_BVH_DATA_ARRAY @1857
    _ZN18btQuantizedBvhTree12setNodeBoundEiRK6btAABB @1858
    _ZN18btQuantizedBvhTree15_build_sub_treeER18GIM_BVH_DATA_ARRAYii @1859
    _ZN18btQuantizedBvhTree17calc_quantizationER18GIM_BVH_DATA_ARRAYf @1860
    _ZN18btQuantizedBvhTree20_calc_splitting_axisER18GIM_BVH_DATA_ARRAYii @1861
    _ZN18btQuantizedBvhTree30_sort_and_calc_splitting_indexER18GIM_BVH_DATA_ARRAYiii @1862
    _ZN18btQuantizedBvhTreeC1Ev @1863
    _ZN18btQuantizedBvhTreeD1Ev @1864
    _ZN18btSimpleBroadphase10freeHandleEP23btSimpleBroadphaseProxy @1865
    _ZN18btSimpleBroadphase10printStatsEv @1866
    _ZN18btSimpleBroadphase11aabbOverlapEP23btSimpleBroadphaseProxyS1_ @1867
    _ZN18btSimpleBroadphase11allocHandleEv @1868
    _ZN18btSimpleBroadphase11createProxyERK9btVector3S2_iPviiP12btDispatcher @1869
    _ZN18btSimpleBroadphase12destroyProxyEP17btBroadphaseProxyP12btDispatcher @1870
    _ZN18btSimpleBroadphase15testAabbOverlapEP17btBroadphaseProxyS1_ @1871
    _ZN18btSimpleBroadphase23getOverlappingPairCacheEv @1872
    _ZN18btSimpleBroadphase23getSimpleProxyFromProxyEP17btBroadphaseProxy @1873
    _ZN18btSimpleBroadphase25calculateOverlappingPairsEP12btDispatcher @1874
    _ZN18btSimpleBroadphase7rayTestERK9btVector3S2_R23btBroadphaseRayCallbackS2_S2_ @1875
    _ZN18btSimpleBroadphase7setAabbEP17btBroadphaseProxyRK9btVector3S4_P12btDispatcher @1876
    _ZN18btSimpleBroadphase8aabbTestERK9btVector3S2_R24btBroadphaseAabbCallback @1877
    _ZN18btSimpleBroadphase8validateEv @1878
    _ZN18btSimpleBroadphase9resetPoolEP12btDispatcher @1879
    _ZN18btSimpleBroadphaseC1EiP22btOverlappingPairCache @1880
    _ZN18btSimpleBroadphaseC2EiP22btOverlappingPairCache @1881
    _ZN18btSimpleBroadphaseD0Ev @1882
    _ZN18btSimpleBroadphaseD1Ev @1883
    _ZN18btSimpleBroadphaseD2Ev @1884
    _ZN18btSliderConstraint10initParamsEv @1885
    _ZN18btSliderConstraint11getAncorInAEv @1886
    _ZN18btSliderConstraint11getAncorInBEv @1887
    _ZN18btSliderConstraint11getAngDepthEv @1888
    _ZN18btSliderConstraint11getLinDepthEv @1889
    _ZN18btSliderConstraint13testAngLimitsEv @1890
    _ZN18btSliderConstraint13testLinLimitsEv @1891
    _ZN18btSliderConstraint16getDampingLimAngEv @1892
    _ZN18btSliderConstraint16getDampingLimLinEv @1893
    _ZN18btSliderConstraint16getLowerAngLimitEv @1894
    _ZN18btSliderConstraint16getLowerLinLimitEv @1895
    _ZN18btSliderConstraint16getSolveAngLimitEv @1896
    _ZN18btSliderConstraint16getSolveLinLimitEv @1897
    _ZN18btSliderConstraint16getUpperAngLimitEv @1898
    _ZN18btSliderConstraint16getUpperLinLimitEv @1899
    _ZN18btSliderConstraint16setDampingDirAngEf @1900
    _ZN18btSliderConstraint16setDampingDirLinEf @1901
    _ZN18btSliderConstraint16setDampingLimLinEf @1902
    _ZN18btSliderConstraint17getSoftnessLimAngEv @1903
    _ZN18btSliderConstraint17getSoftnessLimLinEv @1904
    _ZN18btSliderConstraint17setSoftnessDirAngEf @1905
    _ZN18btSliderConstraint17setSoftnessDirLinEf @1906
    _ZN18btSliderConstraint17setSoftnessLimLinEf @1907
    _ZN18btSliderConstraint18getInfo1NonVirtualEPN17btTypedConstraint17btConstraintInfo1E @1908
    _ZN18btSliderConstraint18getInfo2NonVirtualEPN17btTypedConstraint17btConstraintInfo2ERK11btTransformS5_RK9btVector3S8_ff @1909
    _ZN18btSliderConstraint18getPoweredAngMotorEv @1910
    _ZN18btSliderConstraint18getPoweredLinMotorEv @1911
    _ZN18btSliderConstraint18setDampingOrthoAngEf @1912
    _ZN18btSliderConstraint18setDampingOrthoLinEf @1913
    _ZN18btSliderConstraint18setPoweredAngMotorEb @1914
    _ZN18btSliderConstraint18setPoweredLinMotorEb @1915
    _ZN18btSliderConstraint19calculateTransformsERK11btTransformS2_ @1916
    _ZN18btSliderConstraint19getMaxAngMotorForceEv @1917
    _ZN18btSliderConstraint19getMaxLinMotorForceEv @1918
    _ZN18btSliderConstraint19setMaxAngMotorForceEf @1919
    _ZN18btSliderConstraint19setMaxLinMotorForceEf @1920
    _ZN18btSliderConstraint19setSoftnessOrthoAngEf @1921
    _ZN18btSliderConstraint19setSoftnessOrthoLinEf @1922
    _ZN18btSliderConstraint20setRestitutionDirAngEf @1923
    _ZN18btSliderConstraint20setRestitutionDirLinEf @1924
    _ZN18btSliderConstraint20setRestitutionLimLinEf @1925
    _ZN18btSliderConstraint22setRestitutionOrthoAngEf @1926
    _ZN18btSliderConstraint22setRestitutionOrthoLinEf @1927
    _ZN18btSliderConstraint25getTargetAngMotorVelocityEv @1928
    _ZN18btSliderConstraint25getTargetLinMotorVelocityEv @1929
    _ZN18btSliderConstraint25setTargetAngMotorVelocityEf @1930
    _ZN18btSliderConstraint25setTargetLinMotorVelocityEf @1931
    _ZN18btSliderConstraint27getUseLinearReferenceFrameAEv @1932
    _ZN18btSliderConstraint8getInfo1EPN17btTypedConstraint17btConstraintInfo1E @1933
    _ZN18btSliderConstraint8getInfo2EPN17btTypedConstraint17btConstraintInfo2E @1934
    _ZN18btSliderConstraint8setParamEifi @1935
    _ZN18btSliderConstraintC1ER11btRigidBodyRK11btTransformb @1936
    _ZN18btSliderConstraintC1ER11btRigidBodyS1_RK11btTransformS4_b @1937
    _ZN18btSliderConstraintC2ER11btRigidBodyRK11btTransformb @1938
    _ZN18btSliderConstraintC2ER11btRigidBodyS1_RK11btTransformS4_b @1939
    _ZN18btSliderConstraintD0Ev @1940
    _ZN18btSliderConstraintD1Ev @1941
    _ZN18btSliderConstraintdlEPv @1942
    _ZN18btSliderConstraintnwEy @1943
    _ZN18btSolverConstraintnwEyPv @1944
    _ZN18btStaticPlaneShape15setLocalScalingERK9btVector3 @1945
    _ZN18btStaticPlaneShapeC1ERK9btVector3f @1946
    _ZN18btStaticPlaneShapeC2ERK9btVector3f @1947
    _ZN18btStaticPlaneShapeD0Ev @1948
    _ZN18btStaticPlaneShapeD1Ev @1949
    _ZN18btStaticPlaneShapeD2Ev @1950
    _ZN18btStaticPlaneShapedlEPv @1951
    _ZN18btStaticPlaneShapenwEy @1952
    _ZN18btTriangleCallbackC2Ev @1953
    _ZN18btTriangleCallbackD0Ev @1954
    _ZN18btTriangleCallbackD1Ev @1955
    _ZN18btTriangleCallbackD2Ev @1956
    _ZN18btVehicleRaycaster24btVehicleRaycasterResultC1Ev @1957
    _ZN18btVehicleRaycasterC2Ev @1958
    _ZN18btVehicleRaycasterD2Ev @1959
    _ZN19BroadphaseRayTester7ProcessEPK10btDbvtNode @1960
    _ZN19BroadphaseRayTesterC1ER23btBroadphaseRayCallback @1961
    _ZN19BroadphaseRayTesterD0Ev @1962
    _ZN19BroadphaseRayTesterD1Ev @1963
    _ZN19btConstraintSettingC1Ev @1964
    _ZN19btContactConstraint13buildJacobianEv @1965
    _ZN19btContactConstraint18setContactManifoldEP20btPersistentManifold @1966
    _ZN19btContactConstraint8getInfo1EPN17btTypedConstraint17btConstraintInfo1E @1967
    _ZN19btContactConstraint8getInfo2EPN17btTypedConstraint17btConstraintInfo2E @1968
    _ZN19btContactConstraintC1EP20btPersistentManifoldR11btRigidBodyS3_ @1969
    _ZN19btContactConstraintC2EP20btPersistentManifoldR11btRigidBodyS3_ @1970
    _ZN19btContactConstraintD0Ev @1971
    _ZN19btContactConstraintD1Ev @1972
    _ZN19btContactConstraintD2Ev @1973
    _ZN19btContactSolverInfoC1Ev @1974
    _ZN19btGenericMemoryPool10freeMemoryEPv @1975
    _ZN19btGenericMemoryPool16get_element_dataEy @1976
    _ZN19btGenericMemoryPool17get_pool_capacityEv @1977
    _ZN19btGenericMemoryPool18allocate_from_poolEy @1978
    _ZN19btGenericMemoryPool24allocate_from_free_nodesEy @1979
    _ZN19btGenericMemoryPool8allocateEy @1980
    _ZN19btGenericMemoryPool8end_poolEv @1981
    _ZN19btGenericMemoryPool9init_poolEyy @1982
    _ZN19btGhostPairCallback18addOverlappingPairEP17btBroadphaseProxyS1_ @1983
    _ZN19btGhostPairCallback21removeOverlappingPairEP17btBroadphaseProxyS1_P12btDispatcher @1984
    _ZN19btGhostPairCallback37removeOverlappingPairsContainingProxyEP17btBroadphaseProxyP12btDispatcher @1985
    _ZN19btGhostPairCallbackC1Ev @1986
    _ZN19btGhostPairCallbackD0Ev @1987
    _ZN19btGhostPairCallbackD1Ev @1988
    _ZN19btMinkowskiSumShapeC1EPK13btConvexShapeS2_ @1989
    _ZN19btMinkowskiSumShapeC2EPK13btConvexShapeS2_ @1990
    _ZN19btMinkowskiSumShapeD0Ev @1991
    _ZN19btMinkowskiSumShapeD1Ev @1992
    _ZN19btMinkowskiSumShapedlEPv @1993
    _ZN19btPrimitiveTriangle13buildTriPlaneEv @1994
    _ZN19btPrimitiveTriangle13clip_triangleERS_P9btVector3 @1995
    _ZN19btPrimitiveTriangle14applyTransformERK11btTransform @1996
    _ZN19btPrimitiveTriangle25overlap_test_conservativeERKS_ @1997
    _ZN19btPrimitiveTriangle35find_triangle_collision_clip_methodERS_R20GIM_TRIANGLE_CONTACT @1998
    _ZN19btPrimitiveTriangleC1Ev @1999
    _ZN19btSingleRayCallback7processEPK17btBroadphaseProxy @2000
    _ZN19btSingleRayCallbackC1ERK9btVector3S2_PK16btCollisionWorldRNS3_17RayResultCallbackE @2001
    _ZN19btSingleRayCallbackD0Ev @2002
    _ZN19btSingleRayCallbackD1Ev @2003
    _ZN19btSoftBodyWorldInfoC1Ev @2004
    _ZN19btSoftBodyWorldInfoD1Ev @2005
    _ZN19btTriangleMeshShape15recalcLocalAabbEv @2006
    _ZN19btTriangleMeshShape15setLocalScalingERK9btVector3 @2007
    _ZN19btTriangleMeshShape16getMeshInterfaceEv @2008
    _ZN19btTriangleMeshShapeC1EP23btStridingMeshInterface @2009
    _ZN19btTriangleMeshShapeC2EP23btStridingMeshInterface @2010
    _ZN19btTriangleMeshShapeD0Ev @2011
    _ZN19btTriangleMeshShapeD1Ev @2012
    _ZN19btTriangleMeshShapeD2Ev @2013
    _ZN19btTriangleMeshShapedlEPv @2014
    _ZN19btWheelContactPointC1EP11btRigidBodyS1_RK9btVector3S4_f @2015
    _ZN20BroadphaseAabbTester7ProcessEPK10btDbvtNode @2016
    _ZN20BroadphaseAabbTesterC1ER24btBroadphaseAabbCallback @2017
    _ZN20BroadphaseAabbTesterD0Ev @2018
    _ZN20BroadphaseAabbTesterD1Ev @2019
    _ZN20GIM_TRIANGLE_CONTACT12merge_pointsERK9btVector4fPK9btVector3i @2020
    _ZN20GIM_TRIANGLE_CONTACT9copy_fromERKS_ @2021
    _ZN20GIM_TRIANGLE_CONTACTC1Ev @2022
    _ZN20btAlignedObjectArrayI10btTriIndexE10deallocateEv @2023
    _ZN20btAlignedObjectArrayI10btTriIndexE4initEv @2024
    _ZN20btAlignedObjectArrayI10btTriIndexE5clearEv @2025
    _ZN20btAlignedObjectArrayI10btTriIndexE7destroyEii @2026
    _ZN20btAlignedObjectArrayI10btTriIndexE7reserveEi @2027
    _ZN20btAlignedObjectArrayI10btTriIndexE8allocateEi @2028
    _ZN20btAlignedObjectArrayI10btTriIndexE9allocSizeEi @2029
    _ZN20btAlignedObjectArrayI10btTriIndexE9push_backERKS0_ @2030
    _ZN20btAlignedObjectArrayI10btTriIndexEC1Ev @2031
    _ZN20btAlignedObjectArrayI10btTriIndexED1Ev @2032
    _ZN20btAlignedObjectArrayI10btTriIndexEixEi @2033
    _ZN20btAlignedObjectArrayI10btTriangleE10deallocateEv @2034
    _ZN20btAlignedObjectArrayI10btTriangleE4initEv @2035
    _ZN20btAlignedObjectArrayI10btTriangleE5clearEv @2036
    _ZN20btAlignedObjectArrayI10btTriangleE7destroyEii @2037
    _ZN20btAlignedObjectArrayI10btTriangleE7reserveEi @2038
    _ZN20btAlignedObjectArrayI10btTriangleE8allocateEi @2039
    _ZN20btAlignedObjectArrayI10btTriangleE9allocSizeEi @2040
    _ZN20btAlignedObjectArrayI10btTriangleE9push_backERKS0_ @2041
    _ZN20btAlignedObjectArrayI10btTriangleED1Ev @2042
    _ZN20btAlignedObjectArrayI11GIM_CONTACTE10deallocateEv @2043
    _ZN20btAlignedObjectArrayI11GIM_CONTACTE4initEv @2044
    _ZN20btAlignedObjectArrayI11GIM_CONTACTE5clearEv @2045
    _ZN20btAlignedObjectArrayI11GIM_CONTACTE7destroyEii @2046
    _ZN20btAlignedObjectArrayI11GIM_CONTACTE7reserveEi @2047
    _ZN20btAlignedObjectArrayI11GIM_CONTACTE8allocateEi @2048
    _ZN20btAlignedObjectArrayI11GIM_CONTACTE9allocSizeEi @2049
    _ZN20btAlignedObjectArrayI11GIM_CONTACTE9push_backERKS0_ @2050
    _ZN20btAlignedObjectArrayI11GIM_CONTACTEixEi @2051
    _ZN20btAlignedObjectArrayI11btJointNodeE10deallocateEv @2052
    _ZN20btAlignedObjectArrayI11btJointNodeE4initEv @2053
    _ZN20btAlignedObjectArrayI11btJointNodeE5clearEv @2054
    _ZN20btAlignedObjectArrayI11btJointNodeE6expandERKS0_ @2055
    _ZN20btAlignedObjectArrayI11btJointNodeE7destroyEii @2056
    _ZN20btAlignedObjectArrayI11btJointNodeE7reserveEi @2057
    _ZN20btAlignedObjectArrayI11btJointNodeE8allocateEi @2058
    _ZN20btAlignedObjectArrayI11btJointNodeE9allocSizeEi @2059
    _ZN20btAlignedObjectArrayI11btJointNodeEC1Ev @2060
    _ZN20btAlignedObjectArrayI11btJointNodeED1Ev @2061
    _ZN20btAlignedObjectArrayI11btJointNodeEixEi @2062
    _ZN20btAlignedObjectArrayI11btMatrix3x3E10deallocateEv @2063
    _ZN20btAlignedObjectArrayI11btMatrix3x3E4initEv @2064
    _ZN20btAlignedObjectArrayI11btMatrix3x3E5clearEv @2065
    _ZN20btAlignedObjectArrayI11btMatrix3x3E6resizeEiRKS0_ @2066
    _ZN20btAlignedObjectArrayI11btMatrix3x3E7destroyEii @2067
    _ZN20btAlignedObjectArrayI11btMatrix3x3E7reserveEi @2068
    _ZN20btAlignedObjectArrayI11btMatrix3x3E8allocateEi @2069
    _ZN20btAlignedObjectArrayI11btMatrix3x3EC1Ev @2070
    _ZN20btAlignedObjectArrayI11btMatrix3x3ED1Ev @2071
    _ZN20btAlignedObjectArrayI11btMatrix3x3EixEi @2072
    _ZN20btAlignedObjectArrayI11btTransformE10deallocateEv @2073
    _ZN20btAlignedObjectArrayI11btTransformE4initEv @2074
    _ZN20btAlignedObjectArrayI11btTransformE5clearEv @2075
    _ZN20btAlignedObjectArrayI11btTransformE7destroyEii @2076
    _ZN20btAlignedObjectArrayI11btTransformED1Ev @2077
    _ZN20btAlignedObjectArrayI11btTransformEixEi @2078
    _ZN20btAlignedObjectArrayI11btWheelInfoE10deallocateEv @2079
    _ZN20btAlignedObjectArrayI11btWheelInfoE4initEv @2080
    _ZN20btAlignedObjectArrayI11btWheelInfoE5clearEv @2081
    _ZN20btAlignedObjectArrayI11btWheelInfoE7destroyEii @2082
    _ZN20btAlignedObjectArrayI11btWheelInfoE7reserveEi @2083
    _ZN20btAlignedObjectArrayI11btWheelInfoE8allocateEi @2084
    _ZN20btAlignedObjectArrayI11btWheelInfoE9allocSizeEi @2085
    _ZN20btAlignedObjectArrayI11btWheelInfoE9push_backERKS0_ @2086
    _ZN20btAlignedObjectArrayI11btWheelInfoEC1Ev @2087
    _ZN20btAlignedObjectArrayI11btWheelInfoED1Ev @2088
    _ZN20btAlignedObjectArrayI11btWheelInfoEixEi @2089
    _ZN20btAlignedObjectArrayI12GIM_BVH_DATAE10deallocateEv @2090
    _ZN20btAlignedObjectArrayI12GIM_BVH_DATAE4initEv @2091
    _ZN20btAlignedObjectArrayI12GIM_BVH_DATAE4swapEii @2092
    _ZN20btAlignedObjectArrayI12GIM_BVH_DATAE5clearEv @2093
    _ZN20btAlignedObjectArrayI12GIM_BVH_DATAE6resizeEiRKS0_ @2094
    _ZN20btAlignedObjectArrayI12GIM_BVH_DATAE7destroyEii @2095
    _ZN20btAlignedObjectArrayI12GIM_BVH_DATAE7reserveEi @2096
    _ZN20btAlignedObjectArrayI12GIM_BVH_DATAE8allocateEi @2097
    _ZN20btAlignedObjectArrayI12GIM_BVH_DATAEC2Ev @2098
    _ZN20btAlignedObjectArrayI12GIM_BVH_DATAED2Ev @2099
    _ZN20btAlignedObjectArrayI12GIM_BVH_DATAEixEi @2100
    _ZN20btAlignedObjectArrayI12btHashStringE10deallocateEv @2101
    _ZN20btAlignedObjectArrayI12btHashStringE4initEv @2102
    _ZN20btAlignedObjectArrayI12btHashStringE5clearEv @2103
    _ZN20btAlignedObjectArrayI12btHashStringE7destroyEii @2104
    _ZN20btAlignedObjectArrayI12btHashStringE7reserveEi @2105
    _ZN20btAlignedObjectArrayI12btHashStringE8allocateEi @2106
    _ZN20btAlignedObjectArrayI12btHashStringE9allocSizeEi @2107
    _ZN20btAlignedObjectArrayI12btHashStringE9push_backERKS0_ @2108
    _ZN20btAlignedObjectArrayI12btHashStringEC1Ev @2109
    _ZN20btAlignedObjectArrayI12btHashStringED1Ev @2110
    _ZN20btAlignedObjectArrayI12btHashStringEixEi @2111
    _ZN20btAlignedObjectArrayI12btQuaternionE10deallocateEv @2112
    _ZN20btAlignedObjectArrayI12btQuaternionE4initEv @2113
    _ZN20btAlignedObjectArrayI12btQuaternionE5clearEv @2114
    _ZN20btAlignedObjectArrayI12btQuaternionE6resizeEiRKS0_ @2115
    _ZN20btAlignedObjectArrayI12btQuaternionE7destroyEii @2116
    _ZN20btAlignedObjectArrayI12btQuaternionE7reserveEi @2117
    _ZN20btAlignedObjectArrayI12btQuaternionE8allocateEi @2118
    _ZN20btAlignedObjectArrayI12btQuaternionEC1Ev @2119
    _ZN20btAlignedObjectArrayI12btQuaternionED1Ev @2120
    _ZN20btAlignedObjectArrayI12btQuaternionEixEi @2121
    _ZN20btAlignedObjectArrayI12btSimplePairE10deallocateEv @2122
    _ZN20btAlignedObjectArrayI12btSimplePairE21expandNonInitializingEv @2123
    _ZN20btAlignedObjectArrayI12btSimplePairE4initEv @2124
    _ZN20btAlignedObjectArrayI12btSimplePairE5clearEv @2125
    _ZN20btAlignedObjectArrayI12btSimplePairE7destroyEii @2126
    _ZN20btAlignedObjectArrayI12btSimplePairE7reserveEi @2127
    _ZN20btAlignedObjectArrayI12btSimplePairE8allocateEi @2128
    _ZN20btAlignedObjectArrayI12btSimplePairE8pop_backEv @2129
    _ZN20btAlignedObjectArrayI12btSimplePairE9allocSizeEi @2130
    _ZN20btAlignedObjectArrayI12btSimplePairE9push_backERKS0_ @2131
    _ZN20btAlignedObjectArrayI12btSimplePairEC1Ev @2132
    _ZN20btAlignedObjectArrayI12btSimplePairED1Ev @2133
    _ZN20btAlignedObjectArrayI12btSimplePairEixEi @2134
    _ZN20btAlignedObjectArrayI12btSolverBodyE10deallocateEv @2135
    _ZN20btAlignedObjectArrayI12btSolverBodyE18resizeNoInitializeEi @2136
    _ZN20btAlignedObjectArrayI12btSolverBodyE2atEi @2137
    _ZN20btAlignedObjectArrayI12btSolverBodyE4initEv @2138
    _ZN20btAlignedObjectArrayI12btSolverBodyE5clearEv @2139
    _ZN20btAlignedObjectArrayI12btSolverBodyE6expandERKS0_ @2140
    _ZN20btAlignedObjectArrayI12btSolverBodyE6resizeEiRKS0_ @2141
    _ZN20btAlignedObjectArrayI12btSolverBodyE7destroyEii @2142
    _ZN20btAlignedObjectArrayI12btSolverBodyE7reserveEi @2143
    _ZN20btAlignedObjectArrayI12btSolverBodyE8allocateEi @2144
    _ZN20btAlignedObjectArrayI12btSolverBodyE9allocSizeEi @2145
    _ZN20btAlignedObjectArrayI12btSolverBodyEC1Ev @2146
    _ZN20btAlignedObjectArrayI12btSolverBodyED1Ev @2147
    _ZN20btAlignedObjectArrayI12btSolverBodyEixEi @2148
    _ZN20btAlignedObjectArrayI13GrahamVector3E10deallocateEv @2149
    _ZN20btAlignedObjectArrayI13GrahamVector3E17quickSortInternalI18btAngleCompareFuncEEvRKT_ii @2150
    _ZN20btAlignedObjectArrayI13GrahamVector3E4initEv @2151
    _ZN20btAlignedObjectArrayI13GrahamVector3E4swapEii @2152
    _ZN20btAlignedObjectArrayI13GrahamVector3E5clearEv @2153
    _ZN20btAlignedObjectArrayI13GrahamVector3E7destroyEii @2154
    _ZN20btAlignedObjectArrayI13GrahamVector3E7reserveEi @2155
    _ZN20btAlignedObjectArrayI13GrahamVector3E8allocateEi @2156
    _ZN20btAlignedObjectArrayI13GrahamVector3E8pop_backEv @2157
    _ZN20btAlignedObjectArrayI13GrahamVector3E9allocSizeEi @2158
    _ZN20btAlignedObjectArrayI13GrahamVector3E9push_backERKS0_ @2159
    _ZN20btAlignedObjectArrayI13GrahamVector3EC1Ev @2160
    _ZN20btAlignedObjectArrayI13GrahamVector3ED1Ev @2161
    _ZN20btAlignedObjectArrayI13GrahamVector3EixEi @2162
    _ZN20btAlignedObjectArrayI13btIndexedMeshE10deallocateEv @2163
    _ZN20btAlignedObjectArrayI13btIndexedMeshE4initEv @2164
    _ZN20btAlignedObjectArrayI13btIndexedMeshE5clearEv @2165
    _ZN20btAlignedObjectArrayI13btIndexedMeshE7destroyEii @2166
    _ZN20btAlignedObjectArrayI13btIndexedMeshE7reserveEi @2167
    _ZN20btAlignedObjectArrayI13btIndexedMeshE8allocateEi @2168
    _ZN20btAlignedObjectArrayI13btIndexedMeshE9allocSizeEi @2169
    _ZN20btAlignedObjectArrayI13btIndexedMeshE9push_backERKS0_ @2170
    _ZN20btAlignedObjectArrayI13btIndexedMeshEC1Ev @2171
    _ZN20btAlignedObjectArrayI13btIndexedMeshED1Ev @2172
    _ZN20btAlignedObjectArrayI13btIndexedMeshEixEi @2173
    _ZN20btAlignedObjectArrayI14btInternalEdgeE10deallocateEv @2174
    _ZN20btAlignedObjectArrayI14btInternalEdgeE4initEv @2175
    _ZN20btAlignedObjectArrayI14btInternalEdgeE5clearEv @2176
    _ZN20btAlignedObjectArrayI14btInternalEdgeE7destroyEii @2177
    _ZN20btAlignedObjectArrayI14btInternalEdgeE7reserveEi @2178
    _ZN20btAlignedObjectArrayI14btInternalEdgeE8allocateEi @2179
    _ZN20btAlignedObjectArrayI14btInternalEdgeE9allocSizeEi @2180
    _ZN20btAlignedObjectArrayI14btInternalEdgeE9push_backERKS0_ @2181
    _ZN20btAlignedObjectArrayI14btInternalEdgeEC1Ev @2182
    _ZN20btAlignedObjectArrayI14btInternalEdgeED1Ev @2183
    _ZN20btAlignedObjectArrayI14btInternalEdgeEixEi @2184
    _ZN20btAlignedObjectArrayI14btTriangleInfoE10deallocateEv @2185
    _ZN20btAlignedObjectArrayI14btTriangleInfoE4initEv @2186
    _ZN20btAlignedObjectArrayI14btTriangleInfoE5clearEv @2187
    _ZN20btAlignedObjectArrayI14btTriangleInfoE6resizeEiRKS0_ @2188
    _ZN20btAlignedObjectArrayI14btTriangleInfoE7destroyEii @2189
    _ZN20btAlignedObjectArrayI14btTriangleInfoE7reserveEi @2190
    _ZN20btAlignedObjectArrayI14btTriangleInfoE8allocateEi @2191
    _ZN20btAlignedObjectArrayI14btTriangleInfoE9allocSizeEi @2192
    _ZN20btAlignedObjectArrayI14btTriangleInfoE9push_backERKS0_ @2193
    _ZN20btAlignedObjectArrayI14btTriangleInfoEC1Ev @2194
    _ZN20btAlignedObjectArrayI14btTriangleInfoED1Ev @2195
    _ZN20btAlignedObjectArrayI14btTriangleInfoEixEi @2196
    _ZN20btAlignedObjectArrayI15btMultibodyLinkE10deallocateEv @2197
    _ZN20btAlignedObjectArrayI15btMultibodyLinkE4initEv @2198
    _ZN20btAlignedObjectArrayI15btMultibodyLinkE5clearEv @2199
    _ZN20btAlignedObjectArrayI15btMultibodyLinkE6resizeEiRKS0_ @2200
    _ZN20btAlignedObjectArrayI15btMultibodyLinkE7destroyEii @2201
    _ZN20btAlignedObjectArrayI15btMultibodyLinkE7reserveEi @2202
    _ZN20btAlignedObjectArrayI15btMultibodyLinkE8allocateEi @2203
    _ZN20btAlignedObjectArrayI15btMultibodyLinkEC1Ev @2204
    _ZN20btAlignedObjectArrayI15btMultibodyLinkED1Ev @2205
    _ZN20btAlignedObjectArrayI15btMultibodyLinkEixEi @2206
    _ZN20btAlignedObjectArrayI16btBroadphasePairE10deallocateEv @2207
    _ZN20btAlignedObjectArrayI16btBroadphasePairE17quickSortInternalI29btBroadphasePairSortPredicateEEvRKT_ii @2208
    _ZN20btAlignedObjectArrayI16btBroadphasePairE21expandNonInitializingEv @2209
    _ZN20btAlignedObjectArrayI16btBroadphasePairE4initEv @2210
    _ZN20btAlignedObjectArrayI16btBroadphasePairE4swapEii @2211
    _ZN20btAlignedObjectArrayI16btBroadphasePairE5clearEv @2212
    _ZN20btAlignedObjectArrayI16btBroadphasePairE6resizeEiRKS0_ @2213
    _ZN20btAlignedObjectArrayI16btBroadphasePairE7destroyEii @2214
    _ZN20btAlignedObjectArrayI16btBroadphasePairE7reserveEi @2215
    _ZN20btAlignedObjectArrayI16btBroadphasePairE8allocateEi @2216
    _ZN20btAlignedObjectArrayI16btBroadphasePairE8pop_backEv @2217
    _ZN20btAlignedObjectArrayI16btBroadphasePairE9allocSizeEi @2218
    _ZN20btAlignedObjectArrayI16btBroadphasePairE9push_backERKS0_ @2219
    _ZN20btAlignedObjectArrayI16btBroadphasePairE9quickSortI29btBroadphasePairSortPredicateEEvRKT_ @2220
    _ZN20btAlignedObjectArrayI16btBroadphasePairEC1Ev @2221
    _ZN20btAlignedObjectArrayI16btBroadphasePairED1Ev @2222
    _ZN20btAlignedObjectArrayI16btBroadphasePairEixEi @2223
    _ZN20btAlignedObjectArrayI16btBvhSubtreeInfoE10deallocateEv @2224
    _ZN20btAlignedObjectArrayI16btBvhSubtreeInfoE20initializeFromBufferEPvii @2225
    _ZN20btAlignedObjectArrayI16btBvhSubtreeInfoE4initEv @2226
    _ZN20btAlignedObjectArrayI16btBvhSubtreeInfoE5clearEv @2227
    _ZN20btAlignedObjectArrayI16btBvhSubtreeInfoE6expandERKS0_ @2228
    _ZN20btAlignedObjectArrayI16btBvhSubtreeInfoE6resizeEiRKS0_ @2229
    _ZN20btAlignedObjectArrayI16btBvhSubtreeInfoE7destroyEii @2230
    _ZN20btAlignedObjectArrayI16btBvhSubtreeInfoE7reserveEi @2231
    _ZN20btAlignedObjectArrayI16btBvhSubtreeInfoE8allocateEi @2232
    _ZN20btAlignedObjectArrayI16btBvhSubtreeInfoE9allocSizeEi @2233
    _ZN20btAlignedObjectArrayI16btBvhSubtreeInfoEC1Ev @2234
    _ZN20btAlignedObjectArrayI16btBvhSubtreeInfoED1Ev @2235
    _ZN20btAlignedObjectArrayI16btBvhSubtreeInfoEixEi @2236
    _ZN20btAlignedObjectArrayI17CONTACT_KEY_TOKENE10deallocateEv @2237
    _ZN20btAlignedObjectArrayI17CONTACT_KEY_TOKENE17quickSortInternalI22CONTACT_KEY_TOKEN_COMPEEvRKT_ii @2238
    _ZN20btAlignedObjectArrayI17CONTACT_KEY_TOKENE4initEv @2239
    _ZN20btAlignedObjectArrayI17CONTACT_KEY_TOKENE4swapEii @2240
    _ZN20btAlignedObjectArrayI17CONTACT_KEY_TOKENE5clearEv @2241
    _ZN20btAlignedObjectArrayI17CONTACT_KEY_TOKENE7destroyEii @2242
    _ZN20btAlignedObjectArrayI17CONTACT_KEY_TOKENE7reserveEi @2243
    _ZN20btAlignedObjectArrayI17CONTACT_KEY_TOKENE8allocateEi @2244
    _ZN20btAlignedObjectArrayI17CONTACT_KEY_TOKENE9allocSizeEi @2245
    _ZN20btAlignedObjectArrayI17CONTACT_KEY_TOKENE9push_backERKS0_ @2246
    _ZN20btAlignedObjectArrayI17CONTACT_KEY_TOKENE9quickSortI22CONTACT_KEY_TOKEN_COMPEEvRKT_ @2247
    _ZN20btAlignedObjectArrayI17CONTACT_KEY_TOKENEC1Ev @2248
    _ZN20btAlignedObjectArrayI17CONTACT_KEY_TOKENED1Ev @2249
    _ZN20btAlignedObjectArrayI17CONTACT_KEY_TOKENEixEi @2250
    _ZN20btAlignedObjectArrayI17GIM_BVH_TREE_NODEE10deallocateEv @2251
    _ZN20btAlignedObjectArrayI17GIM_BVH_TREE_NODEE6resizeEiRKS0_ @2252
    _ZN20btAlignedObjectArrayI17GIM_BVH_TREE_NODEE7destroyEii @2253
    _ZN20btAlignedObjectArrayI17GIM_BVH_TREE_NODEE7reserveEi @2254
    _ZN20btAlignedObjectArrayI17GIM_BVH_TREE_NODEE8allocateEi @2255
    _ZN20btAlignedObjectArrayI17GIM_BVH_TREE_NODEEixEi @2256
    _ZN20btAlignedObjectArrayI18btOptimizedBvhNodeE10deallocateEv @2257
    _ZN20btAlignedObjectArrayI18btOptimizedBvhNodeE20initializeFromBufferEPvii @2258
    _ZN20btAlignedObjectArrayI18btOptimizedBvhNodeE4initEv @2259
    _ZN20btAlignedObjectArrayI18btOptimizedBvhNodeE5clearEv @2260
    _ZN20btAlignedObjectArrayI18btOptimizedBvhNodeE6resizeEiRKS0_ @2261
    _ZN20btAlignedObjectArrayI18btOptimizedBvhNodeE7destroyEii @2262
    _ZN20btAlignedObjectArrayI18btOptimizedBvhNodeE7reserveEi @2263
    _ZN20btAlignedObjectArrayI18btOptimizedBvhNodeE8allocateEi @2264
    _ZN20btAlignedObjectArrayI18btOptimizedBvhNodeE9allocSizeEi @2265
    _ZN20btAlignedObjectArrayI18btOptimizedBvhNodeE9push_backERKS0_ @2266
    _ZN20btAlignedObjectArrayI18btOptimizedBvhNodeEC1Ev @2267
    _ZN20btAlignedObjectArrayI18btOptimizedBvhNodeED1Ev @2268
    _ZN20btAlignedObjectArrayI18btOptimizedBvhNodeEixEi @2269
    _ZN20btAlignedObjectArrayI18btQuantizedBvhNodeE10deallocateEv @2270
    _ZN20btAlignedObjectArrayI18btQuantizedBvhNodeE20initializeFromBufferEPvii @2271
    _ZN20btAlignedObjectArrayI18btQuantizedBvhNodeE4initEv @2272
    _ZN20btAlignedObjectArrayI18btQuantizedBvhNodeE5clearEv @2273
    _ZN20btAlignedObjectArrayI18btQuantizedBvhNodeE6resizeEiRKS0_ @2274
    _ZN20btAlignedObjectArrayI18btQuantizedBvhNodeE7destroyEii @2275
    _ZN20btAlignedObjectArrayI18btQuantizedBvhNodeE7reserveEi @2276
    _ZN20btAlignedObjectArrayI18btQuantizedBvhNodeE8allocateEi @2277
    _ZN20btAlignedObjectArrayI18btQuantizedBvhNodeE9allocSizeEi @2278
    _ZN20btAlignedObjectArrayI18btQuantizedBvhNodeE9push_backERKS0_ @2279
    _ZN20btAlignedObjectArrayI18btQuantizedBvhNodeEC1Ev @2280
    _ZN20btAlignedObjectArrayI18btQuantizedBvhNodeED1Ev @2281
    _ZN20btAlignedObjectArrayI18btQuantizedBvhNodeEixEi @2282
    _ZN20btAlignedObjectArrayI18btSolverConstraintE10deallocateEv @2283
    _ZN20btAlignedObjectArrayI18btSolverConstraintE18resizeNoInitializeEi @2284
    _ZN20btAlignedObjectArrayI18btSolverConstraintE21expandNonInitializingEv @2285
    _ZN20btAlignedObjectArrayI18btSolverConstraintE4initEv @2286
    _ZN20btAlignedObjectArrayI18btSolverConstraintE5clearEv @2287
    _ZN20btAlignedObjectArrayI18btSolverConstraintE7destroyEii @2288
    _ZN20btAlignedObjectArrayI18btSolverConstraintE7reserveEi @2289
    _ZN20btAlignedObjectArrayI18btSolverConstraintE8allocateEi @2290
    _ZN20btAlignedObjectArrayI18btSolverConstraintE9allocSizeEi @2291
    _ZN20btAlignedObjectArrayI18btSolverConstraintEC1Ev @2292
    _ZN20btAlignedObjectArrayI18btSolverConstraintED1Ev @2293
    _ZN20btAlignedObjectArrayI18btSolverConstraintEixEi @2294
    _ZN20btAlignedObjectArrayI20btCompoundShapeChildE10deallocateEv @2295
    _ZN20btAlignedObjectArrayI20btCompoundShapeChildE4initEv @2296
    _ZN20btAlignedObjectArrayI20btCompoundShapeChildE4swapEii @2297
    _ZN20btAlignedObjectArrayI20btCompoundShapeChildE5clearEv @2298
    _ZN20btAlignedObjectArrayI20btCompoundShapeChildE7destroyEii @2299
    _ZN20btAlignedObjectArrayI20btCompoundShapeChildE7reserveEi @2300
    _ZN20btAlignedObjectArrayI20btCompoundShapeChildE8allocateEi @2301
    _ZN20btAlignedObjectArrayI20btCompoundShapeChildE8pop_backEv @2302
    _ZN20btAlignedObjectArrayI20btCompoundShapeChildE9allocSizeEi @2303
    _ZN20btAlignedObjectArrayI20btCompoundShapeChildE9push_backERKS0_ @2304
    _ZN20btAlignedObjectArrayI20btCompoundShapeChildEC1Ev @2305
    _ZN20btAlignedObjectArrayI20btCompoundShapeChildED1Ev @2306
    _ZN20btAlignedObjectArrayI20btCompoundShapeChildEixEi @2307
    _ZN20btAlignedObjectArrayI20btInternalVertexPairE10deallocateEv @2308
    _ZN20btAlignedObjectArrayI20btInternalVertexPairE4initEv @2309
    _ZN20btAlignedObjectArrayI20btInternalVertexPairE5clearEv @2310
    _ZN20btAlignedObjectArrayI20btInternalVertexPairE7destroyEii @2311
    _ZN20btAlignedObjectArrayI20btInternalVertexPairE7reserveEi @2312
    _ZN20btAlignedObjectArrayI20btInternalVertexPairE8allocateEi @2313
    _ZN20btAlignedObjectArrayI20btInternalVertexPairE9allocSizeEi @2314
    _ZN20btAlignedObjectArrayI20btInternalVertexPairE9push_backERKS0_ @2315
    _ZN20btAlignedObjectArrayI20btInternalVertexPairEC1Ev @2316
    _ZN20btAlignedObjectArrayI20btInternalVertexPairED1Ev @2317
    _ZN20btAlignedObjectArrayI20btInternalVertexPairEixEi @2318
    _ZN20btAlignedObjectArrayI20btMaterialPropertiesE10deallocateEv @2319
    _ZN20btAlignedObjectArrayI20btMaterialPropertiesE4initEv @2320
    _ZN20btAlignedObjectArrayI20btMaterialPropertiesE5clearEv @2321
    _ZN20btAlignedObjectArrayI20btMaterialPropertiesE7destroyEii @2322
    _ZN20btAlignedObjectArrayI20btMaterialPropertiesE7reserveEi @2323
    _ZN20btAlignedObjectArrayI20btMaterialPropertiesE8allocateEi @2324
    _ZN20btAlignedObjectArrayI20btMaterialPropertiesE9allocSizeEi @2325
    _ZN20btAlignedObjectArrayI20btMaterialPropertiesE9push_backERKS0_ @2326
    _ZN20btAlignedObjectArrayI20btMaterialPropertiesEC1Ev @2327
    _ZN20btAlignedObjectArrayI20btMaterialPropertiesED1Ev @2328
    _ZN20btAlignedObjectArrayI20btMaterialPropertiesEixEi @2329
    _ZN20btAlignedObjectArrayI21BT_QUANTIZED_BVH_NODEE10deallocateEv @2330
    _ZN20btAlignedObjectArrayI21BT_QUANTIZED_BVH_NODEE4initEv @2331
    _ZN20btAlignedObjectArrayI21BT_QUANTIZED_BVH_NODEE5clearEv @2332
    _ZN20btAlignedObjectArrayI21BT_QUANTIZED_BVH_NODEE6resizeEiRKS0_ @2333
    _ZN20btAlignedObjectArrayI21BT_QUANTIZED_BVH_NODEE7destroyEii @2334
    _ZN20btAlignedObjectArrayI21BT_QUANTIZED_BVH_NODEE7reserveEi @2335
    _ZN20btAlignedObjectArrayI21BT_QUANTIZED_BVH_NODEE8allocateEi @2336
    _ZN20btAlignedObjectArrayI21BT_QUANTIZED_BVH_NODEEC2Ev @2337
    _ZN20btAlignedObjectArrayI21BT_QUANTIZED_BVH_NODEED2Ev @2338
    _ZN20btAlignedObjectArrayI21BT_QUANTIZED_BVH_NODEEixEi @2339
    _ZN20btAlignedObjectArrayI27btMultiBodySolverConstraintE10deallocateEv @2340
    _ZN20btAlignedObjectArrayI27btMultiBodySolverConstraintE21expandNonInitializingEv @2341
    _ZN20btAlignedObjectArrayI27btMultiBodySolverConstraintE4initEv @2342
    _ZN20btAlignedObjectArrayI27btMultiBodySolverConstraintE5clearEv @2343
    _ZN20btAlignedObjectArrayI27btMultiBodySolverConstraintE6resizeEiRKS0_ @2344
    _ZN20btAlignedObjectArrayI27btMultiBodySolverConstraintE7destroyEii @2345
    _ZN20btAlignedObjectArrayI27btMultiBodySolverConstraintE7reserveEi @2346
    _ZN20btAlignedObjectArrayI27btMultiBodySolverConstraintE8allocateEi @2347
    _ZN20btAlignedObjectArrayI27btMultiBodySolverConstraintE9allocSizeEi @2348
    _ZN20btAlignedObjectArrayI27btMultiBodySolverConstraintED1Ev @2349
    _ZN20btAlignedObjectArrayI27btMultiBodySolverConstraintEixEi @2350
    _ZN20btAlignedObjectArrayI6btFaceE10deallocateEv @2351
    _ZN20btAlignedObjectArrayI6btFaceE4initEv @2352
    _ZN20btAlignedObjectArrayI6btFaceE5clearEv @2353
    _ZN20btAlignedObjectArrayI6btFaceE6resizeEiRKS0_ @2354
    _ZN20btAlignedObjectArrayI6btFaceE7destroyEii @2355
    _ZN20btAlignedObjectArrayI6btFaceE7reserveEi @2356
    _ZN20btAlignedObjectArrayI6btFaceE8allocateEi @2357
    _ZN20btAlignedObjectArrayI6btFaceE9allocSizeEi @2358
    _ZN20btAlignedObjectArrayI6btFaceE9push_backERKS0_ @2359
    _ZN20btAlignedObjectArrayI6btFaceEC1Ev @2360
    _ZN20btAlignedObjectArrayI6btFaceED1Ev @2361
    _ZN20btAlignedObjectArrayI6btFaceEixEi @2362
    _ZN20btAlignedObjectArrayI7btPlaneE10deallocateEv @2363
    _ZN20btAlignedObjectArrayI7btPlaneE4initEv @2364
    _ZN20btAlignedObjectArrayI7btPlaneE5clearEv @2365
    _ZN20btAlignedObjectArrayI7btPlaneE6resizeEiRKS0_ @2366
    _ZN20btAlignedObjectArrayI7btPlaneE7destroyEii @2367
    _ZN20btAlignedObjectArrayI7btPlaneE7reserveEi @2368
    _ZN20btAlignedObjectArrayI7btPlaneE8allocateEi @2369
    _ZN20btAlignedObjectArrayI7btPlaneEC1Ev @2370
    _ZN20btAlignedObjectArrayI7btPlaneED1Ev @2371
    _ZN20btAlignedObjectArrayI8GIM_PAIRE10deallocateEv @2372
    _ZN20btAlignedObjectArrayI8GIM_PAIRE4initEv @2373
    _ZN20btAlignedObjectArrayI8GIM_PAIRE5clearEv @2374
    _ZN20btAlignedObjectArrayI8GIM_PAIRE7destroyEii @2375
    _ZN20btAlignedObjectArrayI8GIM_PAIRE7reserveEi @2376
    _ZN20btAlignedObjectArrayI8GIM_PAIRE8allocateEi @2377
    _ZN20btAlignedObjectArrayI8GIM_PAIRE9allocSizeEi @2378
    _ZN20btAlignedObjectArrayI8GIM_PAIRE9push_backERKS0_ @2379
    _ZN20btAlignedObjectArrayI8GIM_PAIREC2Ev @2380
    _ZN20btAlignedObjectArrayI8GIM_PAIRED2Ev @2381
    _ZN20btAlignedObjectArrayI8GIM_PAIREixEi @2382
    _ZN20btAlignedObjectArrayI9NodeLinksE10deallocateEv @2383
    _ZN20btAlignedObjectArrayI9NodeLinksE4initEv @2384
    _ZN20btAlignedObjectArrayI9NodeLinksE5clearEv @2385
    _ZN20btAlignedObjectArrayI9NodeLinksE6resizeEiRKS0_ @2386
    _ZN20btAlignedObjectArrayI9NodeLinksE7destroyEii @2387
    _ZN20btAlignedObjectArrayI9NodeLinksE7reserveEi @2388
    _ZN20btAlignedObjectArrayI9NodeLinksE8allocateEi @2389
    _ZN20btAlignedObjectArrayI9NodeLinksEC1Ev @2390
    _ZN20btAlignedObjectArrayI9NodeLinksED1Ev @2391
    _ZN20btAlignedObjectArrayI9NodeLinksEixEi @2392
    _ZN20btAlignedObjectArrayI9btElementE10deallocateEv @2393
    _ZN20btAlignedObjectArrayI9btElementE17quickSortInternalI31btUnionFindElementSortPredicateEEvRKT_ii @2394
    _ZN20btAlignedObjectArrayI9btElementE4initEv @2395
    _ZN20btAlignedObjectArrayI9btElementE4swapEii @2396
    _ZN20btAlignedObjectArrayI9btElementE5clearEv @2397
    _ZN20btAlignedObjectArrayI9btElementE6resizeEiRKS0_ @2398
    _ZN20btAlignedObjectArrayI9btElementE7destroyEii @2399
    _ZN20btAlignedObjectArrayI9btElementE7reserveEi @2400
    _ZN20btAlignedObjectArrayI9btElementE8allocateEi @2401
    _ZN20btAlignedObjectArrayI9btElementE9quickSortI31btUnionFindElementSortPredicateEEvRKT_ @2402
    _ZN20btAlignedObjectArrayI9btElementEC1Ev @2403
    _ZN20btAlignedObjectArrayI9btElementED1Ev @2404
    _ZN20btAlignedObjectArrayI9btElementEixEi @2405
    _ZN20btAlignedObjectArrayI9btHashIntE10deallocateEv @2406
    _ZN20btAlignedObjectArrayI9btHashIntE4initEv @2407
    _ZN20btAlignedObjectArrayI9btHashIntE5clearEv @2408
    _ZN20btAlignedObjectArrayI9btHashIntE6resizeEiRKS0_ @2409
    _ZN20btAlignedObjectArrayI9btHashIntE7destroyEii @2410
    _ZN20btAlignedObjectArrayI9btHashIntE7reserveEi @2411
    _ZN20btAlignedObjectArrayI9btHashIntE8allocateEi @2412
    _ZN20btAlignedObjectArrayI9btHashIntE9allocSizeEi @2413
    _ZN20btAlignedObjectArrayI9btHashIntE9push_backERKS0_ @2414
    _ZN20btAlignedObjectArrayI9btHashIntEC1Ev @2415
    _ZN20btAlignedObjectArrayI9btHashIntED1Ev @2416
    _ZN20btAlignedObjectArrayI9btHashIntEixEi @2417
    _ZN20btAlignedObjectArrayI9btHashKeyI10btTriIndexEE10deallocateEv @2418
    _ZN20btAlignedObjectArrayI9btHashKeyI10btTriIndexEE4initEv @2419
    _ZN20btAlignedObjectArrayI9btHashKeyI10btTriIndexEE5clearEv @2420
    _ZN20btAlignedObjectArrayI9btHashKeyI10btTriIndexEE7destroyEii @2421
    _ZN20btAlignedObjectArrayI9btHashKeyI10btTriIndexEE7reserveEi @2422
    _ZN20btAlignedObjectArrayI9btHashKeyI10btTriIndexEE8allocateEi @2423
    _ZN20btAlignedObjectArrayI9btHashKeyI10btTriIndexEE9allocSizeEi @2424
    _ZN20btAlignedObjectArrayI9btHashKeyI10btTriIndexEE9push_backERKS2_ @2425
    _ZN20btAlignedObjectArrayI9btHashKeyI10btTriIndexEEC1Ev @2426
    _ZN20btAlignedObjectArrayI9btHashKeyI10btTriIndexEED1Ev @2427
    _ZN20btAlignedObjectArrayI9btHashKeyI10btTriIndexEEixEi @2428
    _ZN20btAlignedObjectArrayI9btHashPtrE10deallocateEv @2429
    _ZN20btAlignedObjectArrayI9btHashPtrE4initEv @2430
    _ZN20btAlignedObjectArrayI9btHashPtrE5clearEv @2431
    _ZN20btAlignedObjectArrayI9btHashPtrE7destroyEii @2432
    _ZN20btAlignedObjectArrayI9btHashPtrE7reserveEi @2433
    _ZN20btAlignedObjectArrayI9btHashPtrE8allocateEi @2434
    _ZN20btAlignedObjectArrayI9btHashPtrE9allocSizeEi @2435
    _ZN20btAlignedObjectArrayI9btHashPtrE9push_backERKS0_ @2436
    _ZN20btAlignedObjectArrayI9btHashPtrEC1Ev @2437
    _ZN20btAlignedObjectArrayI9btHashPtrED1Ev @2438
    _ZN20btAlignedObjectArrayI9btHashPtrEixEi @2439
    _ZN20btAlignedObjectArrayI9btVector3E10deallocateEv @2440
    _ZN20btAlignedObjectArrayI9btVector3E2atEi @2441
    _ZN20btAlignedObjectArrayI9btVector3E4initEv @2442
    _ZN20btAlignedObjectArrayI9btVector3E5clearEv @2443
    _ZN20btAlignedObjectArrayI9btVector3E6expandERKS0_ @2444
    _ZN20btAlignedObjectArrayI9btVector3E6resizeEiRKS0_ @2445
    _ZN20btAlignedObjectArrayI9btVector3E7destroyEii @2446
    _ZN20btAlignedObjectArrayI9btVector3E7reserveEi @2447
    _ZN20btAlignedObjectArrayI9btVector3E8allocateEi @2448
    _ZN20btAlignedObjectArrayI9btVector3E9allocSizeEi @2449
    _ZN20btAlignedObjectArrayI9btVector3E9push_backERKS0_ @2450
    _ZN20btAlignedObjectArrayI9btVector3EC1Ev @2451
    _ZN20btAlignedObjectArrayI9btVector3ED1Ev @2452
    _ZN20btAlignedObjectArrayI9btVector3EixEi @2453
    _ZN20btAlignedObjectArrayI9btVectorXIfEE10deallocateEv @2454
    _ZN20btAlignedObjectArrayI9btVectorXIfEE4initEv @2455
    _ZN20btAlignedObjectArrayI9btVectorXIfEE5clearEv @2456
    _ZN20btAlignedObjectArrayI9btVectorXIfEE7destroyEii @2457
    _ZN20btAlignedObjectArrayI9btVectorXIfEE7reserveEi @2458
    _ZN20btAlignedObjectArrayI9btVectorXIfEE8allocateEi @2459
    _ZN20btAlignedObjectArrayI9btVectorXIfEE9allocSizeEi @2460
    _ZN20btAlignedObjectArrayI9btVectorXIfEE9push_backERKS1_ @2461
    _ZN20btAlignedObjectArrayI9btVectorXIfEEC1Ev @2462
    _ZN20btAlignedObjectArrayI9btVectorXIfEED1Ev @2463
    _ZN20btAlignedObjectArrayI9btVectorXIfEEixEi @2464
    _ZN20btAlignedObjectArrayIN10btSoftBody4FaceEE10deallocateEv @2465
    _ZN20btAlignedObjectArrayIN10btSoftBody4FaceEE4initEv @2466
    _ZN20btAlignedObjectArrayIN10btSoftBody4FaceEE5clearEv @2467
    _ZN20btAlignedObjectArrayIN10btSoftBody4FaceEE7destroyEii @2468
    _ZN20btAlignedObjectArrayIN10btSoftBody4FaceEE7reserveEi @2469
    _ZN20btAlignedObjectArrayIN10btSoftBody4FaceEE8allocateEi @2470
    _ZN20btAlignedObjectArrayIN10btSoftBody4FaceEE9allocSizeEi @2471
    _ZN20btAlignedObjectArrayIN10btSoftBody4FaceEE9push_backERKS1_ @2472
    _ZN20btAlignedObjectArrayIN10btSoftBody4FaceEEC1Ev @2473
    _ZN20btAlignedObjectArrayIN10btSoftBody4FaceEED1Ev @2474
    _ZN20btAlignedObjectArrayIN10btSoftBody4FaceEEixEi @2475
    _ZN20btAlignedObjectArrayIN10btSoftBody4LinkEE10deallocateEv @2476
    _ZN20btAlignedObjectArrayIN10btSoftBody4LinkEE4initEv @2477
    _ZN20btAlignedObjectArrayIN10btSoftBody4LinkEE5clearEv @2478
    _ZN20btAlignedObjectArrayIN10btSoftBody4LinkEE7destroyEii @2479
    _ZN20btAlignedObjectArrayIN10btSoftBody4LinkEE7reserveEi @2480
    _ZN20btAlignedObjectArrayIN10btSoftBody4LinkEE8allocateEi @2481
    _ZN20btAlignedObjectArrayIN10btSoftBody4LinkEE8pop_backEv @2482
    _ZN20btAlignedObjectArrayIN10btSoftBody4LinkEE9allocSizeEi @2483
    _ZN20btAlignedObjectArrayIN10btSoftBody4LinkEE9push_backERKS1_ @2484
    _ZN20btAlignedObjectArrayIN10btSoftBody4LinkEEC1Ev @2485
    _ZN20btAlignedObjectArrayIN10btSoftBody4LinkEED1Ev @2486
    _ZN20btAlignedObjectArrayIN10btSoftBody4LinkEEixEi @2487
    _ZN20btAlignedObjectArrayIN10btSoftBody4NodeEE10deallocateEv @2488
    _ZN20btAlignedObjectArrayIN10btSoftBody4NodeEE4initEv @2489
    _ZN20btAlignedObjectArrayIN10btSoftBody4NodeEE5clearEv @2490
    _ZN20btAlignedObjectArrayIN10btSoftBody4NodeEE6resizeEiRKS1_ @2491
    _ZN20btAlignedObjectArrayIN10btSoftBody4NodeEE7destroyEii @2492
    _ZN20btAlignedObjectArrayIN10btSoftBody4NodeEE7reserveEi @2493
    _ZN20btAlignedObjectArrayIN10btSoftBody4NodeEE8allocateEi @2494
    _ZN20btAlignedObjectArrayIN10btSoftBody4NodeEE8pop_backEv @2495
    _ZN20btAlignedObjectArrayIN10btSoftBody4NodeEE9allocSizeEi @2496
    _ZN20btAlignedObjectArrayIN10btSoftBody4NodeEE9push_backERKS1_ @2497
    _ZN20btAlignedObjectArrayIN10btSoftBody4NodeEEC1Ev @2498
    _ZN20btAlignedObjectArrayIN10btSoftBody4NodeEED1Ev @2499
    _ZN20btAlignedObjectArrayIN10btSoftBody4NodeEEixEi @2500
    _ZN20btAlignedObjectArrayIN10btSoftBody4NoteEE10deallocateEv @2501
    _ZN20btAlignedObjectArrayIN10btSoftBody4NoteEE4initEv @2502
    _ZN20btAlignedObjectArrayIN10btSoftBody4NoteEE5clearEv @2503
    _ZN20btAlignedObjectArrayIN10btSoftBody4NoteEE7destroyEii @2504
    _ZN20btAlignedObjectArrayIN10btSoftBody4NoteEE7reserveEi @2505
    _ZN20btAlignedObjectArrayIN10btSoftBody4NoteEE8allocateEi @2506
    _ZN20btAlignedObjectArrayIN10btSoftBody4NoteEE9allocSizeEi @2507
    _ZN20btAlignedObjectArrayIN10btSoftBody4NoteEE9push_backERKS1_ @2508
    _ZN20btAlignedObjectArrayIN10btSoftBody4NoteEEC1Ev @2509
    _ZN20btAlignedObjectArrayIN10btSoftBody4NoteEED1Ev @2510
    _ZN20btAlignedObjectArrayIN10btSoftBody4NoteEEixEi @2511
    _ZN20btAlignedObjectArrayIN10btSoftBody5TetraEE10deallocateEv @2512
    _ZN20btAlignedObjectArrayIN10btSoftBody5TetraEE4initEv @2513
    _ZN20btAlignedObjectArrayIN10btSoftBody5TetraEE5clearEv @2514
    _ZN20btAlignedObjectArrayIN10btSoftBody5TetraEE7destroyEii @2515
    _ZN20btAlignedObjectArrayIN10btSoftBody5TetraEE7reserveEi @2516
    _ZN20btAlignedObjectArrayIN10btSoftBody5TetraEE8allocateEi @2517
    _ZN20btAlignedObjectArrayIN10btSoftBody5TetraEE9allocSizeEi @2518
    _ZN20btAlignedObjectArrayIN10btSoftBody5TetraEE9push_backERKS1_ @2519
    _ZN20btAlignedObjectArrayIN10btSoftBody5TetraEEC1Ev @2520
    _ZN20btAlignedObjectArrayIN10btSoftBody5TetraEED1Ev @2521
    _ZN20btAlignedObjectArrayIN10btSoftBody5TetraEEixEi @2522
    _ZN20btAlignedObjectArrayIN10btSoftBody6AnchorEE10deallocateEv @2523
    _ZN20btAlignedObjectArrayIN10btSoftBody6AnchorEE4initEv @2524
    _ZN20btAlignedObjectArrayIN10btSoftBody6AnchorEE5clearEv @2525
    _ZN20btAlignedObjectArrayIN10btSoftBody6AnchorEE7destroyEii @2526
    _ZN20btAlignedObjectArrayIN10btSoftBody6AnchorEE7reserveEi @2527
    _ZN20btAlignedObjectArrayIN10btSoftBody6AnchorEE8allocateEi @2528
    _ZN20btAlignedObjectArrayIN10btSoftBody6AnchorEE9allocSizeEi @2529
    _ZN20btAlignedObjectArrayIN10btSoftBody6AnchorEE9push_backERKS1_ @2530
    _ZN20btAlignedObjectArrayIN10btSoftBody6AnchorEEC1Ev @2531
    _ZN20btAlignedObjectArrayIN10btSoftBody6AnchorEED1Ev @2532
    _ZN20btAlignedObjectArrayIN10btSoftBody6AnchorEEixEi @2533
    _ZN20btAlignedObjectArrayIN10btSoftBody8RContactEE10deallocateEv @2534
    _ZN20btAlignedObjectArrayIN10btSoftBody8RContactEE4initEv @2535
    _ZN20btAlignedObjectArrayIN10btSoftBody8RContactEE5clearEv @2536
    _ZN20btAlignedObjectArrayIN10btSoftBody8RContactEE6resizeEiRKS1_ @2537
    _ZN20btAlignedObjectArrayIN10btSoftBody8RContactEE7destroyEii @2538
    _ZN20btAlignedObjectArrayIN10btSoftBody8RContactEE7reserveEi @2539
    _ZN20btAlignedObjectArrayIN10btSoftBody8RContactEE8allocateEi @2540
    _ZN20btAlignedObjectArrayIN10btSoftBody8RContactEE9allocSizeEi @2541
    _ZN20btAlignedObjectArrayIN10btSoftBody8RContactEE9push_backERKS1_ @2542
    _ZN20btAlignedObjectArrayIN10btSoftBody8RContactEEC1Ev @2543
    _ZN20btAlignedObjectArrayIN10btSoftBody8RContactEED1Ev @2544
    _ZN20btAlignedObjectArrayIN10btSoftBody8RContactEEixEi @2545
    _ZN20btAlignedObjectArrayIN10btSoftBody8SContactEE10deallocateEv @2546
    _ZN20btAlignedObjectArrayIN10btSoftBody8SContactEE4initEv @2547
    _ZN20btAlignedObjectArrayIN10btSoftBody8SContactEE5clearEv @2548
    _ZN20btAlignedObjectArrayIN10btSoftBody8SContactEE6resizeEiRKS1_ @2549
    _ZN20btAlignedObjectArrayIN10btSoftBody8SContactEE7destroyEii @2550
    _ZN20btAlignedObjectArrayIN10btSoftBody8SContactEE7reserveEi @2551
    _ZN20btAlignedObjectArrayIN10btSoftBody8SContactEE8allocateEi @2552
    _ZN20btAlignedObjectArrayIN10btSoftBody8SContactEE9allocSizeEi @2553
    _ZN20btAlignedObjectArrayIN10btSoftBody8SContactEE9push_backERKS1_ @2554
    _ZN20btAlignedObjectArrayIN10btSoftBody8SContactEEC1Ev @2555
    _ZN20btAlignedObjectArrayIN10btSoftBody8SContactEED1Ev @2556
    _ZN20btAlignedObjectArrayIN10btSoftBody8SContactEEixEi @2557
    _ZN20btAlignedObjectArrayIN10btSoftBody8ePSolver1_EE10deallocateEv @2558
    _ZN20btAlignedObjectArrayIN10btSoftBody8ePSolver1_EE4initEv @2559
    _ZN20btAlignedObjectArrayIN10btSoftBody8ePSolver1_EE5clearEv @2560
    _ZN20btAlignedObjectArrayIN10btSoftBody8ePSolver1_EE7destroyEii @2561
    _ZN20btAlignedObjectArrayIN10btSoftBody8ePSolver1_EE7reserveEi @2562
    _ZN20btAlignedObjectArrayIN10btSoftBody8ePSolver1_EE8allocateEi @2563
    _ZN20btAlignedObjectArrayIN10btSoftBody8ePSolver1_EE9allocSizeEi @2564
    _ZN20btAlignedObjectArrayIN10btSoftBody8ePSolver1_EE9push_backERKS2_ @2565
    _ZN20btAlignedObjectArrayIN10btSoftBody8ePSolver1_EEC1Ev @2566
    _ZN20btAlignedObjectArrayIN10btSoftBody8ePSolver1_EED1Ev @2567
    _ZN20btAlignedObjectArrayIN10btSoftBody8ePSolver1_EEixEi @2568
    _ZN20btAlignedObjectArrayIN10btSoftBody8eVSolver1_EE10deallocateEv @2569
    _ZN20btAlignedObjectArrayIN10btSoftBody8eVSolver1_EE4initEv @2570
    _ZN20btAlignedObjectArrayIN10btSoftBody8eVSolver1_EE5clearEv @2571
    _ZN20btAlignedObjectArrayIN10btSoftBody8eVSolver1_EE7destroyEii @2572
    _ZN20btAlignedObjectArrayIN10btSoftBody8eVSolver1_EE7reserveEi @2573
    _ZN20btAlignedObjectArrayIN10btSoftBody8eVSolver1_EE8allocateEi @2574
    _ZN20btAlignedObjectArrayIN10btSoftBody8eVSolver1_EE9allocSizeEi @2575
    _ZN20btAlignedObjectArrayIN10btSoftBody8eVSolver1_EE9push_backERKS2_ @2576
    _ZN20btAlignedObjectArrayIN10btSoftBody8eVSolver1_EEC1Ev @2577
    _ZN20btAlignedObjectArrayIN10btSoftBody8eVSolver1_EED1Ev @2578
    _ZN20btAlignedObjectArrayIN10btSoftBody8eVSolver1_EEixEi @2579
    _ZN20btAlignedObjectArrayIN17btTypedConstraint17btConstraintInfo1EE10deallocateEv @2580
    _ZN20btAlignedObjectArrayIN17btTypedConstraint17btConstraintInfo1EE18resizeNoInitializeEi @2581
    _ZN20btAlignedObjectArrayIN17btTypedConstraint17btConstraintInfo1EE4initEv @2582
    _ZN20btAlignedObjectArrayIN17btTypedConstraint17btConstraintInfo1EE5clearEv @2583
    _ZN20btAlignedObjectArrayIN17btTypedConstraint17btConstraintInfo1EE7destroyEii @2584
    _ZN20btAlignedObjectArrayIN17btTypedConstraint17btConstraintInfo1EE7reserveEi @2585
    _ZN20btAlignedObjectArrayIN17btTypedConstraint17btConstraintInfo1EE8allocateEi @2586
    _ZN20btAlignedObjectArrayIN17btTypedConstraint17btConstraintInfo1EEC1Ev @2587
    _ZN20btAlignedObjectArrayIN17btTypedConstraint17btConstraintInfo1EED1Ev @2588
    _ZN20btAlignedObjectArrayIN17btTypedConstraint17btConstraintInfo1EEixEi @2589
    _ZN20btAlignedObjectArrayIN20btConvexHullComputer4EdgeEE10deallocateEv @2590
    _ZN20btAlignedObjectArrayIN20btConvexHullComputer4EdgeEE4initEv @2591
    _ZN20btAlignedObjectArrayIN20btConvexHullComputer4EdgeEE5clearEv @2592
    _ZN20btAlignedObjectArrayIN20btConvexHullComputer4EdgeEE6resizeEiRKS1_ @2593
    _ZN20btAlignedObjectArrayIN20btConvexHullComputer4EdgeEE7destroyEii @2594
    _ZN20btAlignedObjectArrayIN20btConvexHullComputer4EdgeEE7reserveEi @2595
    _ZN20btAlignedObjectArrayIN20btConvexHullComputer4EdgeEE8allocateEi @2596
    _ZN20btAlignedObjectArrayIN20btConvexHullComputer4EdgeEE9allocSizeEi @2597
    _ZN20btAlignedObjectArrayIN20btConvexHullComputer4EdgeEE9push_backERKS1_ @2598
    _ZN20btAlignedObjectArrayIN20btConvexHullComputer4EdgeEEC1Ev @2599
    _ZN20btAlignedObjectArrayIN20btConvexHullComputer4EdgeEED1Ev @2600
    _ZN20btAlignedObjectArrayIN20btConvexHullComputer4EdgeEEixEi @2601
    _ZN20btAlignedObjectArrayIN20btConvexHullInternal7Point32EE10deallocateEv @2602
    _ZN20btAlignedObjectArrayIN20btConvexHullInternal7Point32EE17quickSortInternalI8pointCmpEEvRKT_ii @2603
    _ZN20btAlignedObjectArrayIN20btConvexHullInternal7Point32EE4initEv @2604
    _ZN20btAlignedObjectArrayIN20btConvexHullInternal7Point32EE4swapEii @2605
    _ZN20btAlignedObjectArrayIN20btConvexHullInternal7Point32EE5clearEv @2606
    _ZN20btAlignedObjectArrayIN20btConvexHullInternal7Point32EE6resizeEiRKS1_ @2607
    _ZN20btAlignedObjectArrayIN20btConvexHullInternal7Point32EE7destroyEii @2608
    _ZN20btAlignedObjectArrayIN20btConvexHullInternal7Point32EE7reserveEi @2609
    _ZN20btAlignedObjectArrayIN20btConvexHullInternal7Point32EE8allocateEi @2610
    _ZN20btAlignedObjectArrayIN20btConvexHullInternal7Point32EE9quickSortI8pointCmpEEvRKT_ @2611
    _ZN20btAlignedObjectArrayIN20btConvexHullInternal7Point32EEC1Ev @2612
    _ZN20btAlignedObjectArrayIN20btConvexHullInternal7Point32EED1Ev @2613
    _ZN20btAlignedObjectArrayIN20btConvexHullInternal7Point32EEixEi @2614
    _ZN20btAlignedObjectArrayIN24btConstraintSolverPoolMt12ThreadSolverEE10deallocateEv @2615
    _ZN20btAlignedObjectArrayIN24btConstraintSolverPoolMt12ThreadSolverEE4initEv @2616
    _ZN20btAlignedObjectArrayIN24btConstraintSolverPoolMt12ThreadSolverEE5clearEv @2617
    _ZN20btAlignedObjectArrayIN24btConstraintSolverPoolMt12ThreadSolverEE6resizeEiRKS1_ @2618
    _ZN20btAlignedObjectArrayIN24btConstraintSolverPoolMt12ThreadSolverEE7destroyEii @2619
    _ZN20btAlignedObjectArrayIN24btConstraintSolverPoolMt12ThreadSolverEE7reserveEi @2620
    _ZN20btAlignedObjectArrayIN24btConstraintSolverPoolMt12ThreadSolverEE8allocateEi @2621
    _ZN20btAlignedObjectArrayIN24btConstraintSolverPoolMt12ThreadSolverEEC1Ev @2622
    _ZN20btAlignedObjectArrayIN24btConstraintSolverPoolMt12ThreadSolverEED1Ev @2623
    _ZN20btAlignedObjectArrayIN24btConstraintSolverPoolMt12ThreadSolverEEixEi @2624
    _ZN20btAlignedObjectArrayIN6btDbvt6sStkNNEE10deallocateEv @2625
    _ZN20btAlignedObjectArrayIN6btDbvt6sStkNNEE20initializeFromBufferEPvii @2626
    _ZN20btAlignedObjectArrayIN6btDbvt6sStkNNEE4initEv @2627
    _ZN20btAlignedObjectArrayIN6btDbvt6sStkNNEE5clearEv @2628
    _ZN20btAlignedObjectArrayIN6btDbvt6sStkNNEE6resizeEiRKS1_ @2629
    _ZN20btAlignedObjectArrayIN6btDbvt6sStkNNEE7destroyEii @2630
    _ZN20btAlignedObjectArrayIN6btDbvt6sStkNNEE7reserveEi @2631
    _ZN20btAlignedObjectArrayIN6btDbvt6sStkNNEE8allocateEi @2632
    _ZN20btAlignedObjectArrayIN6btDbvt6sStkNNEEC1Ev @2633
    _ZN20btAlignedObjectArrayIN6btDbvt6sStkNNEED1Ev @2634
    _ZN20btAlignedObjectArrayIN6btDbvt6sStkNNEEixEi @2635
    _ZN20btAlignedObjectArrayIN6btDbvt7sStkCLNEE10deallocateEv @2636
    _ZN20btAlignedObjectArrayIN6btDbvt7sStkCLNEE4initEv @2637
    _ZN20btAlignedObjectArrayIN6btDbvt7sStkCLNEE5clearEv @2638
    _ZN20btAlignedObjectArrayIN6btDbvt7sStkCLNEE7destroyEii @2639
    _ZN20btAlignedObjectArrayIN6btDbvt7sStkCLNEE7reserveEi @2640
    _ZN20btAlignedObjectArrayIN6btDbvt7sStkCLNEE8allocateEi @2641
    _ZN20btAlignedObjectArrayIN6btDbvt7sStkCLNEE8pop_backEv @2642
    _ZN20btAlignedObjectArrayIN6btDbvt7sStkCLNEE9allocSizeEi @2643
    _ZN20btAlignedObjectArrayIN6btDbvt7sStkCLNEE9push_backERKS1_ @2644
    _ZN20btAlignedObjectArrayIN6btDbvt7sStkCLNEEC1Ev @2645
    _ZN20btAlignedObjectArrayIN6btDbvt7sStkCLNEED1Ev @2646
    _ZN20btAlignedObjectArrayIN6btDbvt7sStkCLNEEixEi @2647
    _ZN20btAlignedObjectArrayIN7ConvexH8HalfEdgeEE10deallocateEv @2648
    _ZN20btAlignedObjectArrayIN7ConvexH8HalfEdgeEE4initEv @2649
    _ZN20btAlignedObjectArrayIN7ConvexH8HalfEdgeEE5clearEv @2650
    _ZN20btAlignedObjectArrayIN7ConvexH8HalfEdgeEE6resizeEiRKS1_ @2651
    _ZN20btAlignedObjectArrayIN7ConvexH8HalfEdgeEE7destroyEii @2652
    _ZN20btAlignedObjectArrayIN7ConvexH8HalfEdgeEE7reserveEi @2653
    _ZN20btAlignedObjectArrayIN7ConvexH8HalfEdgeEE8allocateEi @2654
    _ZN20btAlignedObjectArrayIN7ConvexH8HalfEdgeEEC1Ev @2655
    _ZN20btAlignedObjectArrayIN7ConvexH8HalfEdgeEED1Ev @2656
    _ZN20btAlignedObjectArrayIP10btDbvtNodeE10deallocateEv @2657
    _ZN20btAlignedObjectArrayIP10btDbvtNodeE4initEv @2658
    _ZN20btAlignedObjectArrayIP10btDbvtNodeE5clearEv @2659
    _ZN20btAlignedObjectArrayIP10btDbvtNodeE7destroyEii @2660
    _ZN20btAlignedObjectArrayIP10btDbvtNodeE7reserveEi @2661
    _ZN20btAlignedObjectArrayIP10btDbvtNodeE8allocateEi @2662
    _ZN20btAlignedObjectArrayIP10btDbvtNodeE9allocSizeEi @2663
    _ZN20btAlignedObjectArrayIP10btDbvtNodeE9push_backERKS1_ @2664
    _ZN20btAlignedObjectArrayIP10btDbvtNodeEC1Ev @2665
    _ZN20btAlignedObjectArrayIP10btDbvtNodeED1Ev @2666
    _ZN20btAlignedObjectArrayIP10btDbvtNodeEixEi @2667
    _ZN20btAlignedObjectArrayIP10btSoftBodyE10deallocateEv @2668
    _ZN20btAlignedObjectArrayIP10btSoftBodyE13copyFromArrayERKS2_ @2669
    _ZN20btAlignedObjectArrayIP10btSoftBodyE13removeAtIndexEi @2670
    _ZN20btAlignedObjectArrayIP10btSoftBodyE4initEv @2671
    _ZN20btAlignedObjectArrayIP10btSoftBodyE4swapEii @2672
    _ZN20btAlignedObjectArrayIP10btSoftBodyE5clearEv @2673
    _ZN20btAlignedObjectArrayIP10btSoftBodyE6removeERKS1_ @2674
    _ZN20btAlignedObjectArrayIP10btSoftBodyE6resizeEiRKS1_ @2675
    _ZN20btAlignedObjectArrayIP10btSoftBodyE7destroyEii @2676
    _ZN20btAlignedObjectArrayIP10btSoftBodyE7reserveEi @2677
    _ZN20btAlignedObjectArrayIP10btSoftBodyE8allocateEi @2678
    _ZN20btAlignedObjectArrayIP10btSoftBodyE8pop_backEv @2679
    _ZN20btAlignedObjectArrayIP10btSoftBodyE9allocSizeEi @2680
    _ZN20btAlignedObjectArrayIP10btSoftBodyE9push_backERKS1_ @2681
    _ZN20btAlignedObjectArrayIP10btSoftBodyEC1Ev @2682
    _ZN20btAlignedObjectArrayIP10btSoftBodyED1Ev @2683
    _ZN20btAlignedObjectArrayIP10btSoftBodyEixEi @2684
    _ZN20btAlignedObjectArrayIP11btMultiBodyE10deallocateEv @2685
    _ZN20btAlignedObjectArrayIP11btMultiBodyE13removeAtIndexEi @2686
    _ZN20btAlignedObjectArrayIP11btMultiBodyE4initEv @2687
    _ZN20btAlignedObjectArrayIP11btMultiBodyE4swapEii @2688
    _ZN20btAlignedObjectArrayIP11btMultiBodyE5clearEv @2689
    _ZN20btAlignedObjectArrayIP11btMultiBodyE6removeERKS1_ @2690
    _ZN20btAlignedObjectArrayIP11btMultiBodyE7destroyEii @2691
    _ZN20btAlignedObjectArrayIP11btMultiBodyE7reserveEi @2692
    _ZN20btAlignedObjectArrayIP11btMultiBodyE8allocateEi @2693
    _ZN20btAlignedObjectArrayIP11btMultiBodyE8pop_backEv @2694
    _ZN20btAlignedObjectArrayIP11btMultiBodyE9allocSizeEi @2695
    _ZN20btAlignedObjectArrayIP11btMultiBodyE9push_backERKS1_ @2696
    _ZN20btAlignedObjectArrayIP11btMultiBodyEC1Ev @2697
    _ZN20btAlignedObjectArrayIP11btMultiBodyED1Ev @2698
    _ZN20btAlignedObjectArrayIP11btMultiBodyEixEi @2699
    _ZN20btAlignedObjectArrayIP11btRigidBodyE10deallocateEv @2700
    _ZN20btAlignedObjectArrayIP11btRigidBodyE13removeAtIndexEi @2701
    _ZN20btAlignedObjectArrayIP11btRigidBodyE4initEv @2702
    _ZN20btAlignedObjectArrayIP11btRigidBodyE4swapEii @2703
    _ZN20btAlignedObjectArrayIP11btRigidBodyE5clearEv @2704
    _ZN20btAlignedObjectArrayIP11btRigidBodyE6removeERKS1_ @2705
    _ZN20btAlignedObjectArrayIP11btRigidBodyE7destroyEii @2706
    _ZN20btAlignedObjectArrayIP11btRigidBodyE7reserveEi @2707
    _ZN20btAlignedObjectArrayIP11btRigidBodyE8allocateEi @2708
    _ZN20btAlignedObjectArrayIP11btRigidBodyE8pop_backEv @2709
    _ZN20btAlignedObjectArrayIP11btRigidBodyE9allocSizeEi @2710
    _ZN20btAlignedObjectArrayIP11btRigidBodyE9push_backERKS1_ @2711
    _ZN20btAlignedObjectArrayIP11btRigidBodyEC1Ev @2712
    _ZN20btAlignedObjectArrayIP11btRigidBodyED1Ev @2713
    _ZN20btAlignedObjectArrayIP11btRigidBodyEixEi @2714
    _ZN20btAlignedObjectArrayIP14btHullTriangleE10deallocateEv @2715
    _ZN20btAlignedObjectArrayIP14btHullTriangleE4initEv @2716
    _ZN20btAlignedObjectArrayIP14btHullTriangleE5clearEv @2717
    _ZN20btAlignedObjectArrayIP14btHullTriangleE6resizeEiRKS1_ @2718
    _ZN20btAlignedObjectArrayIP14btHullTriangleE7destroyEii @2719
    _ZN20btAlignedObjectArrayIP14btHullTriangleE7reserveEi @2720
    _ZN20btAlignedObjectArrayIP14btHullTriangleE8allocateEi @2721
    _ZN20btAlignedObjectArrayIP14btHullTriangleE9allocSizeEi @2722
    _ZN20btAlignedObjectArrayIP14btHullTriangleE9push_backERKS1_ @2723
    _ZN20btAlignedObjectArrayIP14btHullTriangleEC1Ev @2724
    _ZN20btAlignedObjectArrayIP14btHullTriangleED1Ev @2725
    _ZN20btAlignedObjectArrayIP14btHullTriangleEixEi @2726
    _ZN20btAlignedObjectArrayIP14btOptimizedBvhE10deallocateEv @2727
    _ZN20btAlignedObjectArrayIP14btOptimizedBvhE4initEv @2728
    _ZN20btAlignedObjectArrayIP14btOptimizedBvhE5clearEv @2729
    _ZN20btAlignedObjectArrayIP14btOptimizedBvhE7destroyEii @2730
    _ZN20btAlignedObjectArrayIP14btOptimizedBvhE7reserveEi @2731
    _ZN20btAlignedObjectArrayIP14btOptimizedBvhE8allocateEi @2732
    _ZN20btAlignedObjectArrayIP14btOptimizedBvhE9allocSizeEi @2733
    _ZN20btAlignedObjectArrayIP14btOptimizedBvhE9push_backERKS1_ @2734
    _ZN20btAlignedObjectArrayIP14btOptimizedBvhEC1Ev @2735
    _ZN20btAlignedObjectArrayIP14btOptimizedBvhED1Ev @2736
    _ZN20btAlignedObjectArrayIP14btOptimizedBvhEixEi @2737
    _ZN20btAlignedObjectArrayIP16btCollisionShapeE10deallocateEv @2738
    _ZN20btAlignedObjectArrayIP16btCollisionShapeE4initEv @2739
    _ZN20btAlignedObjectArrayIP16btCollisionShapeE5clearEv @2740
    _ZN20btAlignedObjectArrayIP16btCollisionShapeE7destroyEii @2741
    _ZN20btAlignedObjectArrayIP16btCollisionShapeE7reserveEi @2742
    _ZN20btAlignedObjectArrayIP16btCollisionShapeE8allocateEi @2743
    _ZN20btAlignedObjectArrayIP16btCollisionShapeE9allocSizeEi @2744
    _ZN20btAlignedObjectArrayIP16btCollisionShapeE9push_backERKS1_ @2745
    _ZN20btAlignedObjectArrayIP16btCollisionShapeEC1Ev @2746
    _ZN20btAlignedObjectArrayIP16btCollisionShapeED1Ev @2747
    _ZN20btAlignedObjectArrayIP16btCollisionShapeEixEi @2748
    _ZN20btAlignedObjectArrayIP17btActionInterfaceE10deallocateEv @2749
    _ZN20btAlignedObjectArrayIP17btActionInterfaceE13removeAtIndexEi @2750
    _ZN20btAlignedObjectArrayIP17btActionInterfaceE4initEv @2751
    _ZN20btAlignedObjectArrayIP17btActionInterfaceE4swapEii @2752
    _ZN20btAlignedObjectArrayIP17btActionInterfaceE5clearEv @2753
    _ZN20btAlignedObjectArrayIP17btActionInterfaceE6removeERKS1_ @2754
    _ZN20btAlignedObjectArrayIP17btActionInterfaceE7destroyEii @2755
    _ZN20btAlignedObjectArrayIP17btActionInterfaceE7reserveEi @2756
    _ZN20btAlignedObjectArrayIP17btActionInterfaceE8allocateEi @2757
    _ZN20btAlignedObjectArrayIP17btActionInterfaceE8pop_backEv @2758
    _ZN20btAlignedObjectArrayIP17btActionInterfaceE9allocSizeEi @2759
    _ZN20btAlignedObjectArrayIP17btActionInterfaceE9push_backERKS1_ @2760
    _ZN20btAlignedObjectArrayIP17btActionInterfaceEC1Ev @2761
    _ZN20btAlignedObjectArrayIP17btActionInterfaceED1Ev @2762
    _ZN20btAlignedObjectArrayIP17btActionInterfaceEixEi @2763
    _ZN20btAlignedObjectArrayIP17btCollisionObjectE10deallocateEv @2764
    _ZN20btAlignedObjectArrayIP17btCollisionObjectE13removeAtIndexEi @2765
    _ZN20btAlignedObjectArrayIP17btCollisionObjectE4initEv @2766
    _ZN20btAlignedObjectArrayIP17btCollisionObjectE4swapEii @2767
    _ZN20btAlignedObjectArrayIP17btCollisionObjectE5clearEv @2768
    _ZN20btAlignedObjectArrayIP17btCollisionObjectE6removeERKS1_ @2769
    _ZN20btAlignedObjectArrayIP17btCollisionObjectE6resizeEiRKS1_ @2770
    _ZN20btAlignedObjectArrayIP17btCollisionObjectE7destroyEii @2771
    _ZN20btAlignedObjectArrayIP17btCollisionObjectE7reserveEi @2772
    _ZN20btAlignedObjectArrayIP17btCollisionObjectE8allocateEi @2773
    _ZN20btAlignedObjectArrayIP17btCollisionObjectE8pop_backEv @2774
    _ZN20btAlignedObjectArrayIP17btCollisionObjectE9allocSizeEi @2775
    _ZN20btAlignedObjectArrayIP17btCollisionObjectE9push_backERKS1_ @2776
    _ZN20btAlignedObjectArrayIP17btCollisionObjectEC1Ev @2777
    _ZN20btAlignedObjectArrayIP17btCollisionObjectED1Ev @2778
    _ZN20btAlignedObjectArrayIP17btCollisionObjectEixEi @2779
    _ZN20btAlignedObjectArrayIP17btTriangleInfoMapE10deallocateEv @2780
    _ZN20btAlignedObjectArrayIP17btTriangleInfoMapE4initEv @2781
    _ZN20btAlignedObjectArrayIP17btTriangleInfoMapE5clearEv @2782
    _ZN20btAlignedObjectArrayIP17btTriangleInfoMapE7destroyEii @2783
    _ZN20btAlignedObjectArrayIP17btTriangleInfoMapE7reserveEi @2784
    _ZN20btAlignedObjectArrayIP17btTriangleInfoMapE8allocateEi @2785
    _ZN20btAlignedObjectArrayIP17btTriangleInfoMapE9allocSizeEi @2786
    _ZN20btAlignedObjectArrayIP17btTriangleInfoMapE9push_backERKS1_ @2787
    _ZN20btAlignedObjectArrayIP17btTriangleInfoMapEC1Ev @2788
    _ZN20btAlignedObjectArrayIP17btTriangleInfoMapED1Ev @2789
    _ZN20btAlignedObjectArrayIP17btTriangleInfoMapEixEi @2790
    _ZN20btAlignedObjectArrayIP17btTypedConstraintE10deallocateEv @2791
    _ZN20btAlignedObjectArrayIP17btTypedConstraintE13removeAtIndexEi @2792
    _ZN20btAlignedObjectArrayIP17btTypedConstraintE17quickSortInternalI33btSortConstraintOnIslandPredicateEEvRKT_ii @2793
    _ZN20btAlignedObjectArrayIP17btTypedConstraintE17quickSortInternalI34btSortConstraintOnIslandPredicate2EEvRKT_ii @2794
    _ZN20btAlignedObjectArrayIP17btTypedConstraintE4initEv @2795
    _ZN20btAlignedObjectArrayIP17btTypedConstraintE4swapEii @2796
    _ZN20btAlignedObjectArrayIP17btTypedConstraintE5clearEv @2797
    _ZN20btAlignedObjectArrayIP17btTypedConstraintE6removeERKS1_ @2798
    _ZN20btAlignedObjectArrayIP17btTypedConstraintE6resizeEiRKS1_ @2799
    _ZN20btAlignedObjectArrayIP17btTypedConstraintE7destroyEii @2800
    _ZN20btAlignedObjectArrayIP17btTypedConstraintE7reserveEi @2801
    _ZN20btAlignedObjectArrayIP17btTypedConstraintE8allocateEi @2802
    _ZN20btAlignedObjectArrayIP17btTypedConstraintE8pop_backEv @2803
    _ZN20btAlignedObjectArrayIP17btTypedConstraintE9allocSizeEi @2804
    _ZN20btAlignedObjectArrayIP17btTypedConstraintE9push_backERKS1_ @2805
    _ZN20btAlignedObjectArrayIP17btTypedConstraintE9quickSortI33btSortConstraintOnIslandPredicateEEvRKT_ @2806
    _ZN20btAlignedObjectArrayIP17btTypedConstraintE9quickSortI34btSortConstraintOnIslandPredicate2EEvRKT_ @2807
    _ZN20btAlignedObjectArrayIP17btTypedConstraintEC1Ev @2808
    _ZN20btAlignedObjectArrayIP17btTypedConstraintED1Ev @2809
    _ZN20btAlignedObjectArrayIP17btTypedConstraintEixEi @2810
    _ZN20btAlignedObjectArrayIP18btConstraintSolverE10deallocateEv @2811
    _ZN20btAlignedObjectArrayIP18btConstraintSolverE4initEv @2812
    _ZN20btAlignedObjectArrayIP18btConstraintSolverE5clearEv @2813
    _ZN20btAlignedObjectArrayIP18btConstraintSolverE7destroyEii @2814
    _ZN20btAlignedObjectArrayIP18btConstraintSolverE7reserveEi @2815
    _ZN20btAlignedObjectArrayIP18btConstraintSolverE8allocateEi @2816
    _ZN20btAlignedObjectArrayIP18btConstraintSolverE9allocSizeEi @2817
    _ZN20btAlignedObjectArrayIP18btConstraintSolverE9push_backERKS1_ @2818
    _ZN20btAlignedObjectArrayIP18btConstraintSolverEC1Ev @2819
    _ZN20btAlignedObjectArrayIP18btConstraintSolverED1Ev @2820
    _ZN20btAlignedObjectArrayIP18btConstraintSolverEixEi @2821
    _ZN20btAlignedObjectArrayIP18btSolverConstraintE10deallocateEv @2822
    _ZN20btAlignedObjectArrayIP18btSolverConstraintE4initEv @2823
    _ZN20btAlignedObjectArrayIP18btSolverConstraintE5clearEv @2824
    _ZN20btAlignedObjectArrayIP18btSolverConstraintE6resizeEiRKS1_ @2825
    _ZN20btAlignedObjectArrayIP18btSolverConstraintE7destroyEii @2826
    _ZN20btAlignedObjectArrayIP18btSolverConstraintE7reserveEi @2827
    _ZN20btAlignedObjectArrayIP18btSolverConstraintE8allocateEi @2828
    _ZN20btAlignedObjectArrayIP18btSolverConstraintE9allocSizeEi @2829
    _ZN20btAlignedObjectArrayIP18btSolverConstraintE9push_backERKS1_ @2830
    _ZN20btAlignedObjectArrayIP18btSolverConstraintEC1Ev @2831
    _ZN20btAlignedObjectArrayIP18btSolverConstraintED1Ev @2832
    _ZN20btAlignedObjectArrayIP18btSolverConstraintEixEi @2833
    _ZN20btAlignedObjectArrayIP18btVector3FloatDataE10deallocateEv @2834
    _ZN20btAlignedObjectArrayIP18btVector3FloatDataE4initEv @2835
    _ZN20btAlignedObjectArrayIP18btVector3FloatDataE5clearEv @2836
    _ZN20btAlignedObjectArrayIP18btVector3FloatDataE7destroyEii @2837
    _ZN20btAlignedObjectArrayIP18btVector3FloatDataE7reserveEi @2838
    _ZN20btAlignedObjectArrayIP18btVector3FloatDataE8allocateEi @2839
    _ZN20btAlignedObjectArrayIP18btVector3FloatDataE9allocSizeEi @2840
    _ZN20btAlignedObjectArrayIP18btVector3FloatDataE9push_backERKS1_ @2841
    _ZN20btAlignedObjectArrayIP18btVector3FloatDataEC1Ev @2842
    _ZN20btAlignedObjectArrayIP18btVector3FloatDataED1Ev @2843
    _ZN20btAlignedObjectArrayIP18btVector3FloatDataEixEi @2844
    _ZN20btAlignedObjectArrayIP19btVector3DoubleDataE10deallocateEv @2845
    _ZN20btAlignedObjectArrayIP19btVector3DoubleDataE4initEv @2846
    _ZN20btAlignedObjectArrayIP19btVector3DoubleDataE5clearEv @2847
    _ZN20btAlignedObjectArrayIP19btVector3DoubleDataE7destroyEii @2848
    _ZN20btAlignedObjectArrayIP19btVector3DoubleDataE7reserveEi @2849
    _ZN20btAlignedObjectArrayIP19btVector3DoubleDataE8allocateEi @2850
    _ZN20btAlignedObjectArrayIP19btVector3DoubleDataE9allocSizeEi @2851
    _ZN20btAlignedObjectArrayIP19btVector3DoubleDataE9push_backERKS1_ @2852
    _ZN20btAlignedObjectArrayIP19btVector3DoubleDataEC1Ev @2853
    _ZN20btAlignedObjectArrayIP19btVector3DoubleDataED1Ev @2854
    _ZN20btAlignedObjectArrayIP19btVector3DoubleDataEixEi @2855
    _ZN20btAlignedObjectArrayIP20btCollisionAlgorithmE10deallocateEv @2856
    _ZN20btAlignedObjectArrayIP20btCollisionAlgorithmE4initEv @2857
    _ZN20btAlignedObjectArrayIP20btCollisionAlgorithmE5clearEv @2858
    _ZN20btAlignedObjectArrayIP20btCollisionAlgorithmE6resizeEiRKS1_ @2859
    _ZN20btAlignedObjectArrayIP20btCollisionAlgorithmE7destroyEii @2860
    _ZN20btAlignedObjectArrayIP20btCollisionAlgorithmE7reserveEi @2861
    _ZN20btAlignedObjectArrayIP20btCollisionAlgorithmE8allocateEi @2862
    _ZN20btAlignedObjectArrayIP20btCollisionAlgorithmEC1Ev @2863
    _ZN20btAlignedObjectArrayIP20btCollisionAlgorithmED1Ev @2864
    _ZN20btAlignedObjectArrayIP20btCollisionAlgorithmEixEi @2865
    _ZN20btAlignedObjectArrayIP20btCollisionShapeDataEixEi @2866
    _ZN20btAlignedObjectArrayIP20btPersistentManifoldE10deallocateEv @2867
    _ZN20btAlignedObjectArrayIP20btPersistentManifoldE17quickSortInternalI33btPersistentManifoldSortPredicateEEvRKT_ii @2868
    _ZN20btAlignedObjectArrayIP20btPersistentManifoldE18resizeNoInitializeEi @2869
    _ZN20btAlignedObjectArrayIP20btPersistentManifoldE20initializeFromBufferEPvii @2870
    _ZN20btAlignedObjectArrayIP20btPersistentManifoldE4initEv @2871
    _ZN20btAlignedObjectArrayIP20btPersistentManifoldE4swapEii @2872
    _ZN20btAlignedObjectArrayIP20btPersistentManifoldE5clearEv @2873
    _ZN20btAlignedObjectArrayIP20btPersistentManifoldE6resizeEiRKS1_ @2874
    _ZN20btAlignedObjectArrayIP20btPersistentManifoldE7destroyEii @2875
    _ZN20btAlignedObjectArrayIP20btPersistentManifoldE7reserveEi @2876
    _ZN20btAlignedObjectArrayIP20btPersistentManifoldE8allocateEi @2877
    _ZN20btAlignedObjectArrayIP20btPersistentManifoldE8pop_backEv @2878
    _ZN20btAlignedObjectArrayIP20btPersistentManifoldE9allocSizeEi @2879
    _ZN20btAlignedObjectArrayIP20btPersistentManifoldE9push_backERKS1_ @2880
    _ZN20btAlignedObjectArrayIP20btPersistentManifoldE9quickSortI33btPersistentManifoldSortPredicateEEvRKT_ @2881
    _ZN20btAlignedObjectArrayIP20btPersistentManifoldEC1Ev @2882
    _ZN20btAlignedObjectArrayIP20btPersistentManifoldED1Ev @2883
    _ZN20btAlignedObjectArrayIP20btPersistentManifoldEixEi @2884
    _ZN20btAlignedObjectArrayIP21btMultiBodyConstraintE10deallocateEv @2885
    _ZN20btAlignedObjectArrayIP21btMultiBodyConstraintE13removeAtIndexEi @2886
    _ZN20btAlignedObjectArrayIP21btMultiBodyConstraintE17quickSortInternalI42btSortMultiBodyConstraintOnIslandPredicateEEvRKT_ii @2887
    _ZN20btAlignedObjectArrayIP21btMultiBodyConstraintE4initEv @2888
    _ZN20btAlignedObjectArrayIP21btMultiBodyConstraintE4swapEii @2889
    _ZN20btAlignedObjectArrayIP21btMultiBodyConstraintE5clearEv @2890
    _ZN20btAlignedObjectArrayIP21btMultiBodyConstraintE6removeERKS1_ @2891
    _ZN20btAlignedObjectArrayIP21btMultiBodyConstraintE6resizeEiRKS1_ @2892
    _ZN20btAlignedObjectArrayIP21btMultiBodyConstraintE7destroyEii @2893
    _ZN20btAlignedObjectArrayIP21btMultiBodyConstraintE7reserveEi @2894
    _ZN20btAlignedObjectArrayIP21btMultiBodyConstraintE8allocateEi @2895
    _ZN20btAlignedObjectArrayIP21btMultiBodyConstraintE8pop_backEv @2896
    _ZN20btAlignedObjectArrayIP21btMultiBodyConstraintE9allocSizeEi @2897
    _ZN20btAlignedObjectArrayIP21btMultiBodyConstraintE9push_backERKS1_ @2898
    _ZN20btAlignedObjectArrayIP21btMultiBodyConstraintE9quickSortI42btSortMultiBodyConstraintOnIslandPredicateEEvRKT_ @2899
    _ZN20btAlignedObjectArrayIP21btMultiBodyConstraintEC1Ev @2900
    _ZN20btAlignedObjectArrayIP21btMultiBodyConstraintED1Ev @2901
    _ZN20btAlignedObjectArrayIP21btMultiBodyConstraintEixEi @2902
    _ZN20btAlignedObjectArrayIP22btGImpactMeshShapePartE10deallocateEv @2903
    _ZN20btAlignedObjectArrayIP22btGImpactMeshShapePartE4initEv @2904
    _ZN20btAlignedObjectArrayIP22btGImpactMeshShapePartE5clearEv @2905
    _ZN20btAlignedObjectArrayIP22btGImpactMeshShapePartE7destroyEii @2906
    _ZN20btAlignedObjectArrayIP22btGImpactMeshShapePartED1Ev @2907
    _ZN20btAlignedObjectArrayIP22btGImpactMeshShapePartEixEi @2908
    _ZN20btAlignedObjectArrayIP23btQuantizedBvhFloatDataEixEi @2909
    _ZN20btAlignedObjectArrayIP24btQuantizedBvhDoubleDataEixEi @2910
    _ZN20btAlignedObjectArrayIP26btCollisionObjectFloatDataEixEi @2911
    _ZN20btAlignedObjectArrayIP26btTriangleIndexVertexArrayE10deallocateEv @2912
    _ZN20btAlignedObjectArrayIP26btTriangleIndexVertexArrayE4initEv @2913
    _ZN20btAlignedObjectArrayIP26btTriangleIndexVertexArrayE5clearEv @2914
    _ZN20btAlignedObjectArrayIP26btTriangleIndexVertexArrayE7destroyEii @2915
    _ZN20btAlignedObjectArrayIP26btTriangleIndexVertexArrayE7reserveEi @2916
    _ZN20btAlignedObjectArrayIP26btTriangleIndexVertexArrayE8allocateEi @2917
    _ZN20btAlignedObjectArrayIP26btTriangleIndexVertexArrayE9allocSizeEi @2918
    _ZN20btAlignedObjectArrayIP26btTriangleIndexVertexArrayE9push_backERKS1_ @2919
    _ZN20btAlignedObjectArrayIP26btTriangleIndexVertexArrayEC1Ev @2920
    _ZN20btAlignedObjectArrayIP26btTriangleIndexVertexArrayED1Ev @2921
    _ZN20btAlignedObjectArrayIP26btTriangleIndexVertexArrayEixEi @2922
    _ZN20btAlignedObjectArrayIP27btCollisionObjectDoubleDataEixEi @2923
    _ZN20btAlignedObjectArrayIP27btStridingMeshInterfaceDataE10deallocateEv @2924
    _ZN20btAlignedObjectArrayIP27btStridingMeshInterfaceDataE4initEv @2925
    _ZN20btAlignedObjectArrayIP27btStridingMeshInterfaceDataE5clearEv @2926
    _ZN20btAlignedObjectArrayIP27btStridingMeshInterfaceDataE7destroyEii @2927
    _ZN20btAlignedObjectArrayIP27btStridingMeshInterfaceDataE7reserveEi @2928
    _ZN20btAlignedObjectArrayIP27btStridingMeshInterfaceDataE8allocateEi @2929
    _ZN20btAlignedObjectArrayIP27btStridingMeshInterfaceDataE9allocSizeEi @2930
    _ZN20btAlignedObjectArrayIP27btStridingMeshInterfaceDataE9push_backERKS1_ @2931
    _ZN20btAlignedObjectArrayIP27btStridingMeshInterfaceDataEC1Ev @2932
    _ZN20btAlignedObjectArrayIP27btStridingMeshInterfaceDataED1Ev @2933
    _ZN20btAlignedObjectArrayIP27btStridingMeshInterfaceDataEixEi @2934
    _ZN20btAlignedObjectArrayIPK10btDbvtNodeE10deallocateEv @2935
    _ZN20btAlignedObjectArrayIPK10btDbvtNodeE20initializeFromBufferEPvii @2936
    _ZN20btAlignedObjectArrayIPK10btDbvtNodeE4initEv @2937
    _ZN20btAlignedObjectArrayIPK10btDbvtNodeE5clearEv @2938
    _ZN20btAlignedObjectArrayIPK10btDbvtNodeE6resizeEiRKS2_ @2939
    _ZN20btAlignedObjectArrayIPK10btDbvtNodeE7destroyEii @2940
    _ZN20btAlignedObjectArrayIPK10btDbvtNodeE7reserveEi @2941
    _ZN20btAlignedObjectArrayIPK10btDbvtNodeE8allocateEi @2942
    _ZN20btAlignedObjectArrayIPK10btDbvtNodeE8pop_backEv @2943
    _ZN20btAlignedObjectArrayIPK10btDbvtNodeE9allocSizeEi @2944
    _ZN20btAlignedObjectArrayIPK10btDbvtNodeE9push_backERKS2_ @2945
    _ZN20btAlignedObjectArrayIPK10btDbvtNodeEC1ERKS3_ @2946
    _ZN20btAlignedObjectArrayIPK10btDbvtNodeEC1Ev @2947
    _ZN20btAlignedObjectArrayIPK10btDbvtNodeED1Ev @2948
    _ZN20btAlignedObjectArrayIPK10btDbvtNodeEixEi @2949
    _ZN20btAlignedObjectArrayIPK17btCollisionObjectE10deallocateEv @2950
    _ZN20btAlignedObjectArrayIPK17btCollisionObjectE13removeAtIndexEi @2951
    _ZN20btAlignedObjectArrayIPK17btCollisionObjectE4initEv @2952
    _ZN20btAlignedObjectArrayIPK17btCollisionObjectE4swapEii @2953
    _ZN20btAlignedObjectArrayIPK17btCollisionObjectE5clearEv @2954
    _ZN20btAlignedObjectArrayIPK17btCollisionObjectE6removeERKS2_ @2955
    _ZN20btAlignedObjectArrayIPK17btCollisionObjectE7destroyEii @2956
    _ZN20btAlignedObjectArrayIPK17btCollisionObjectE7reserveEi @2957
    _ZN20btAlignedObjectArrayIPK17btCollisionObjectE8allocateEi @2958
    _ZN20btAlignedObjectArrayIPK17btCollisionObjectE8pop_backEv @2959
    _ZN20btAlignedObjectArrayIPK17btCollisionObjectE9allocSizeEi @2960
    _ZN20btAlignedObjectArrayIPK17btCollisionObjectE9push_backERKS2_ @2961
    _ZN20btAlignedObjectArrayIPK17btCollisionObjectEC1Ev @2962
    _ZN20btAlignedObjectArrayIPK17btCollisionObjectED1Ev @2963
    _ZN20btAlignedObjectArrayIPK17btCollisionObjectEixEi @2964
    _ZN20btAlignedObjectArrayIPKcE10deallocateEv @2965
    _ZN20btAlignedObjectArrayIPKcE4initEv @2966
    _ZN20btAlignedObjectArrayIPKcE5clearEv @2967
    _ZN20btAlignedObjectArrayIPKcE7destroyEii @2968
    _ZN20btAlignedObjectArrayIPKcE7reserveEi @2969
    _ZN20btAlignedObjectArrayIPKcE8allocateEi @2970
    _ZN20btAlignedObjectArrayIPKcE9allocSizeEi @2971
    _ZN20btAlignedObjectArrayIPKcE9push_backERKS1_ @2972
    _ZN20btAlignedObjectArrayIPKcEC1Ev @2973
    _ZN20btAlignedObjectArrayIPKcED1Ev @2974
    _ZN20btAlignedObjectArrayIPKcEixEi @2975
    _ZN20btAlignedObjectArrayIPN10btSoftBody4NodeEE10deallocateEv @2976
    _ZN20btAlignedObjectArrayIPN10btSoftBody4NodeEE4initEv @2977
    _ZN20btAlignedObjectArrayIPN10btSoftBody4NodeEE5clearEv @2978
    _ZN20btAlignedObjectArrayIPN10btSoftBody4NodeEE6resizeEiRKS2_ @2979
    _ZN20btAlignedObjectArrayIPN10btSoftBody4NodeEE7destroyEii @2980
    _ZN20btAlignedObjectArrayIPN10btSoftBody4NodeEE7reserveEi @2981
    _ZN20btAlignedObjectArrayIPN10btSoftBody4NodeEE8allocateEi @2982
    _ZN20btAlignedObjectArrayIPN10btSoftBody4NodeEE9allocSizeEi @2983
    _ZN20btAlignedObjectArrayIPN10btSoftBody4NodeEE9push_backERKS2_ @2984
    _ZN20btAlignedObjectArrayIPN10btSoftBody4NodeEEC1Ev @2985
    _ZN20btAlignedObjectArrayIPN10btSoftBody4NodeEED1Ev @2986
    _ZN20btAlignedObjectArrayIPN10btSoftBody4NodeEEixEi @2987
    _ZN20btAlignedObjectArrayIPN10btSoftBody5JointEE10deallocateEv @2988
    _ZN20btAlignedObjectArrayIPN10btSoftBody5JointEE13removeAtIndexEi @2989
    _ZN20btAlignedObjectArrayIPN10btSoftBody5JointEE4initEv @2990
    _ZN20btAlignedObjectArrayIPN10btSoftBody5JointEE4swapEii @2991
    _ZN20btAlignedObjectArrayIPN10btSoftBody5JointEE5clearEv @2992
    _ZN20btAlignedObjectArrayIPN10btSoftBody5JointEE6removeERKS2_ @2993
    _ZN20btAlignedObjectArrayIPN10btSoftBody5JointEE7destroyEii @2994
    _ZN20btAlignedObjectArrayIPN10btSoftBody5JointEE7reserveEi @2995
    _ZN20btAlignedObjectArrayIPN10btSoftBody5JointEE8allocateEi @2996
    _ZN20btAlignedObjectArrayIPN10btSoftBody5JointEE8pop_backEv @2997
    _ZN20btAlignedObjectArrayIPN10btSoftBody5JointEE9allocSizeEi @2998
    _ZN20btAlignedObjectArrayIPN10btSoftBody5JointEE9push_backERKS2_ @2999
    _ZN20btAlignedObjectArrayIPN10btSoftBody5JointEEC1Ev @3000
    _ZN20btAlignedObjectArrayIPN10btSoftBody5JointEED1Ev @3001
    _ZN20btAlignedObjectArrayIPN10btSoftBody5JointEEixEi @3002
    _ZN20btAlignedObjectArrayIPN10btSoftBody7ClusterEE10deallocateEv @3003
    _ZN20btAlignedObjectArrayIPN10btSoftBody7ClusterEE13removeAtIndexEi @3004
    _ZN20btAlignedObjectArrayIPN10btSoftBody7ClusterEE4initEv @3005
    _ZN20btAlignedObjectArrayIPN10btSoftBody7ClusterEE4swapEii @3006
    _ZN20btAlignedObjectArrayIPN10btSoftBody7ClusterEE5clearEv @3007
    _ZN20btAlignedObjectArrayIPN10btSoftBody7ClusterEE6removeERKS2_ @3008
    _ZN20btAlignedObjectArrayIPN10btSoftBody7ClusterEE6resizeEiRKS2_ @3009
    _ZN20btAlignedObjectArrayIPN10btSoftBody7ClusterEE7destroyEii @3010
    _ZN20btAlignedObjectArrayIPN10btSoftBody7ClusterEE7reserveEi @3011
    _ZN20btAlignedObjectArrayIPN10btSoftBody7ClusterEE8allocateEi @3012
    _ZN20btAlignedObjectArrayIPN10btSoftBody7ClusterEE8pop_backEv @3013
    _ZN20btAlignedObjectArrayIPN10btSoftBody7ClusterEE9allocSizeEi @3014
    _ZN20btAlignedObjectArrayIPN10btSoftBody7ClusterEE9push_backERKS2_ @3015
    _ZN20btAlignedObjectArrayIPN10btSoftBody7ClusterEEC1Ev @3016
    _ZN20btAlignedObjectArrayIPN10btSoftBody7ClusterEED1Ev @3017
    _ZN20btAlignedObjectArrayIPN10btSoftBody7ClusterEEixEi @3018
    _ZN20btAlignedObjectArrayIPN10btSoftBody8MaterialEE10deallocateEv @3019
    _ZN20btAlignedObjectArrayIPN10btSoftBody8MaterialEE4initEv @3020
    _ZN20btAlignedObjectArrayIPN10btSoftBody8MaterialEE5clearEv @3021
    _ZN20btAlignedObjectArrayIPN10btSoftBody8MaterialEE7destroyEii @3022
    _ZN20btAlignedObjectArrayIPN10btSoftBody8MaterialEE7reserveEi @3023
    _ZN20btAlignedObjectArrayIPN10btSoftBody8MaterialEE8allocateEi @3024
    _ZN20btAlignedObjectArrayIPN10btSoftBody8MaterialEE9allocSizeEi @3025
    _ZN20btAlignedObjectArrayIPN10btSoftBody8MaterialEE9push_backERKS2_ @3026
    _ZN20btAlignedObjectArrayIPN10btSoftBody8MaterialEEC1Ev @3027
    _ZN20btAlignedObjectArrayIPN10btSoftBody8MaterialEED1Ev @3028
    _ZN20btAlignedObjectArrayIPN10btSoftBody8MaterialEEixEi @3029
    _ZN20btAlignedObjectArrayIPN11btSparseSdfILi3EE4CellEE10deallocateEv @3030
    _ZN20btAlignedObjectArrayIPN11btSparseSdfILi3EE4CellEE4initEv @3031
    _ZN20btAlignedObjectArrayIPN11btSparseSdfILi3EE4CellEE5clearEv @3032
    _ZN20btAlignedObjectArrayIPN11btSparseSdfILi3EE4CellEE6resizeEiRKS3_ @3033
    _ZN20btAlignedObjectArrayIPN11btSparseSdfILi3EE4CellEE7destroyEii @3034
    _ZN20btAlignedObjectArrayIPN11btSparseSdfILi3EE4CellEE7reserveEi @3035
    _ZN20btAlignedObjectArrayIPN11btSparseSdfILi3EE4CellEE8allocateEi @3036
    _ZN20btAlignedObjectArrayIPN11btSparseSdfILi3EE4CellEEC1Ev @3037
    _ZN20btAlignedObjectArrayIPN11btSparseSdfILi3EE4CellEED1Ev @3038
    _ZN20btAlignedObjectArrayIPN11btSparseSdfILi3EE4CellEEixEi @3039
    _ZN20btAlignedObjectArrayIPN20btConvexHullInternal4FaceEE10deallocateEv @3040
    _ZN20btAlignedObjectArrayIPN20btConvexHullInternal4FaceEE4initEv @3041
    _ZN20btAlignedObjectArrayIPN20btConvexHullInternal4FaceEE5clearEv @3042
    _ZN20btAlignedObjectArrayIPN20btConvexHullInternal4FaceEE7destroyEii @3043
    _ZN20btAlignedObjectArrayIPN20btConvexHullInternal4FaceEE7reserveEi @3044
    _ZN20btAlignedObjectArrayIPN20btConvexHullInternal4FaceEE8allocateEi @3045
    _ZN20btAlignedObjectArrayIPN20btConvexHullInternal4FaceEE9allocSizeEi @3046
    _ZN20btAlignedObjectArrayIPN20btConvexHullInternal4FaceEE9push_backERKS2_ @3047
    _ZN20btAlignedObjectArrayIPN20btConvexHullInternal4FaceEEC1Ev @3048
    _ZN20btAlignedObjectArrayIPN20btConvexHullInternal4FaceEED1Ev @3049
    _ZN20btAlignedObjectArrayIPN20btConvexHullInternal4FaceEEixEi @3050
    _ZN20btAlignedObjectArrayIPN20btConvexHullInternal6VertexEE10deallocateEv @3051
    _ZN20btAlignedObjectArrayIPN20btConvexHullInternal6VertexEE4initEv @3052
    _ZN20btAlignedObjectArrayIPN20btConvexHullInternal6VertexEE5clearEv @3053
    _ZN20btAlignedObjectArrayIPN20btConvexHullInternal6VertexEE6resizeEiRKS2_ @3054
    _ZN20btAlignedObjectArrayIPN20btConvexHullInternal6VertexEE7destroyEii @3055
    _ZN20btAlignedObjectArrayIPN20btConvexHullInternal6VertexEE7reserveEi @3056
    _ZN20btAlignedObjectArrayIPN20btConvexHullInternal6VertexEE8allocateEi @3057
    _ZN20btAlignedObjectArrayIPN20btConvexHullInternal6VertexEE8pop_backEv @3058
    _ZN20btAlignedObjectArrayIPN20btConvexHullInternal6VertexEE9allocSizeEi @3059
    _ZN20btAlignedObjectArrayIPN20btConvexHullInternal6VertexEE9push_backERKS2_ @3060
    _ZN20btAlignedObjectArrayIPN20btConvexHullInternal6VertexEEC1ERKS3_ @3061
    _ZN20btAlignedObjectArrayIPN20btConvexHullInternal6VertexEEC1Ev @3062
    _ZN20btAlignedObjectArrayIPN20btConvexHullInternal6VertexEED1Ev @3063
    _ZN20btAlignedObjectArrayIPN20btConvexHullInternal6VertexEEixEi @3064
    _ZN20btAlignedObjectArrayIPN27btSimulationIslandManagerMt6IslandEE10deallocateEv @3065
    _ZN20btAlignedObjectArrayIPN27btSimulationIslandManagerMt6IslandEE17quickSortInternalI28IslandBatchSizeSortPredicateEEvRKT_ii @3066
    _ZN20btAlignedObjectArrayIPN27btSimulationIslandManagerMt6IslandEE17quickSortInternalI31IslandBodyCapacitySortPredicateEEvRKT_ii @3067
    _ZN20btAlignedObjectArrayIPN27btSimulationIslandManagerMt6IslandEE4initEv @3068
    _ZN20btAlignedObjectArrayIPN27btSimulationIslandManagerMt6IslandEE4swapEii @3069
    _ZN20btAlignedObjectArrayIPN27btSimulationIslandManagerMt6IslandEE5clearEv @3070
    _ZN20btAlignedObjectArrayIPN27btSimulationIslandManagerMt6IslandEE6resizeEiRKS2_ @3071
    _ZN20btAlignedObjectArrayIPN27btSimulationIslandManagerMt6IslandEE7destroyEii @3072
    _ZN20btAlignedObjectArrayIPN27btSimulationIslandManagerMt6IslandEE7reserveEi @3073
    _ZN20btAlignedObjectArrayIPN27btSimulationIslandManagerMt6IslandEE8allocateEi @3074
    _ZN20btAlignedObjectArrayIPN27btSimulationIslandManagerMt6IslandEE8pop_backEv @3075
    _ZN20btAlignedObjectArrayIPN27btSimulationIslandManagerMt6IslandEE9allocSizeEi @3076
    _ZN20btAlignedObjectArrayIPN27btSimulationIslandManagerMt6IslandEE9push_backERKS2_ @3077
    _ZN20btAlignedObjectArrayIPN27btSimulationIslandManagerMt6IslandEE9quickSortI28IslandBatchSizeSortPredicateEEvRKT_ @3078
    _ZN20btAlignedObjectArrayIPN27btSimulationIslandManagerMt6IslandEE9quickSortI31IslandBodyCapacitySortPredicateEEvRKT_ @3079
    _ZN20btAlignedObjectArrayIPN27btSimulationIslandManagerMt6IslandEEC1Ev @3080
    _ZN20btAlignedObjectArrayIPN27btSimulationIslandManagerMt6IslandEED1Ev @3081
    _ZN20btAlignedObjectArrayIPN27btSimulationIslandManagerMt6IslandEEixEi @3082
    _ZN20btAlignedObjectArrayIPcE10deallocateEv @3083
    _ZN20btAlignedObjectArrayIPcE4initEv @3084
    _ZN20btAlignedObjectArrayIPcE5clearEv @3085
    _ZN20btAlignedObjectArrayIPcE7destroyEii @3086
    _ZN20btAlignedObjectArrayIPcE7reserveEi @3087
    _ZN20btAlignedObjectArrayIPcE8allocateEi @3088
    _ZN20btAlignedObjectArrayIPcE9allocSizeEi @3089
    _ZN20btAlignedObjectArrayIPcE9push_backERKS0_ @3090
    _ZN20btAlignedObjectArrayIPcEC1Ev @3091
    _ZN20btAlignedObjectArrayIPcED1Ev @3092
    _ZN20btAlignedObjectArrayIPcEixEi @3093
    _ZN20btAlignedObjectArrayIPfE10deallocateEv @3094
    _ZN20btAlignedObjectArrayIPfE6resizeEiRKS0_ @3095
    _ZN20btAlignedObjectArrayIPfE7destroyEii @3096
    _ZN20btAlignedObjectArrayIPfE7reserveEi @3097
    _ZN20btAlignedObjectArrayIPfE8allocateEi @3098
    _ZN20btAlignedObjectArrayIPfEixEi @3099
    _ZN20btAlignedObjectArrayIPhE10deallocateEv @3100
    _ZN20btAlignedObjectArrayIPhE4initEv @3101
    _ZN20btAlignedObjectArrayIPhE5clearEv @3102
    _ZN20btAlignedObjectArrayIPhE7destroyEii @3103
    _ZN20btAlignedObjectArrayIPhE7reserveEi @3104
    _ZN20btAlignedObjectArrayIPhE8allocateEi @3105
    _ZN20btAlignedObjectArrayIPhE9allocSizeEi @3106
    _ZN20btAlignedObjectArrayIPhE9push_backERKS0_ @3107
    _ZN20btAlignedObjectArrayIPhEC1Ev @3108
    _ZN20btAlignedObjectArrayIPhED1Ev @3109
    _ZN20btAlignedObjectArrayIPhEixEi @3110
    _ZN20btAlignedObjectArrayIPiE10deallocateEv @3111
    _ZN20btAlignedObjectArrayIPiE4initEv @3112
    _ZN20btAlignedObjectArrayIPiE5clearEv @3113
    _ZN20btAlignedObjectArrayIPiE7destroyEii @3114
    _ZN20btAlignedObjectArrayIPiE7reserveEi @3115
    _ZN20btAlignedObjectArrayIPiE8allocateEi @3116
    _ZN20btAlignedObjectArrayIPiE9allocSizeEi @3117
    _ZN20btAlignedObjectArrayIPiE9push_backERKS0_ @3118
    _ZN20btAlignedObjectArrayIPiEC1Ev @3119
    _ZN20btAlignedObjectArrayIPiED1Ev @3120
    _ZN20btAlignedObjectArrayIPiEixEi @3121
    _ZN20btAlignedObjectArrayIPsE10deallocateEv @3122
    _ZN20btAlignedObjectArrayIPsE4initEv @3123
    _ZN20btAlignedObjectArrayIPsE5clearEv @3124
    _ZN20btAlignedObjectArrayIPsE7destroyEii @3125
    _ZN20btAlignedObjectArrayIPsE7reserveEi @3126
    _ZN20btAlignedObjectArrayIPsE8allocateEi @3127
    _ZN20btAlignedObjectArrayIPsE9allocSizeEi @3128
    _ZN20btAlignedObjectArrayIPsE9push_backERKS0_ @3129
    _ZN20btAlignedObjectArrayIPsEC1Ev @3130
    _ZN20btAlignedObjectArrayIPsED1Ev @3131
    _ZN20btAlignedObjectArrayIPsEixEi @3132
    _ZN20btAlignedObjectArrayIS_IPK10btDbvtNodeEE10deallocateEv @3133
    _ZN20btAlignedObjectArrayIS_IPK10btDbvtNodeEE4initEv @3134
    _ZN20btAlignedObjectArrayIS_IPK10btDbvtNodeEE5clearEv @3135
    _ZN20btAlignedObjectArrayIS_IPK10btDbvtNodeEE6resizeEiRKS3_ @3136
    _ZN20btAlignedObjectArrayIS_IPK10btDbvtNodeEE7destroyEii @3137
    _ZN20btAlignedObjectArrayIS_IPK10btDbvtNodeEE7reserveEi @3138
    _ZN20btAlignedObjectArrayIS_IPK10btDbvtNodeEE8allocateEi @3139
    _ZN20btAlignedObjectArrayIS_IPK10btDbvtNodeEEC1Ev @3140
    _ZN20btAlignedObjectArrayIS_IPK10btDbvtNodeEED1Ev @3141
    _ZN20btAlignedObjectArrayIS_IPK10btDbvtNodeEEixEi @3142
    _ZN20btAlignedObjectArrayIS_IiEE10deallocateEv @3143
    _ZN20btAlignedObjectArrayIS_IiEE13copyFromArrayERKS1_ @3144
    _ZN20btAlignedObjectArrayIS_IiEE4initEv @3145
    _ZN20btAlignedObjectArrayIS_IiEE5clearEv @3146
    _ZN20btAlignedObjectArrayIS_IiEE6resizeEiRKS0_ @3147
    _ZN20btAlignedObjectArrayIS_IiEE7destroyEii @3148
    _ZN20btAlignedObjectArrayIS_IiEE7reserveEi @3149
    _ZN20btAlignedObjectArrayIS_IiEE8allocateEi @3150
    _ZN20btAlignedObjectArrayIS_IiEEC1ERKS1_ @3151
    _ZN20btAlignedObjectArrayIS_IiEEC1Ev @3152
    _ZN20btAlignedObjectArrayIS_IiEED1Ev @3153
    _ZN20btAlignedObjectArrayIS_IiEEaSERKS1_ @3154
    _ZN20btAlignedObjectArrayIbE10deallocateEv @3155
    _ZN20btAlignedObjectArrayIbE4initEv @3156
    _ZN20btAlignedObjectArrayIbE5clearEv @3157
    _ZN20btAlignedObjectArrayIbE6resizeEiRKb @3158
    _ZN20btAlignedObjectArrayIbE7destroyEii @3159
    _ZN20btAlignedObjectArrayIbE7reserveEi @3160
    _ZN20btAlignedObjectArrayIbE8allocateEi @3161
    _ZN20btAlignedObjectArrayIbEC1Ev @3162
    _ZN20btAlignedObjectArrayIbED1Ev @3163
    _ZN20btAlignedObjectArrayIbEixEi @3164
    _ZN20btAlignedObjectArrayIfE10deallocateEv @3165
    _ZN20btAlignedObjectArrayIfE13copyFromArrayERKS0_ @3166
    _ZN20btAlignedObjectArrayIfE18resizeNoInitializeEi @3167
    _ZN20btAlignedObjectArrayIfE4initEv @3168
    _ZN20btAlignedObjectArrayIfE5clearEv @3169
    _ZN20btAlignedObjectArrayIfE6resizeEiRKf @3170
    _ZN20btAlignedObjectArrayIfE7destroyEii @3171
    _ZN20btAlignedObjectArrayIfE7reserveEi @3172
    _ZN20btAlignedObjectArrayIfE8allocateEi @3173
    _ZN20btAlignedObjectArrayIfE9allocSizeEi @3174
    _ZN20btAlignedObjectArrayIfE9push_backERKf @3175
    _ZN20btAlignedObjectArrayIfEC1ERKS0_ @3176
    _ZN20btAlignedObjectArrayIfEC1Ev @3177
    _ZN20btAlignedObjectArrayIfED1Ev @3178
    _ZN20btAlignedObjectArrayIfEaSERKS0_ @3179
    _ZN20btAlignedObjectArrayIfEixEi @3180
    _ZN20btAlignedObjectArrayIiE10deallocateEv @3181
    _ZN20btAlignedObjectArrayIiE13removeAtIndexEi @3182
    _ZN20btAlignedObjectArrayIiE18resizeNoInitializeEi @3183
    _ZN20btAlignedObjectArrayIiE4initEv @3184
    _ZN20btAlignedObjectArrayIiE4swapEii @3185
    _ZN20btAlignedObjectArrayIiE5clearEv @3186
    _ZN20btAlignedObjectArrayIiE6removeERKi @3187
    _ZN20btAlignedObjectArrayIiE6resizeEiRKi @3188
    _ZN20btAlignedObjectArrayIiE7destroyEii @3189
    _ZN20btAlignedObjectArrayIiE7reserveEi @3190
    _ZN20btAlignedObjectArrayIiE8allocateEi @3191
    _ZN20btAlignedObjectArrayIiE8pop_backEv @3192
    _ZN20btAlignedObjectArrayIiE9allocSizeEi @3193
    _ZN20btAlignedObjectArrayIiE9push_backERKi @3194
    _ZN20btAlignedObjectArrayIiEC1ERKS0_ @3195
    _ZN20btAlignedObjectArrayIiEC1Ev @3196
    _ZN20btAlignedObjectArrayIiED1Ev @3197
    _ZN20btAlignedObjectArrayIiEixEi @3198
    _ZN20btAlignedObjectArrayIjE10deallocateEv @3199
    _ZN20btAlignedObjectArrayIjE4initEv @3200
    _ZN20btAlignedObjectArrayIjE5clearEv @3201
    _ZN20btAlignedObjectArrayIjE6resizeEiRKj @3202
    _ZN20btAlignedObjectArrayIjE7destroyEii @3203
    _ZN20btAlignedObjectArrayIjE7reserveEi @3204
    _ZN20btAlignedObjectArrayIjE8allocateEi @3205
    _ZN20btAlignedObjectArrayIjE9allocSizeEi @3206
    _ZN20btAlignedObjectArrayIjE9push_backERKj @3207
    _ZN20btAlignedObjectArrayIjEC1Ev @3208
    _ZN20btAlignedObjectArrayIjED1Ev @3209
    _ZN20btAlignedObjectArrayIjEixEi @3210
    _ZN20btAlignedObjectArrayItE10deallocateEv @3211
    _ZN20btAlignedObjectArrayItE4initEv @3212
    _ZN20btAlignedObjectArrayItE5clearEv @3213
    _ZN20btAlignedObjectArrayItE7destroyEii @3214
    _ZN20btAlignedObjectArrayItE7reserveEi @3215
    _ZN20btAlignedObjectArrayItE8allocateEi @3216
    _ZN20btAlignedObjectArrayItE9allocSizeEi @3217
    _ZN20btAlignedObjectArrayItE9push_backERKt @3218
    _ZN20btAlignedObjectArrayItEC1Ev @3219
    _ZN20btAlignedObjectArrayItED1Ev @3220
    _ZN20btAlignedObjectArrayItEixEi @3221
    _ZN20btAxisSweep3InternalIjE10freeHandleEj @3222
    _ZN20btAxisSweep3InternalIjE10printStatsEv @3223
    _ZN20btAxisSweep3InternalIjE11allocHandleEv @3224
    _ZN20btAxisSweep3InternalIjE11createProxyERK9btVector3S3_iPviiP12btDispatcher @3225
    _ZN20btAxisSweep3InternalIjE11sortMaxDownEijP12btDispatcherb @3226
    _ZN20btAxisSweep3InternalIjE11sortMinDownEijP12btDispatcherb @3227
    _ZN20btAxisSweep3InternalIjE12destroyProxyEP17btBroadphaseProxyP12btDispatcher @3228
    _ZN20btAxisSweep3InternalIjE12removeHandleEjP12btDispatcher @3229
    _ZN20btAxisSweep3InternalIjE12updateHandleEjRK9btVector3S3_P12btDispatcher @3230
    _ZN20btAxisSweep3InternalIjE13testOverlap2DEPKNS0_6HandleES3_ii @3231
    _ZN20btAxisSweep3InternalIjE15testAabbOverlapEP17btBroadphaseProxyS2_ @3232
    _ZN20btAxisSweep3InternalIjE23getOverlappingPairCacheEv @3233
    _ZN20btAxisSweep3InternalIjE25calculateOverlappingPairsEP12btDispatcher @3234
    _ZN20btAxisSweep3InternalIjE6Handle11SetNextFreeEj @3235
    _ZN20btAxisSweep3InternalIjE6HandleC1Ev @3236
    _ZN20btAxisSweep3InternalIjE6HandledaEPv @3237
    _ZN20btAxisSweep3InternalIjE6HandlenaEy @3238
    _ZN20btAxisSweep3InternalIjE7rayTestERK9btVector3S3_R23btBroadphaseRayCallbackS3_S3_ @3239
    _ZN20btAxisSweep3InternalIjE7setAabbEP17btBroadphaseProxyRK9btVector3S5_P12btDispatcher @3240
    _ZN20btAxisSweep3InternalIjE8aabbTestERK9btVector3S3_R24btBroadphaseAabbCallback @3241
    _ZN20btAxisSweep3InternalIjE9addHandleERK9btVector3S3_PviiP12btDispatcher @3242
    _ZN20btAxisSweep3InternalIjE9resetPoolEP12btDispatcher @3243
    _ZN20btAxisSweep3InternalIjE9sortMaxUpEijP12btDispatcherb @3244
    _ZN20btAxisSweep3InternalIjE9sortMinUpEijP12btDispatcherb @3245
    _ZN20btAxisSweep3InternalIjEC2ERK9btVector3S3_jjjP22btOverlappingPairCacheb @3246
    _ZN20btAxisSweep3InternalIjED0Ev @3247
    _ZN20btAxisSweep3InternalIjED1Ev @3248
    _ZN20btAxisSweep3InternalIjED2Ev @3249
    _ZN20btAxisSweep3InternalIjEdlEPv @3250
    _ZN20btAxisSweep3InternalItE10freeHandleEt @3251
    _ZN20btAxisSweep3InternalItE10printStatsEv @3252
    _ZN20btAxisSweep3InternalItE11allocHandleEv @3253
    _ZN20btAxisSweep3InternalItE11createProxyERK9btVector3S3_iPviiP12btDispatcher @3254
    _ZN20btAxisSweep3InternalItE11sortMaxDownEitP12btDispatcherb @3255
    _ZN20btAxisSweep3InternalItE11sortMinDownEitP12btDispatcherb @3256
    _ZN20btAxisSweep3InternalItE12destroyProxyEP17btBroadphaseProxyP12btDispatcher @3257
    _ZN20btAxisSweep3InternalItE12removeHandleEtP12btDispatcher @3258
    _ZN20btAxisSweep3InternalItE12updateHandleEtRK9btVector3S3_P12btDispatcher @3259
    _ZN20btAxisSweep3InternalItE13testOverlap2DEPKNS0_6HandleES3_ii @3260
    _ZN20btAxisSweep3InternalItE15testAabbOverlapEP17btBroadphaseProxyS2_ @3261
    _ZN20btAxisSweep3InternalItE23getOverlappingPairCacheEv @3262
    _ZN20btAxisSweep3InternalItE25calculateOverlappingPairsEP12btDispatcher @3263
    _ZN20btAxisSweep3InternalItE6Handle11SetNextFreeEt @3264
    _ZN20btAxisSweep3InternalItE6HandleC1Ev @3265
    _ZN20btAxisSweep3InternalItE6HandledaEPv @3266
    _ZN20btAxisSweep3InternalItE6HandlenaEy @3267
    _ZN20btAxisSweep3InternalItE7rayTestERK9btVector3S3_R23btBroadphaseRayCallbackS3_S3_ @3268
    _ZN20btAxisSweep3InternalItE7setAabbEP17btBroadphaseProxyRK9btVector3S5_P12btDispatcher @3269
    _ZN20btAxisSweep3InternalItE8aabbTestERK9btVector3S3_R24btBroadphaseAabbCallback @3270
    _ZN20btAxisSweep3InternalItE9addHandleERK9btVector3S3_PviiP12btDispatcher @3271
    _ZN20btAxisSweep3InternalItE9resetPoolEP12btDispatcher @3272
    _ZN20btAxisSweep3InternalItE9sortMaxUpEitP12btDispatcherb @3273
    _ZN20btAxisSweep3InternalItE9sortMinUpEitP12btDispatcherb @3274
    _ZN20btAxisSweep3InternalItEC2ERK9btVector3S3_tttP22btOverlappingPairCacheb @3275
    _ZN20btAxisSweep3InternalItED0Ev @3276
    _ZN20btAxisSweep3InternalItED1Ev @3277
    _ZN20btAxisSweep3InternalItED2Ev @3278
    _ZN20btAxisSweep3InternalItEdlEPv @3279
    _ZN20btAxisSweep3InternalItEnwEy @3280
    _ZN20btCollisionAlgorithmC1ERK36btCollisionAlgorithmConstructionInfo @3281
    _ZN20btCollisionAlgorithmC2ERK36btCollisionAlgorithmConstructionInfo @3282
    _ZN20btCollisionAlgorithmD2Ev @3283
    _ZN20btCompoundShapeChildC1ERKS_ @3284
    _ZN20btCompoundShapeChildC1Ev @3285
    _ZN20btCompoundShapeChildaSERKS_ @3286
    _ZN20btCompoundShapeChildnwEyPv @3287
    _ZN20btConvexHullComputer7computeEPKfiiff @3288
    _ZN20btConvexHullComputer7computeEPKvbiiff @3289
    _ZN20btConvexHullComputerC1Ev @3290
    _ZN20btConvexHullComputerD1Ev @3291
    _ZN20btConvexHullInternal10Rational64C1Exx @3292
    _ZN20btConvexHullInternal10toBtVectorERKNS_7Point32E @3293
    _ZN20btConvexHullInternal11Rational128C1ERKNS_6Int128ES3_ @3294
    _ZN20btConvexHullInternal11Rational128C1Ex @3295
    _ZN20btConvexHullInternal11getBtNormalEPNS_4FaceE @3296
    _ZN20btConvexHullInternal11newEdgePairEPNS_6VertexES1_ @3297
    _ZN20btConvexHullInternal12findMaxAngleEbPKNS_6VertexERKNS_7Point32ERKNS_7Point64ES8_RNS_10Rational64E @3298
    _ZN20btConvexHullInternal14getCoordinatesEPKNS_6VertexE @3299
    _ZN20btConvexHullInternal14getOrientationEPKNS_4EdgeES2_RKNS_7Point32ES5_ @3300
    _ZN20btConvexHullInternal14removeEdgePairEPNS_4EdgeE @3301
    _ZN20btConvexHullInternal15computeInternalEiiRNS_16IntermediateHullE @3302
    _ZN20btConvexHullInternal15mergeProjectionERNS_16IntermediateHullES1_RPNS_6VertexES4_ @3303
    _ZN20btConvexHullInternal16IntermediateHullC1Ev @3304
    _ZN20btConvexHullInternal24findEdgeForCoplanarFacesEPNS_6VertexES1_RPNS_4EdgeES4_S1_S1_ @3305
    _ZN20btConvexHullInternal4DMulINS_6Int128EyE3lowES1_ @3306
    _ZN20btConvexHullInternal4DMulINS_6Int128EyE3mulES1_S1_RS1_S3_ @3307
    _ZN20btConvexHullInternal4DMulINS_6Int128EyE3mulEyy @3308
    _ZN20btConvexHullInternal4DMulINS_6Int128EyE4highES1_ @3309
    _ZN20btConvexHullInternal4DMulINS_6Int128EyE7shlHalfERS1_ @3310
    _ZN20btConvexHullInternal4DMulIyjE3lowEy @3311
    _ZN20btConvexHullInternal4DMulIyjE3mulEjj @3312
    _ZN20btConvexHullInternal4DMulIyjE3mulEyyRyS2_ @3313
    _ZN20btConvexHullInternal4DMulIyjE4highEy @3314
    _ZN20btConvexHullInternal4DMulIyjE7shlHalfERy @3315
    _ZN20btConvexHullInternal4Edge4linkEPS0_ @3316
    _ZN20btConvexHullInternal4EdgeD1Ev @3317
    _ZN20btConvexHullInternal4Face4initEPNS_6VertexES2_S2_ @3318
    _ZN20btConvexHullInternal4Face9getNormalEv @3319
    _ZN20btConvexHullInternal4FaceC1Ev @3320
    _ZN20btConvexHullInternal4PoolINS_4EdgeEE10freeObjectEPS1_ @3321
    _ZN20btConvexHullInternal4PoolINS_4EdgeEE12setArraySizeEi @3322
    _ZN20btConvexHullInternal4PoolINS_4EdgeEE5resetEv @3323
    _ZN20btConvexHullInternal4PoolINS_4EdgeEE9newObjectEv @3324
    _ZN20btConvexHullInternal4PoolINS_4EdgeEEC1Ev @3325
    _ZN20btConvexHullInternal4PoolINS_4EdgeEED1Ev @3326
    _ZN20btConvexHullInternal4PoolINS_4FaceEE9newObjectEv @3327
    _ZN20btConvexHullInternal4PoolINS_4FaceEEC1Ev @3328
    _ZN20btConvexHullInternal4PoolINS_4FaceEED1Ev @3329
    _ZN20btConvexHullInternal4PoolINS_6VertexEE12setArraySizeEi @3330
    _ZN20btConvexHullInternal4PoolINS_6VertexEE5resetEv @3331
    _ZN20btConvexHullInternal4PoolINS_6VertexEE9newObjectEv @3332
    _ZN20btConvexHullInternal4PoolINS_6VertexEEC1Ev @3333
    _ZN20btConvexHullInternal4PoolINS_6VertexEED1Ev @3334
    _ZN20btConvexHullInternal5mergeERNS_16IntermediateHullES1_ @3335
    _ZN20btConvexHullInternal6Int1283mulExx @3336
    _ZN20btConvexHullInternal6Int1283mulEyy @3337
    _ZN20btConvexHullInternal6Int128C1Ev @3338
    _ZN20btConvexHullInternal6Int128C1Ex @3339
    _ZN20btConvexHullInternal6Int128C1Ey @3340
    _ZN20btConvexHullInternal6Int128C1Eyy @3341
    _ZN20btConvexHullInternal6Int128pLERKS0_ @3342
    _ZN20btConvexHullInternal6Int128ppEv @3343
    _ZN20btConvexHullInternal6Vertex18receiveNearbyFacesEPS0_ @3344
    _ZN20btConvexHullInternal6VertexC1Ev @3345
    _ZN20btConvexHullInternal6shrinkEff @3346
    _ZN20btConvexHullInternal7Point326isZeroEv @3347
    _ZN20btConvexHullInternal7Point32C1Eiii @3348
    _ZN20btConvexHullInternal7Point32C1Ev @3349
    _ZN20btConvexHullInternal7Point64C1Exxx @3350
    _ZN20btConvexHullInternal7computeEPKvbii @3351
    _ZN20btConvexHullInternal9PointR128C1ENS_6Int128ES1_S1_S1_ @3352
    _ZN20btConvexHullInternal9PointR128C1Ev @3353
    _ZN20btConvexHullInternal9PoolArrayINS_4EdgeEE4initEv @3354
    _ZN20btConvexHullInternal9PoolArrayINS_4EdgeEEC1Ei @3355
    _ZN20btConvexHullInternal9PoolArrayINS_4EdgeEED1Ev @3356
    _ZN20btConvexHullInternal9PoolArrayINS_4FaceEE4initEv @3357
    _ZN20btConvexHullInternal9PoolArrayINS_4FaceEEC1Ei @3358
    _ZN20btConvexHullInternal9PoolArrayINS_4FaceEED1Ev @3359
    _ZN20btConvexHullInternal9PoolArrayINS_6VertexEE4initEv @3360
    _ZN20btConvexHullInternal9PoolArrayINS_6VertexEEC1Ei @3361
    _ZN20btConvexHullInternal9PoolArrayINS_6VertexEED1Ev @3362
    _ZN20btConvexHullInternal9shiftFaceEPNS_4FaceEf20btAlignedObjectArrayIPNS_6VertexEE @3363
    _ZN20btConvexHullInternalC1Ev @3364
    _ZN20btConvexHullInternalD1Ev @3365
    _ZN20btDbvtNodeEnumerator7ProcessEPK10btDbvtNode @3366
    _ZN20btDbvtNodeEnumeratorC1Ev @3367
    _ZN20btDbvtNodeEnumeratorD0Ev @3368
    _ZN20btDbvtNodeEnumeratorD1Ev @3369
    _ZN20btDefaultMotionState17setWorldTransformERK11btTransform @3370
    _ZN20btDefaultMotionStateC1ERK11btTransformS2_ @3371
    _ZN20btDefaultMotionStateD0Ev @3372
    _ZN20btDefaultMotionStateD1Ev @3373
    _ZN20btDefaultMotionStatedlEPv @3374
    _ZN20btDefaultMotionStatenwEy @3375
    _ZN20btInternalVertexPairC1Ess @3376
    _ZN20btPersistentManifold13clearManifoldEv @3377
    _ZN20btPersistentManifold14clearUserCacheER15btManifoldPoint @3378
    _ZN20btPersistentManifold15getContactPointEi @3379
    _ZN20btPersistentManifold16addManifoldPointERK15btManifoldPointb @3380
    _ZN20btPersistentManifold16sortCachedPointsERK15btManifoldPoint @3381
    _ZN20btPersistentManifold18removeContactPointEi @3382
    _ZN20btPersistentManifold19replaceContactPointERK15btManifoldPointi @3383
    _ZN20btPersistentManifold20refreshContactPointsERK11btTransformS2_ @3384
    _ZN20btPersistentManifold9setBodiesEPK17btCollisionObjectS2_ @3385
    _ZN20btPersistentManifoldC1EPK17btCollisionObjectS2_iff @3386
    _ZN20btPersistentManifoldC1Ev @3387
    _ZN20btPersistentManifoldC2Ev @3388
    _ZN20btPersistentManifoldnwEyPv @3389
    _ZN20btPolarDecompositionC1Efj @3390
    _ZN20btPolarDecompositionC2Efj @3391
    _ZN20btSpatialForceVector10addAngularERK9btVector3 @3392
    _ZN20btSpatialForceVector7setZeroEv @3393
    _ZN20btSpatialForceVector8setValueERKfS1_S1_S1_S1_S1_ @3394
    _ZN20btSpatialForceVector9addLinearERK9btVector3 @3395
    _ZN20btSpatialForceVector9addVectorERK9btVector3S2_ @3396
    _ZN20btSpatialForceVector9setVectorERK9btVector3S2_ @3397
    _ZN20btSpatialForceVectorC1ERK9btVector3S2_ @3398
    _ZN20btSpatialForceVectorC1ERKfS1_S1_S1_S1_S1_ @3399
    _ZN20btSpatialForceVectorC1Ev @3400
    _ZN20btSpatialForceVectorpLERKS_ @3401
    _ZN20btTetrahedronShapeExC1Ev @3402
    _ZN20btTetrahedronShapeExD0Ev @3403
    _ZN20btTetrahedronShapeExD1Ev @3404
    _ZN21BT_QUANTIZED_BVH_NODE12setDataIndexEi @3405
    _ZN21BT_QUANTIZED_BVH_NODE14setEscapeIndexEi @3406
    _ZN21BT_QUANTIZED_BVH_NODEC1Ev @3407
    _ZN21SupportVertexCallback15processTriangleEP9btVector3ii @3408
    _ZN21SupportVertexCallback21GetSupportVertexLocalEv @3409
    _ZN21SupportVertexCallbackC1ERK9btVector3RK11btTransform @3410
    _ZN21SupportVertexCallbackD0Ev @3411
    _ZN21SupportVertexCallbackD1Ev @3412
    _ZN21btBroadphaseInterface9resetPoolEP12btDispatcher @3413
    _ZN21btBroadphaseInterfaceC2Ev @3414
    _ZN21btBroadphaseInterfaceD2Ev @3415
    _ZN21btCollisionDispatcher13clearManifoldEP20btPersistentManifold @3416
    _ZN21btCollisionDispatcher13findAlgorithmEPK24btCollisionObjectWrapperS2_P20btPersistentManifold22ebtDispatcherQueryType @3417
    _ZN21btCollisionDispatcher13needsResponseEPK17btCollisionObjectS2_ @3418
    _ZN21btCollisionDispatcher14getNewManifoldEPK17btCollisionObjectS2_ @3419
    _ZN21btCollisionDispatcher14needsCollisionEPK17btCollisionObjectS2_ @3420
    _ZN21btCollisionDispatcher15releaseManifoldEP20btPersistentManifold @3421
    _ZN21btCollisionDispatcher15setNearCallbackEPFvR16btBroadphasePairRS_RK16btDispatcherInfoE @3422
    _ZN21btCollisionDispatcher19defaultNearCallbackER16btBroadphasePairRS_RK16btDispatcherInfo @3423
    _ZN21btCollisionDispatcher22freeCollisionAlgorithmEPv @3424
    _ZN21btCollisionDispatcher23getInternalManifoldPoolEv @3425
    _ZN21btCollisionDispatcher25dispatchAllCollisionPairsEP22btOverlappingPairCacheRK16btDispatcherInfoP12btDispatcher @3426
    _ZN21btCollisionDispatcher26allocateCollisionAlgorithmEi @3427
    _ZN21btCollisionDispatcher26getInternalManifoldPointerEv @3428
    _ZN21btCollisionDispatcher26getManifoldByIndexInternalEi @3429
    _ZN21btCollisionDispatcher27registerCollisionCreateFuncEiiP30btCollisionAlgorithmCreateFunc @3430
    _ZN21btCollisionDispatcher31registerClosestPointsCreateFuncEiiP30btCollisionAlgorithmCreateFunc @3431
    _ZN21btCollisionDispatcherC1EP24btCollisionConfiguration @3432
    _ZN21btCollisionDispatcherC2EP24btCollisionConfiguration @3433
    _ZN21btCollisionDispatcherD0Ev @3434
    _ZN21btCollisionDispatcherD1Ev @3435
    _ZN21btCollisionDispatcherD2Ev @3436
    _ZN21btConeTwistConstraint13buildJacobianEv @3437
    _ZN21btConeTwistConstraint13calcAngleInfoEv @3438
    _ZN21btConeTwistConstraint14calcAngleInfo2ERK11btTransformS2_RK11btMatrix3x3S5_ @3439
    _ZN21btConeTwistConstraint14setMotorTargetERK12btQuaternion @3440
    _ZN21btConeTwistConstraint18getInfo1NonVirtualEPN17btTypedConstraint17btConstraintInfo1E @3441
    _ZN21btConeTwistConstraint18getInfo2NonVirtualEPN17btTypedConstraint17btConstraintInfo2ERK11btTransformS5_RK11btMatrix3x3S8_ @3442
    _ZN21btConeTwistConstraint20computeConeLimitInfoERK12btQuaternionRfR9btVector3S3_ @3443
    _ZN21btConeTwistConstraint21computeTwistLimitInfoERK12btQuaternionRfR9btVector3 @3444
    _ZN21btConeTwistConstraint23solveConstraintObsoleteER12btSolverBodyS1_f @3445
    _ZN21btConeTwistConstraint31setMotorTargetInConstraintSpaceERK12btQuaternion @3446
    _ZN21btConeTwistConstraint4initEv @3447
    _ZN21btConeTwistConstraint8getInfo1EPN17btTypedConstraint17btConstraintInfo1E @3448
    _ZN21btConeTwistConstraint8getInfo2EPN17btTypedConstraint17btConstraintInfo2E @3449
    _ZN21btConeTwistConstraint8setLimitEffffff @3450
    _ZN21btConeTwistConstraint8setParamEifi @3451
    _ZN21btConeTwistConstraint9setFramesERK11btTransformS2_ @3452
    _ZN21btConeTwistConstraint9updateRHSEf @3453
    _ZN21btConeTwistConstraintC1ER11btRigidBodyRK11btTransform @3454
    _ZN21btConeTwistConstraintC1ER11btRigidBodyS1_RK11btTransformS4_ @3455
    _ZN21btConeTwistConstraintC2ER11btRigidBodyRK11btTransform @3456
    _ZN21btConeTwistConstraintC2ER11btRigidBodyS1_RK11btTransformS4_ @3457
    _ZN21btConeTwistConstraintD0Ev @3458
    _ZN21btConeTwistConstraintD1Ev @3459
    _ZN21btConeTwistConstraintdlEPv @3460
    _ZN21btConeTwistConstraintnwEy @3461
    _ZN21btConvexInternalShape13setSafeMarginERK9btVector3f @3462
    _ZN21btConvexInternalShape13setSafeMarginEff @3463
    _ZN21btConvexInternalShape15setLocalScalingERK9btVector3 @3464
    _ZN21btConvexInternalShape9setMarginEf @3465
    _ZN21btConvexInternalShapeC1Ev @3466
    _ZN21btConvexInternalShapeC2Ev @3467
    _ZN21btConvexInternalShapeD2Ev @3468
    _ZN21btConvexInternalShapedlEPv @3469
    _ZN21btGImpactQuantizedBvh12setNodeBoundEiRK6btAABB @3470
    _ZN21btGImpactQuantizedBvh14find_collisionEPKS_RK11btTransformS1_S4_R9btPairSet @3471
    _ZN21btGImpactQuantizedBvh19setPrimitiveManagerEP22btPrimitiveManagerBase @3472
    _ZN21btGImpactQuantizedBvh5refitEv @3473
    _ZN21btGImpactQuantizedBvh6updateEv @3474
    _ZN21btGImpactQuantizedBvh8buildSetEv @3475
    _ZN21btGImpactQuantizedBvhC1Ev @3476
    _ZN21btGImpactQuantizedBvhD1Ev @3477
    _ZN21btMultiBodyConstraint11setFrameInBERK11btMatrix3x3 @3478
    _ZN21btMultiBodyConstraint11setPivotInBERK9btVector3 @3479
    _ZN21btMultiBodyConstraint11setPositionEif @3480
    _ZN21btMultiBodyConstraint12setGearRatioEf @3481
    _ZN21btMultiBodyConstraint13applyDeltaVeeER23btMultiBodyJacobianDataPffii @3482
    _ZN21btMultiBodyConstraint14setGearAuxLinkEi @3483
    _ZN21btMultiBodyConstraint19updateJacobianSizesEv @3484
    _ZN21btMultiBodyConstraint23fillMultiBodyConstraintER27btMultiBodySolverConstraintR23btMultiBodyJacobianDataPfS4_RK9btVector3S7_S7_S7_fRK19btContactSolverInfoffbfbff @3485
    _ZN21btMultiBodyConstraint25allocateJacobiansMultiDofEv @3486
    _ZN21btMultiBodyConstraint25internalSetAppliedImpulseEif @3487
    _ZN21btMultiBodyConstraint25setRelativePositionTargetEf @3488
    _ZN21btMultiBodyConstraint6setErpEf @3489
    _ZN21btMultiBodyConstraint9jacobianAEi @3490
    _ZN21btMultiBodyConstraint9jacobianBEi @3491
    _ZN21btMultiBodyConstraintC1EP11btMultiBodyS1_iiib @3492
    _ZN21btMultiBodyConstraintC2EP11btMultiBodyS1_iiib @3493
    _ZN21btMultiBodyConstraintD0Ev @3494
    _ZN21btMultiBodyConstraintD1Ev @3495
    _ZN21btMultiBodyConstraintD2Ev @3496
    _ZN21btMultiBodyConstraintdlEPv @3497
    _ZN21btMultiBodyJointMotor11setRhsClampEf @3498
    _ZN21btMultiBodyJointMotor16finalizeMultiDofEv @3499
    _ZN21btMultiBodyJointMotor17setPositionTargetEff @3500
    _ZN21btMultiBodyJointMotor17setVelocityTargetEff @3501
    _ZN21btMultiBodyJointMotor20createConstraintRowsER20btAlignedObjectArrayI27btMultiBodySolverConstraintER23btMultiBodyJacobianDataRK19btContactSolverInfo @3502
    _ZN21btMultiBodyJointMotor6setErpEf @3503
    _ZN21btMultiBodyJointMotor9debugDrawEP12btIDebugDraw @3504
    _ZN21btMultiBodyJointMotorC1EP11btMultiBodyiff @3505
    _ZN21btMultiBodyJointMotorC1EP11btMultiBodyiiff @3506
    _ZN21btMultiBodyJointMotorC2EP11btMultiBodyiff @3507
    _ZN21btMultiBodyJointMotorC2EP11btMultiBodyiiff @3508
    _ZN21btMultiBodyJointMotorD0Ev @3509
    _ZN21btMultiBodyJointMotorD1Ev @3510
    _ZN21btMultiBodyJointMotorD2Ev @3511
    _ZN21btNodeOverlapCallbackC2Ev @3512
    _ZN21btNodeOverlapCallbackD2Ev @3513
    _ZN21btSimpleDynamicsWorld10setGravityERK9btVector3 @3514
    _ZN21btSimpleDynamicsWorld11clearForcesEv @3515
    _ZN21btSimpleDynamicsWorld11updateAabbsEv @3516
    _ZN21btSimpleDynamicsWorld12addRigidBodyEP11btRigidBody @3517
    _ZN21btSimpleDynamicsWorld12addRigidBodyEP11btRigidBodyii @3518
    _ZN21btSimpleDynamicsWorld12removeActionEP17btActionInterface @3519
    _ZN21btSimpleDynamicsWorld14debugDrawWorldEv @3520
    _ZN21btSimpleDynamicsWorld14stepSimulationEfif @3521
    _ZN21btSimpleDynamicsWorld15removeRigidBodyEP11btRigidBody @3522
    _ZN21btSimpleDynamicsWorld19getConstraintSolverEv @3523
    _ZN21btSimpleDynamicsWorld19integrateTransformsEf @3524
    _ZN21btSimpleDynamicsWorld19setConstraintSolverEP18btConstraintSolver @3525
    _ZN21btSimpleDynamicsWorld21removeCollisionObjectEP17btCollisionObject @3526
    _ZN21btSimpleDynamicsWorld23synchronizeMotionStatesEv @3527
    _ZN21btSimpleDynamicsWorld25predictUnconstraintMotionEf @3528
    _ZN21btSimpleDynamicsWorld9addActionEP17btActionInterface @3529
    _ZN21btSimpleDynamicsWorldC1EP12btDispatcherP21btBroadphaseInterfaceP18btConstraintSolverP24btCollisionConfiguration @3530
    _ZN21btSimpleDynamicsWorldC2EP12btDispatcherP21btBroadphaseInterfaceP18btConstraintSolverP24btCollisionConfiguration @3531
    _ZN21btSimpleDynamicsWorldD0Ev @3532
    _ZN21btSimpleDynamicsWorldD1Ev @3533
    _ZN21btSimpleDynamicsWorldD2Ev @3534
    _ZN21btSingleSweepCallback7processEPK17btBroadphaseProxy @3535
    _ZN21btSingleSweepCallbackC1EPK13btConvexShapeRK11btTransformS5_PK16btCollisionWorldRNS6_20ConvexResultCallbackEf @3536
    _ZN21btSingleSweepCallbackD0Ev @3537
    _ZN21btSingleSweepCallbackD1Ev @3538
    _ZN21btSpatialMotionVector10setAngularERK9btVector3 @3539
    _ZN21btSpatialMotionVector7setZeroEv @3540
    _ZN21btSpatialMotionVector9setLinearERK9btVector3 @3541
    _ZN21btSpatialMotionVector9setVectorERK9btVector3S2_ @3542
    _ZN21btSpatialMotionVectorC1ERK9btVector3S2_ @3543
    _ZN21btSpatialMotionVectorC1Ev @3544
    _ZN21btSpatialMotionVectorpLERKS_ @3545
    _ZN21btUniformScalingShape15setLocalScalingERK9btVector3 @3546
    _ZN21btUniformScalingShape9setMarginEf @3547
    _ZN21btUniformScalingShapeC1EP13btConvexShapef @3548
    _ZN21btUniformScalingShapeC2EP13btConvexShapef @3549
    _ZN21btUniformScalingShapeD0Ev @3550
    _ZN21btUniformScalingShapeD1Ev @3551
    _ZN21btUniformScalingShapeD2Ev @3552
    _ZN21btUniformScalingShapedlEPv @3553
    _ZN21btUniversalConstraint7setAxisERK9btVector3S2_ @3554
    _ZN21btUniversalConstraintC1ER11btRigidBodyS1_RK9btVector3S4_S4_ @3555
    _ZN21btUniversalConstraintC2ER11btRigidBodyS1_RK9btVector3S4_S4_ @3556
    _ZN21btUniversalConstraintD0Ev @3557
    _ZN21btUniversalConstraintD1Ev @3558
    _ZN21btUniversalConstraintdlEPv @3559
    _ZN22DISTANCE_PLANE_3D_FUNCclI9btVector39btVector4EEfRKT0_RKT_ @3560
    _ZN22GIM_STANDARD_ALLOCATORC1Ev @3561
    _ZN22GIM_STANDARD_ALLOCATORD0Ev @3562
    _ZN22GIM_STANDARD_ALLOCATORD1Ev @3563
    _ZN22SphereTriangleDetector12facecontainsERK9btVector3PS1_RS0_ @3564
    _ZN22SphereTriangleDetector15pointInTriangleEPK9btVector3RS1_PS0_ @3565
    _ZN22SphereTriangleDetector16getClosestPointsERKN36btDiscreteCollisionDetectorInterface17ClosestPointInputERNS0_6ResultEP12btIDebugDrawb @3566
    _ZN22SphereTriangleDetector7collideERK9btVector3RS0_S3_RfS4_f @3567
    _ZN22SphereTriangleDetectorC1EP13btSphereShapeP15btTriangleShapef @3568
    _ZN22SphereTriangleDetectorC2EP13btSphereShapeP15btTriangleShapef @3569
    _ZN22SphereTriangleDetectorD0Ev @3570
    _ZN22SphereTriangleDetectorD1Ev @3571
    _ZN22UpdateIslandDispatcherC1Ev @3572
    _ZN22UpdateIslandDispatcherD0Ev @3573
    _ZN22UpdateIslandDispatcherD1Ev @3574
    _ZN22btBvhTriangleMeshShape14performRaycastEP18btTriangleCallbackRK9btVector3S4_ @3575
    _ZN22btBvhTriangleMeshShape15setLocalScalingERK9btVector3 @3576
    _ZN22btBvhTriangleMeshShape15setOptimizedBvhEP14btOptimizedBvhRK9btVector3 @3577
    _ZN22btBvhTriangleMeshShape16partialRefitTreeERK9btVector3S2_ @3578
    _ZN22btBvhTriangleMeshShape17buildOptimizedBvhEv @3579
    _ZN22btBvhTriangleMeshShape17performConvexcastEP18btTriangleCallbackRK9btVector3S4_S4_S4_ @3580
    _ZN22btBvhTriangleMeshShape18getTriangleInfoMapEv @3581
    _ZN22btBvhTriangleMeshShape18setTriangleInfoMapEP17btTriangleInfoMap @3582
    _ZN22btBvhTriangleMeshShape9refitTreeERK9btVector3S2_ @3583
    _ZN22btBvhTriangleMeshShapeC1EP23btStridingMeshInterfacebRK9btVector3S4_b @3584
    _ZN22btBvhTriangleMeshShapeC1EP23btStridingMeshInterfacebb @3585
    _ZN22btBvhTriangleMeshShapeC2EP23btStridingMeshInterfacebRK9btVector3S4_b @3586
    _ZN22btBvhTriangleMeshShapeC2EP23btStridingMeshInterfacebb @3587
    _ZN22btBvhTriangleMeshShapeD0Ev @3588
    _ZN22btBvhTriangleMeshShapeD1Ev @3589
    _ZN22btBvhTriangleMeshShapeD2Ev @3590
    _ZN22btBvhTriangleMeshShapedlEPv @3591
    _ZN22btBvhTriangleMeshShapenwEy @3592
    _ZN22btCompoundLeafCallback17ProcessChildShapeEPK16btCollisionShapei @3593
    _ZN22btCompoundLeafCallback7ProcessEPK10btDbvtNode @3594
    _ZN22btCompoundLeafCallbackC1EPK24btCollisionObjectWrapperS2_P12btDispatcherRK16btDispatcherInfoP16btManifoldResultPP20btCollisionAlgorithmP20btPersistentManifold @3595
    _ZN22btCompoundLeafCallbackD0Ev @3596
    _ZN22btCompoundLeafCallbackD1Ev @3597
    _ZN22btGImpactCompoundShape13getChildShapeEi @3598
    _ZN22btGImpactCompoundShape17setChildTransformEiRK11btTransform @3599
    _ZN22btGImpactCompoundShape24CompoundPrimitiveManagerD0Ev @3600
    _ZN22btGImpactCompoundShape24CompoundPrimitiveManagerD1Ev @3601
    _ZN22btGImpactCompoundShapeD0Ev @3602
    _ZN22btGImpactCompoundShapeD1Ev @3603
    _ZN22btGImpactMeshShapePart13getChildShapeEi @3604
    _ZN22btGImpactMeshShapePart15setLocalScalingERK9btVector3 @3605
    _ZN22btGImpactMeshShapePart17setChildTransformEiRK11btTransform @3606
    _ZN22btGImpactMeshShapePart23TrimeshPrimitiveManager4lockEv @3607
    _ZN22btGImpactMeshShapePart23TrimeshPrimitiveManager6unlockEv @3608
    _ZN22btGImpactMeshShapePart23TrimeshPrimitiveManagerC1Ev @3609
    _ZN22btGImpactMeshShapePart23TrimeshPrimitiveManagerD0Ev @3610
    _ZN22btGImpactMeshShapePart23TrimeshPrimitiveManagerD1Ev @3611
    _ZN22btGImpactMeshShapePart9setMarginEf @3612
    _ZN22btGImpactMeshShapePartC1EP23btStridingMeshInterfacei @3613
    _ZN22btGImpactMeshShapePartC2EP23btStridingMeshInterfacei @3614
    _ZN22btGImpactMeshShapePartD0Ev @3615
    _ZN22btGImpactMeshShapePartD1Ev @3616
    _ZN22btGImpactMeshShapePartD2Ev @3617
    _ZN22btGenericPoolAllocator10freeMemoryEPv @3618
    _ZN22btGenericPoolAllocator13failback_freeEPv @3619
    _ZN22btGenericPoolAllocator13push_new_poolEv @3620
    _ZN22btGenericPoolAllocator14failback_allocEy @3621
    _ZN22btGenericPoolAllocator17get_pool_capacityEv @3622
    _ZN22btGenericPoolAllocator8allocateEy @3623
    _ZN22btGenericPoolAllocatorC2Eyy @3624
    _ZN22btGenericPoolAllocatorD0Ev @3625
    _ZN22btGenericPoolAllocatorD1Ev @3626
    _ZN22btGenericPoolAllocatorD2Ev @3627
    _ZN22btMultiBodyPoint2Point11setPivotInBERK9btVector3 @3628
    _ZN22btMultiBodyPoint2Point16finalizeMultiDofEv @3629
    _ZN22btMultiBodyPoint2Point20createConstraintRowsER20btAlignedObjectArrayI27btMultiBodySolverConstraintER23btMultiBodyJacobianDataRK19btContactSolverInfo @3630
    _ZN22btMultiBodyPoint2Point9debugDrawEP12btIDebugDraw @3631
    _ZN22btMultiBodyPoint2PointC1EP11btMultiBodyiP11btRigidBodyRK9btVector3S6_ @3632
    _ZN22btMultiBodyPoint2PointC1EP11btMultiBodyiS1_iRK9btVector3S4_ @3633
    _ZN22btMultiBodyPoint2PointC2EP11btMultiBodyiP11btRigidBodyRK9btVector3S6_ @3634
    _ZN22btMultiBodyPoint2PointC2EP11btMultiBodyiS1_iRK9btVector3S4_ @3635
    _ZN22btMultiBodyPoint2PointD0Ev @3636
    _ZN22btMultiBodyPoint2PointD1Ev @3637
    _ZN22btMultiBodyPoint2PointD2Ev @3638
    _ZN22btMultiBodyPoint2PointdlEPv @3639
    _ZN22btNNCGConstraintSolver20solveSingleIterationEiPP17btCollisionObjectiPP20btPersistentManifoldiPP17btTypedConstraintiRK19btContactSolverInfoP12btIDebugDraw @3640
    _ZN22btNNCGConstraintSolver28solveGroupCacheFriendlySetupEPP17btCollisionObjectiPP20btPersistentManifoldiPP17btTypedConstraintiRK19btContactSolverInfoP12btIDebugDraw @3641
    _ZN22btNNCGConstraintSolver29solveGroupCacheFriendlyFinishEPP17btCollisionObjectiRK19btContactSolverInfo @3642
    _ZN22btNNCGConstraintSolverD0Ev @3643
    _ZN22btNNCGConstraintSolverD1Ev @3644
    _ZN22btNNCGConstraintSolverdlEPv @3645
    _ZN22btOverlappingPairCacheC2Ev @3646
    _ZN22btOverlappingPairCacheD2Ev @3647
    _ZN22btPrimitiveManagerBaseC2Ev @3648
    _ZN22btPrimitiveManagerBaseD2Ev @3649
    _ZN22btRotationalLimitMotor14testLimitValueEf @3650
    _ZN22btRotationalLimitMotor18solveAngularLimitsEfR9btVector3fP11btRigidBodyS3_ @3651
    _ZN22btRotationalLimitMotorC1Ev @3652
    _ZN22btSubsimplexConvexCast16calcTimeOfImpactERK11btTransformS2_S2_S2_RN12btConvexCast10CastResultE @3653
    _ZN22btSubsimplexConvexCastC1EPK13btConvexShapeS2_P22btVoronoiSimplexSolver @3654
    _ZN22btSubsimplexConvexCastC2EPK13btConvexShapeS2_P22btVoronoiSimplexSolver @3655
    _ZN22btSubsimplexConvexCastD0Ev @3656
    _ZN22btSubsimplexConvexCastD1Ev @3657
    _ZN22btSymmetricSpatialDyad11setIdentityEv @3658
    _ZN22btSymmetricSpatialDyad9setMatrixERK11btMatrix3x3S2_S2_ @3659
    _ZN22btSymmetricSpatialDyadC1Ev @3660
    _ZN22btSymmetricSpatialDyadaSERKS_ @3661
    _ZN22btSymmetricSpatialDyadmIERKS_ @3662
    _ZN22btSymmetricSpatialDyadmlERK21btSpatialMotionVector @3663
    _ZN22btVoronoiSimplexSolver12removeVertexEi @3664
    _ZN22btVoronoiSimplexSolver14backup_closestER9btVector3 @3665
    _ZN22btVoronoiSimplexSolver14compute_pointsER9btVector3S1_ @3666
    _ZN22btVoronoiSimplexSolver14reduceVerticesERK15btUsageBitfield @3667
    _ZN22btVoronoiSimplexSolver19pointOutsideOfPlaneERK9btVector3S2_S2_S2_S2_ @3668
    _ZN22btVoronoiSimplexSolver22closestPtPointTriangleERK9btVector3S2_S2_S2_R25btSubSimplexClosestResult @3669
    _ZN22btVoronoiSimplexSolver25closestPtPointTetrahedronERK9btVector3S2_S2_S2_S2_R25btSubSimplexClosestResult @3670
    _ZN22btVoronoiSimplexSolver28updateClosestVectorAndPointsEv @3671
    _ZN22btVoronoiSimplexSolver5resetEv @3672
    _ZN22btVoronoiSimplexSolver7closestER9btVector3 @3673
    _ZN22btVoronoiSimplexSolver9addVertexERK9btVector3S2_S2_ @3674
    _ZN22btVoronoiSimplexSolver9inSimplexERK9btVector3 @3675
    _ZN22btVoronoiSimplexSolver9maxVertexEv @3676
    _ZN22btVoronoiSimplexSolverC1Ev @3677
    _ZN23btBridgedManifoldResult15addContactPointERK9btVector3S2_f @3678
    _ZN23btBridgedManifoldResultC1EPK24btCollisionObjectWrapperS2_RN16btCollisionWorld21ContactResultCallbackE @3679
    _ZN23btBridgedManifoldResultD0Ev @3680
    _ZN23btBridgedManifoldResultD1Ev @3681
    _ZN23btBroadphaseRayCallbackC2Ev @3682
    _ZN23btBroadphaseRayCallbackD2Ev @3683
    _ZN23btCollisionDispatcherMt14getNewManifoldEPK17btCollisionObjectS2_ @3684
    _ZN23btCollisionDispatcherMt15releaseManifoldEP20btPersistentManifold @3685
    _ZN23btCollisionDispatcherMt25dispatchAllCollisionPairsEP22btOverlappingPairCacheRK16btDispatcherInfoP12btDispatcher @3686
    _ZN23btCollisionDispatcherMtC1EP24btCollisionConfigurationi @3687
    _ZN23btCollisionDispatcherMtC2EP24btCollisionConfigurationi @3688
    _ZN23btCollisionDispatcherMtD0Ev @3689
    _ZN23btCollisionDispatcherMtD1Ev @3690
    _ZN23btCollisionPairCallback14processOverlapER16btBroadphasePair @3691
    _ZN23btCollisionPairCallbackC1ERK16btDispatcherInfoP21btCollisionDispatcher @3692
    _ZN23btCollisionPairCallbackD0Ev @3693
    _ZN23btCollisionPairCallbackD1Ev @3694
    _ZN23btConnectivityProcessor15processTriangleEP9btVector3ii @3695
    _ZN23btConnectivityProcessorC1Ev @3696
    _ZN23btConnectivityProcessorD0Ev @3697
    _ZN23btConnectivityProcessorD1Ev @3698
    _ZN23btConvexConvexAlgorithm10CreateFunc24CreateCollisionAlgorithmER36btCollisionAlgorithmConstructionInfoPK24btCollisionObjectWrapperS5_ @3699
    _ZN23btConvexConvexAlgorithm10CreateFuncC1EP30btConvexPenetrationDepthSolver @3700
    _ZN23btConvexConvexAlgorithm10CreateFuncC2EP30btConvexPenetrationDepthSolver @3701
    _ZN23btConvexConvexAlgorithm10CreateFuncD0Ev @3702
    _ZN23btConvexConvexAlgorithm10CreateFuncD1Ev @3703
    _ZN23btConvexConvexAlgorithm10CreateFuncD2Ev @3704
    _ZN23btConvexConvexAlgorithm16processCollisionEPK24btCollisionObjectWrapperS2_RK16btDispatcherInfoP16btManifoldResult @3705
    _ZN23btConvexConvexAlgorithm19setLowLevelOfDetailEb @3706
    _ZN23btConvexConvexAlgorithm21calculateTimeOfImpactEP17btCollisionObjectS1_RK16btDispatcherInfoP16btManifoldResult @3707
    _ZN23btConvexConvexAlgorithm22getAllContactManifoldsER20btAlignedObjectArrayIP20btPersistentManifoldE @3708
    _ZN23btConvexConvexAlgorithmC1EP20btPersistentManifoldRK36btCollisionAlgorithmConstructionInfoPK24btCollisionObjectWrapperS7_P30btConvexPenetrationDepthSolverii @3709
    _ZN23btConvexConvexAlgorithmC2EP20btPersistentManifoldRK36btCollisionAlgorithmConstructionInfoPK24btCollisionObjectWrapperS7_P30btConvexPenetrationDepthSolverii @3710
    _ZN23btConvexConvexAlgorithmD0Ev @3711
    _ZN23btConvexConvexAlgorithmD1Ev @3712
    _ZN23btConvexConvexAlgorithmD2Ev @3713
    _ZN23btConvexPointCloudShape15setLocalScalingERK9btVector3 @3714
    _ZN23btConvexPointCloudShape17getUnscaledPointsEv @3715
    _ZN23btConvexPointCloudShapeD0Ev @3716
    _ZN23btConvexPointCloudShapeD1Ev @3717
    _ZN23btConvexPointCloudShapedlEPv @3718
    _ZN23btDefaultSoftBodySolver13predictMotionEf @3719
    _ZN23btDefaultSoftBodySolver16checkInitializedEv @3720
    _ZN23btDefaultSoftBodySolver16processCollisionEP10btSoftBodyPK24btCollisionObjectWrapper @3721
    _ZN23btDefaultSoftBodySolver16processCollisionEP10btSoftBodyS1_ @3722
    _ZN23btDefaultSoftBodySolver16solveConstraintsEf @3723
    _ZN23btDefaultSoftBodySolver16updateSoftBodiesEv @3724
    _ZN23btDefaultSoftBodySolver20copyBackToSoftBodiesEb @3725
    _ZN23btDefaultSoftBodySolver26copySoftBodyToVertexBufferEPK10btSoftBodyP24btVertexBufferDescriptor @3726
    _ZN23btDefaultSoftBodySolver8optimizeER20btAlignedObjectArrayIP10btSoftBodyEb @3727
    _ZN23btDefaultSoftBodySolverC1Ev @3728
    _ZN23btDefaultSoftBodySolverC2Ev @3729
    _ZN23btDefaultSoftBodySolverD0Ev @3730
    _ZN23btDefaultSoftBodySolverD1Ev @3731
    _ZN23btDefaultSoftBodySolverD2Ev @3732
    _ZN23btDiscreteDynamicsWorld10addVehicleEP17btActionInterface @3733
    _ZN23btDiscreteDynamicsWorld10setGravityERK9btVector3 @3734
    _ZN23btDiscreteDynamicsWorld11clearForcesEv @3735
    _ZN23btDiscreteDynamicsWorld11setNumTasksEi @3736
    _ZN23btDiscreteDynamicsWorld12addCharacterEP17btActionInterface @3737
    _ZN23btDiscreteDynamicsWorld12addRigidBodyEP11btRigidBody @3738
    _ZN23btDiscreteDynamicsWorld12addRigidBodyEP11btRigidBodyii @3739
    _ZN23btDiscreteDynamicsWorld12applyGravityEv @3740
    _ZN23btDiscreteDynamicsWorld12removeActionEP17btActionInterface @3741
    _ZN23btDiscreteDynamicsWorld13addConstraintEP17btTypedConstraintb @3742
    _ZN23btDiscreteDynamicsWorld13getConstraintEi @3743
    _ZN23btDiscreteDynamicsWorld13removeVehicleEP17btActionInterface @3744
    _ZN23btDiscreteDynamicsWorld13updateActionsEf @3745
    _ZN23btDiscreteDynamicsWorld14debugDrawWorldEv @3746
    _ZN23btDiscreteDynamicsWorld14startProfilingEf @3747
    _ZN23btDiscreteDynamicsWorld14stepSimulationEfif @3748
    _ZN23btDiscreteDynamicsWorld14updateVehiclesEf @3749
    _ZN23btDiscreteDynamicsWorld15removeCharacterEP17btActionInterface @3750
    _ZN23btDiscreteDynamicsWorld15removeRigidBodyEP11btRigidBody @3751
    _ZN23btDiscreteDynamicsWorld16removeConstraintEP17btTypedConstraint @3752
    _ZN23btDiscreteDynamicsWorld16solveConstraintsER19btContactSolverInfo @3753
    _ZN23btDiscreteDynamicsWorld17getCollisionWorldEv @3754
    _ZN23btDiscreteDynamicsWorld18addCollisionObjectEP17btCollisionObjectii @3755
    _ZN23btDiscreteDynamicsWorld18saveKinematicStateEf @3756
    _ZN23btDiscreteDynamicsWorld19debugDrawConstraintEP17btTypedConstraint @3757
    _ZN23btDiscreteDynamicsWorld19getConstraintSolverEv @3758
    _ZN23btDiscreteDynamicsWorld19integrateTransformsEf @3759
    _ZN23btDiscreteDynamicsWorld19setConstraintSolverEP18btConstraintSolver @3760
    _ZN23btDiscreteDynamicsWorld20serializeRigidBodiesEP12btSerializer @3761
    _ZN23btDiscreteDynamicsWorld21removeCollisionObjectEP17btCollisionObject @3762
    _ZN23btDiscreteDynamicsWorld21updateActivationStateEf @3763
    _ZN23btDiscreteDynamicsWorld23synchronizeMotionStatesEv @3764
    _ZN23btDiscreteDynamicsWorld24createPredictiveContactsEf @3765
    _ZN23btDiscreteDynamicsWorld25predictUnconstraintMotionEf @3766
    _ZN23btDiscreteDynamicsWorld25releasePredictiveContactsEv @3767
    _ZN23btDiscreteDynamicsWorld26calculateSimulationIslandsEv @3768
    _ZN23btDiscreteDynamicsWorld26getSimulationIslandManagerEv @3769
    _ZN23btDiscreteDynamicsWorld26serializeDynamicsWorldInfoEP12btSerializer @3770
    _ZN23btDiscreteDynamicsWorld27integrateTransformsInternalEPP11btRigidBodyif @3771
    _ZN23btDiscreteDynamicsWorld28internalSingleStepSimulationEf @3772
    _ZN23btDiscreteDynamicsWorld28synchronizeSingleMotionStateEP11btRigidBody @3773
    _ZN23btDiscreteDynamicsWorld32createPredictiveContactsInternalEPP11btRigidBodyif @3774
    _ZN23btDiscreteDynamicsWorld9addActionEP17btActionInterface @3775
    _ZN23btDiscreteDynamicsWorld9serializeEP12btSerializer @3776
    _ZN23btDiscreteDynamicsWorldC1EP12btDispatcherP21btBroadphaseInterfaceP18btConstraintSolverP24btCollisionConfiguration @3777
    _ZN23btDiscreteDynamicsWorldC2EP12btDispatcherP21btBroadphaseInterfaceP18btConstraintSolverP24btCollisionConfiguration @3778
    _ZN23btDiscreteDynamicsWorldD0Ev @3779
    _ZN23btDiscreteDynamicsWorldD1Ev @3780
    _ZN23btDiscreteDynamicsWorldD2Ev @3781
    _ZN23btDiscreteDynamicsWorlddlEPv @3782
    _ZN23btDiscreteDynamicsWorldnwEy @3783
    _ZN23btGImpactShapeInterface10postUpdateEv @3784
    _ZN23btGImpactShapeInterface11getLocalBoxEv @3785
    _ZN23btGImpactShapeInterface11updateBoundEv @3786
    _ZN23btGImpactShapeInterface13calcLocalAABBEv @3787
    _ZN23btGImpactShapeInterface15setLocalScalingERK9btVector3 @3788
    _ZN23btGImpactShapeInterface9setMarginEf @3789
    _ZN23btGImpactShapeInterfaceC2Ev @3790
    _ZN23btGImpactShapeInterfaceD2Ev @3791
    _ZN23btGeneric6DofConstraint13buildJacobianEv @3792
    _ZN23btGeneric6DofConstraint13calcAnchorPosEv @3793
    _ZN23btGeneric6DofConstraint15setLinearLimitsEPN17btTypedConstraint17btConstraintInfo2EiRK11btTransformS5_RK9btVector3S8_S8_S8_ @3794
    _ZN23btGeneric6DofConstraint16setAngularLimitsEPN17btTypedConstraint17btConstraintInfo2EiRK11btTransformS5_RK9btVector3S8_S8_S8_ @3795
    _ZN23btGeneric6DofConstraint18calculateAngleInfoEv @3796
    _ZN23btGeneric6DofConstraint18getInfo1NonVirtualEPN17btTypedConstraint17btConstraintInfo1E @3797
    _ZN23btGeneric6DofConstraint18getInfo2NonVirtualEPN17btTypedConstraint17btConstraintInfo2ERK11btTransformS5_RK9btVector3S8_S8_S8_ @3798
    _ZN23btGeneric6DofConstraint19buildLinearJacobianER15btJacobianEntryRK9btVector3S4_S4_ @3799
    _ZN23btGeneric6DofConstraint19calculateLinearInfoEv @3800
    _ZN23btGeneric6DofConstraint19calculateTransformsERK11btTransformS2_ @3801
    _ZN23btGeneric6DofConstraint19calculateTransformsEv @3802
    _ZN23btGeneric6DofConstraint19setLinearLowerLimitERK9btVector3 @3803
    _ZN23btGeneric6DofConstraint19setLinearUpperLimitERK9btVector3 @3804
    _ZN23btGeneric6DofConstraint20buildAngularJacobianER15btJacobianEntryRK9btVector3 @3805
    _ZN23btGeneric6DofConstraint20setAngularLowerLimitERK9btVector3 @3806
    _ZN23btGeneric6DofConstraint20setAngularUpperLimitERK9btVector3 @3807
    _ZN23btGeneric6DofConstraint21get_limit_motor_info2EP22btRotationalLimitMotorRK11btTransformS4_RK9btVector3S7_S7_S7_PN17btTypedConstraint17btConstraintInfo2EiRS5_ii @3808
    _ZN23btGeneric6DofConstraint21testAngularLimitMotorEi @3809
    _ZN23btGeneric6DofConstraint23getRotationalLimitMotorEi @3810
    _ZN23btGeneric6DofConstraint26getTranslationalLimitMotorEv @3811
    _ZN23btGeneric6DofConstraint7setAxisERK9btVector3S2_ @3812
    _ZN23btGeneric6DofConstraint8getInfo1EPN17btTypedConstraint17btConstraintInfo1E @3813
    _ZN23btGeneric6DofConstraint8getInfo2EPN17btTypedConstraint17btConstraintInfo2E @3814
    _ZN23btGeneric6DofConstraint8setLimitEiff @3815
    _ZN23btGeneric6DofConstraint8setParamEifi @3816
    _ZN23btGeneric6DofConstraint9setFramesERK11btTransformS2_ @3817
    _ZN23btGeneric6DofConstraint9updateRHSEf @3818
    _ZN23btGeneric6DofConstraintC1ER11btRigidBodyRK11btTransformb @3819
    _ZN23btGeneric6DofConstraintC1ER11btRigidBodyS1_RK11btTransformS4_b @3820
    _ZN23btGeneric6DofConstraintC2ER11btRigidBodyRK11btTransformb @3821
    _ZN23btGeneric6DofConstraintC2ER11btRigidBodyS1_RK11btTransformS4_b @3822
    _ZN23btGeneric6DofConstraintD0Ev @3823
    _ZN23btGeneric6DofConstraintD1Ev @3824
    _ZN23btGeneric6DofConstraintD2Ev @3825
    _ZN23btGeneric6DofConstraintdlEPv @3826
    _ZN23btGeneric6DofConstraintnwEy @3827
    _ZN23btHashedSimplePairCache10equalsPairERK12btSimplePairii @3828
    _ZN23btHashedSimplePairCache10growTablesEv @3829
    _ZN23btHashedSimplePairCache14removeAllPairsEv @3830
    _ZN23btHashedSimplePairCache15internalAddPairEii @3831
    _ZN23btHashedSimplePairCache16internalFindPairEiii @3832
    _ZN23btHashedSimplePairCache18addOverlappingPairEii @3833
    _ZN23btHashedSimplePairCache21removeOverlappingPairEii @3834
    _ZN23btHashedSimplePairCache23getOverlappingPairArrayEv @3835
    _ZN23btHashedSimplePairCache26getOverlappingPairArrayPtrEv @3836
    _ZN23btHashedSimplePairCache7getHashEjj @3837
    _ZN23btHashedSimplePairCache8findPairEii @3838
    _ZN23btHashedSimplePairCacheC1Ev @3839
    _ZN23btHashedSimplePairCacheC2Ev @3840
    _ZN23btHashedSimplePairCacheD0Ev @3841
    _ZN23btHashedSimplePairCacheD1Ev @3842
    _ZN23btHashedSimplePairCacheD2Ev @3843
    _ZN23btMultiBodyJacobianDataC1Ev @3844
    _ZN23btMultiBodyJacobianDataD1Ev @3845
    _ZN23btMultiBodyLinkCollider6upcastEP17btCollisionObject @3846
    _ZN23btMultiBodyLinkCollider6upcastEPK17btCollisionObject @3847
    _ZN23btPoint2PointConstraint13buildJacobianEv @3848
    _ZN23btPoint2PointConstraint18getInfo1NonVirtualEPN17btTypedConstraint17btConstraintInfo1E @3849
    _ZN23btPoint2PointConstraint18getInfo2NonVirtualEPN17btTypedConstraint17btConstraintInfo2ERK11btTransformS5_ @3850
    _ZN23btPoint2PointConstraint8getInfo1EPN17btTypedConstraint17btConstraintInfo1E @3851
    _ZN23btPoint2PointConstraint8getInfo2EPN17btTypedConstraint17btConstraintInfo2E @3852
    _ZN23btPoint2PointConstraint8setParamEifi @3853
    _ZN23btPoint2PointConstraint9setPivotAERK9btVector3 @3854
    _ZN23btPoint2PointConstraint9setPivotBERK9btVector3 @3855
    _ZN23btPoint2PointConstraint9updateRHSEf @3856
    _ZN23btPoint2PointConstraintC1ER11btRigidBodyRK9btVector3 @3857
    _ZN23btPoint2PointConstraintC1ER11btRigidBodyS1_RK9btVector3S4_ @3858
    _ZN23btPoint2PointConstraintC2ER11btRigidBodyRK9btVector3 @3859
    _ZN23btPoint2PointConstraintC2ER11btRigidBodyS1_RK9btVector3S4_ @3860
    _ZN23btPoint2PointConstraintD0Ev @3861
    _ZN23btPoint2PointConstraintD1Ev @3862
    _ZN23btPoint2PointConstraintdlEPv @3863
    _ZN23btPoint2PointConstraintnwEy @3864
    _ZN23btPolyhedralConvexShape28initializePolyhedralFeaturesEi @3865
    _ZN23btPolyhedralConvexShapeC1Ev @3866
    _ZN23btPolyhedralConvexShapeC2Ev @3867
    _ZN23btPolyhedralConvexShapeD0Ev @3868
    _ZN23btPolyhedralConvexShapeD1Ev @3869
    _ZN23btPolyhedralConvexShapeD2Ev @3870
    _ZN23btPolyhedralConvexShapedlEPv @3871
    _ZN23btRotationalLimitMotor214testLimitValueEf @3872
    _ZN23btRotationalLimitMotor2C1Ev @3873
    _ZN23btSimpleBroadphaseProxy11SetNextFreeEi @3874
    _ZN23btSimpleBroadphaseProxyC1ERK9btVector3S2_iPvii @3875
    _ZN23btSimpleBroadphaseProxyC1Ev @3876
    _ZN23btSingleContactCallback7processEPK17btBroadphaseProxy @3877
    _ZN23btSingleContactCallbackC1EP17btCollisionObjectP16btCollisionWorldRNS2_21ContactResultCallbackE @3878
    _ZN23btSingleContactCallbackD0Ev @3879
    _ZN23btSingleContactCallbackD1Ev @3880
    _ZN23btSoftSingleRayCallback7processEPK17btBroadphaseProxy @3881
    _ZN23btSoftSingleRayCallbackC1ERK9btVector3S2_PK24btSoftRigidDynamicsWorldRN16btCollisionWorld17RayResultCallbackE @3882
    _ZN23btSoftSingleRayCallbackC1ERK9btVector3S2_PK28btSoftMultiBodyDynamicsWorldRN16btCollisionWorld17RayResultCallbackE @3883
    _ZN23btSoftSingleRayCallbackD0Ev @3884
    _ZN23btSoftSingleRayCallbackD1Ev @3885
    _ZN23btStridingMeshInterface10setScalingERK9btVector3 @3886
    _ZN23btStridingMeshInterface23calculateAabbBruteForceER9btVector3S1_ @3887
    _ZN23btStridingMeshInterfaceC2Ev @3888
    _ZN23btStridingMeshInterfaceD0Ev @3889
    _ZN23btStridingMeshInterfaceD1Ev @3890
    _ZN23btStridingMeshInterfaceD2Ev @3891
    _ZN23btStridingMeshInterfacedlEPv @3892
    _ZN24btBroadphaseAabbCallbackC2Ev @3893
    _ZN24btBroadphaseAabbCallbackD2Ev @3894
    _ZN24btCollisionConfigurationC2Ev @3895
    _ZN24btCollisionConfigurationD2Ev @3896
    _ZN24btCollisionObjectWrapperC1EPKS_PK16btCollisionShapePK17btCollisionObjectRK11btTransformii @3897
    _ZN24btCollisionWorldImporter13deleteAllDataEv @3898
    _ZN24btCollisionWorldImporter13duplicateNameEPKc @3899
    _ZN24btCollisionWorldImporter14createBoxShapeERK9btVector3 @3900
    _ZN24btCollisionWorldImporter16createConeShapeXEff @3901
    _ZN24btCollisionWorldImporter16createConeShapeYEff @3902
    _ZN24btCollisionWorldImporter16createConeShapeZEff @3903
    _ZN24btCollisionWorldImporter16createPlaneShapeERK9btVector3f @3904
    _ZN24btCollisionWorldImporter17convertAllObjectsEP24btBulletSerializedArrays @3905
    _ZN24btCollisionWorldImporter17createSphereShapeEf @3906
    _ZN24btCollisionWorldImporter18createOptimizedBvhEv @3907
    _ZN24btCollisionWorldImporter19createCapsuleShapeXEff @3908
    _ZN24btCollisionWorldImporter19createCapsuleShapeYEff @3909
    _ZN24btCollisionWorldImporter19createCapsuleShapeZEff @3910
    _ZN24btCollisionWorldImporter19createCompoundShapeEv @3911
    _ZN24btCollisionWorldImporter19createMeshInterfaceER27btStridingMeshInterfaceData @3912
    _ZN24btCollisionWorldImporter20createCylinderShapeXEff @3913
    _ZN24btCollisionWorldImporter20createCylinderShapeYEff @3914
    _ZN24btCollisionWorldImporter20createCylinderShapeZEff @3915
    _ZN24btCollisionWorldImporter21convertCollisionShapeEP20btCollisionShapeData @3916
    _ZN24btCollisionWorldImporter21createCollisionObjectERK11btTransformP16btCollisionShapePKc @3917
    _ZN24btCollisionWorldImporter21createConvexHullShapeEv @3918
    _ZN24btCollisionWorldImporter21createTriangleInfoMapEv @3919
    _ZN24btCollisionWorldImporter22createMultiSphereShapeEPK9btVector3PKfi @3920
    _ZN24btCollisionWorldImporter23getCollisionShapeByNameEPKc @3921
    _ZN24btCollisionWorldImporter24getCollisionObjectByNameEPKc @3922
    _ZN24btCollisionWorldImporter24getCollisionShapeByIndexEi @3923
    _ZN24btCollisionWorldImporter26createBvhTriangleMeshShapeEP23btStridingMeshInterfaceP14btOptimizedBvh @3924
    _ZN24btCollisionWorldImporter27createTriangleMeshContainerEv @3925
    _ZN24btCollisionWorldImporter28createScaledTrangleMeshShapeEP22btBvhTriangleMeshShapeRK9btVector3 @3926
    _ZN24btCollisionWorldImporter29createConvexTriangleMeshShapeEP23btStridingMeshInterface @3927
    _ZN24btCollisionWorldImporter31createStridingMeshInterfaceDataEP27btStridingMeshInterfaceData @3928
    _ZN24btCollisionWorldImporterC1EP16btCollisionWorld @3929
    _ZN24btCollisionWorldImporterC2EP16btCollisionWorld @3930
    _ZN24btCollisionWorldImporterD0Ev @3931
    _ZN24btCollisionWorldImporterD1Ev @3932
    _ZN24btCollisionWorldImporterD2Ev @3933
    _ZN24btConstraintSolverPoolMt10solveGroupEPP17btCollisionObjectiPP20btPersistentManifoldiPP17btTypedConstraintiRK19btContactSolverInfoP12btIDebugDrawP12btDispatcher @3934
    _ZN24btConstraintSolverPoolMt12ThreadSolverC1Ev @3935
    _ZN24btConstraintSolverPoolMt22getAndLockThreadSolverEv @3936
    _ZN24btConstraintSolverPoolMt4initEPP18btConstraintSolveri @3937
    _ZN24btConstraintSolverPoolMt5resetEv @3938
    _ZN24btConstraintSolverPoolMtC1EPP18btConstraintSolveri @3939
    _ZN24btConstraintSolverPoolMtC1Ei @3940
    _ZN24btConstraintSolverPoolMtC2EPP18btConstraintSolveri @3941
    _ZN24btConstraintSolverPoolMtC2Ei @3942
    _ZN24btConstraintSolverPoolMtD0Ev @3943
    _ZN24btConstraintSolverPoolMtD1Ev @3944
    _ZN24btConstraintSolverPoolMtD2Ev @3945
    _ZN24btConvexTriangleCallback10clearCacheEv @3946
    _ZN24btConvexTriangleCallback15processTriangleEP9btVector3ii @3947
    _ZN24btConvexTriangleCallback16clearWrapperDataEv @3948
    _ZN24btConvexTriangleCallback22setTimeStepAndCountersEfRK16btDispatcherInfoPK24btCollisionObjectWrapperS5_P16btManifoldResult @3949
    _ZN24btConvexTriangleCallbackC1EP12btDispatcherPK24btCollisionObjectWrapperS4_b @3950
    _ZN24btConvexTriangleCallbackC2EP12btDispatcherPK24btCollisionObjectWrapperS4_b @3951
    _ZN24btConvexTriangleCallbackD0Ev @3952
    _ZN24btConvexTriangleCallbackD1Ev @3953
    _ZN24btConvexTriangleCallbackD2Ev @3954
    _ZN24btConvexTriangleCallbackdlEPv @3955
    _ZN24btMultiBodyDynamicsWorld11clearForcesEv @3956
    _ZN24btMultiBodyDynamicsWorld12addMultiBodyEP11btMultiBodyii @3957
    _ZN24btMultiBodyDynamicsWorld12applyGravityEv @3958
    _ZN24btMultiBodyDynamicsWorld14debugDrawWorldEv @3959
    _ZN24btMultiBodyDynamicsWorld15removeMultiBodyEP11btMultiBody @3960
    _ZN24btMultiBodyDynamicsWorld16solveConstraintsER19btContactSolverInfo @3961
    _ZN24btMultiBodyDynamicsWorld17forwardKinematicsEv @3962
    _ZN24btMultiBodyDynamicsWorld19integrateTransformsEf @3963
    _ZN24btMultiBodyDynamicsWorld20clearMultiBodyForcesEv @3964
    _ZN24btMultiBodyDynamicsWorld20serializeMultiBodiesEP12btSerializer @3965
    _ZN24btMultiBodyDynamicsWorld21updateActivationStateEf @3966
    _ZN24btMultiBodyDynamicsWorld22addMultiBodyConstraintEP21btMultiBodyConstraint @3967
    _ZN24btMultiBodyDynamicsWorld22getMultiBodyConstraintEi @3968
    _ZN24btMultiBodyDynamicsWorld25removeMultiBodyConstraintEP21btMultiBodyConstraint @3969
    _ZN24btMultiBodyDynamicsWorld26calculateSimulationIslandsEv @3970
    _ZN24btMultiBodyDynamicsWorld28debugDrawMultiBodyConstraintEP21btMultiBodyConstraint @3971
    _ZN24btMultiBodyDynamicsWorld30clearMultiBodyConstraintForcesEv @3972
    _ZN24btMultiBodyDynamicsWorld9serializeEP12btSerializer @3973
    _ZN24btMultiBodyDynamicsWorldC1EP12btDispatcherP21btBroadphaseInterfaceP27btMultiBodyConstraintSolverP24btCollisionConfiguration @3974
    _ZN24btMultiBodyDynamicsWorldC2EP12btDispatcherP21btBroadphaseInterfaceP27btMultiBodyConstraintSolverP24btCollisionConfiguration @3975
    _ZN24btMultiBodyDynamicsWorldD0Ev @3976
    _ZN24btMultiBodyDynamicsWorldD1Ev @3977
    _ZN24btMultiBodyDynamicsWorldD2Ev @3978
    _ZN24btPairCachingGhostObject23getOverlappingPairCacheEv @3979
    _ZN24btPairCachingGhostObject28addOverlappingObjectInternalEP17btBroadphaseProxyS1_ @3980
    _ZN24btPairCachingGhostObject31removeOverlappingObjectInternalEP17btBroadphaseProxyP12btDispatcherS1_ @3981
    _ZN24btPairCachingGhostObjectC1Ev @3982
    _ZN24btPairCachingGhostObjectC2Ev @3983
    _ZN24btPairCachingGhostObjectD0Ev @3984
    _ZN24btPairCachingGhostObjectD1Ev @3985
    _ZN24btPairCachingGhostObjectD2Ev @3986
    _ZN24btPerturbedContactResult15addContactPointERK9btVector3S2_f @3987
    _ZN24btPerturbedContactResultC1EP16btManifoldResultRK11btTransformS4_S4_bP12btIDebugDraw @3988
    _ZN24btPerturbedContactResultD0Ev @3989
    _ZN24btPerturbedContactResultD1Ev @3990
    _ZN24btScaledTriangleCallback15processTriangleEP9btVector3ii @3991
    _ZN24btScaledTriangleCallbackC1EP18btTriangleCallbackRK9btVector3 @3992
    _ZN24btScaledTriangleCallbackD0Ev @3993
    _ZN24btScaledTriangleCallbackD1Ev @3994
    _ZN24btSoftBodyCollisionShape15setLocalScalingERK9btVector3 @3995
    _ZN24btSoftBodyCollisionShapeC1EP10btSoftBody @3996
    _ZN24btSoftBodyCollisionShapeD0Ev @3997
    _ZN24btSoftBodyCollisionShapeD1Ev @3998
    _ZN24btSoftRigidDynamicsWorld11addSoftBodyEP10btSoftBodyii @3999
    _ZN24btSoftRigidDynamicsWorld13rayTestSingleERK11btTransformS2_P17btCollisionObjectPK16btCollisionShapeS2_RN16btCollisionWorld17RayResultCallbackE @4000
    _ZN24btSoftRigidDynamicsWorld14debugDrawWorldEv @4001
    _ZN24btSoftRigidDynamicsWorld14removeSoftBodyEP10btSoftBody @4002
    _ZN24btSoftRigidDynamicsWorld16getSoftBodyArrayEv @4003
    _ZN24btSoftRigidDynamicsWorld19serializeSoftBodiesEP12btSerializer @4004
    _ZN24btSoftRigidDynamicsWorld21removeCollisionObjectEP17btCollisionObject @4005
    _ZN24btSoftRigidDynamicsWorld25predictUnconstraintMotionEf @4006
    _ZN24btSoftRigidDynamicsWorld26solveSoftBodiesConstraintsEf @4007
    _ZN24btSoftRigidDynamicsWorld28internalSingleStepSimulationEf @4008
    _ZN24btSoftRigidDynamicsWorld9serializeEP12btSerializer @4009
    _ZN24btSoftRigidDynamicsWorldC1EP12btDispatcherP21btBroadphaseInterfaceP18btConstraintSolverP24btCollisionConfigurationP16btSoftBodySolver @4010
    _ZN24btSoftRigidDynamicsWorldC2EP12btDispatcherP21btBroadphaseInterfaceP18btConstraintSolverP24btCollisionConfigurationP16btSoftBodySolver @4011
    _ZN24btSoftRigidDynamicsWorldD0Ev @4012
    _ZN24btSoftRigidDynamicsWorldD1Ev @4013
    _ZN24btSoftRigidDynamicsWorldD2Ev @4014
    _ZN24btSolve2LinearConstraint30resolveBilateralPairConstraintEP11btRigidBodyS1_RK11btMatrix3x3S4_RK9btVector3fS7_S7_S7_S7_fS7_S7_S7_fS7_S7_S7_fS7_RfS8_ @4015
    _ZN24btSolve2LinearConstraint31resolveUnilateralPairConstraintEP11btRigidBodyS1_RK11btMatrix3x3S4_RK9btVector3fS7_S7_S7_S7_fS7_S7_S7_fS7_S7_S7_fS7_RfS8_ @4016
    _ZN25GIM_TRIANGLE_CONTACT_DATA12merge_pointsERK9btVector4fPK9btVector3j @4017
    _ZN25GIM_TRIANGLE_CONTACT_DATA19mergepoints_genericI22DISTANCE_PLANE_3D_FUNC9btVector4EEvRKT0_fPK9btVector3jT_ @4018
    _ZN25btConvexTriangleMeshShape15setLocalScalingERK9btVector3 @4019
    _ZN25btConvexTriangleMeshShape16getMeshInterfaceEv @4020
    _ZN25btConvexTriangleMeshShapeC1EP23btStridingMeshInterfaceb @4021
    _ZN25btConvexTriangleMeshShapeC2EP23btStridingMeshInterfaceb @4022
    _ZN25btConvexTriangleMeshShapeD0Ev @4023
    _ZN25btConvexTriangleMeshShapeD1Ev @4024
    _ZN25btConvexTriangleMeshShapedlEPv @4025
    _ZN25btDefaultVehicleRaycaster7castRayERK9btVector3S2_RN18btVehicleRaycaster24btVehicleRaycasterResultE @4026
    _ZN25btDefaultVehicleRaycasterC1EP15btDynamicsWorld @4027
    _ZN25btDefaultVehicleRaycasterD0Ev @4028
    _ZN25btDefaultVehicleRaycasterD1Ev @4029
    _ZN25btDiscreteDynamicsWorldMt16solveConstraintsER19btContactSolverInfo @4030
    _ZN25btDiscreteDynamicsWorldMt19integrateTransformsEf @4031
    _ZN25btDiscreteDynamicsWorldMt24createPredictiveContactsEf @4032
    _ZN25btDiscreteDynamicsWorldMt25predictUnconstraintMotionEf @4033
    _ZN25btDiscreteDynamicsWorldMt26UpdaterIntegrateTransformsC1Ev @4034
    _ZN25btDiscreteDynamicsWorldMt26UpdaterIntegrateTransformsD0Ev @4035
    _ZN25btDiscreteDynamicsWorldMt26UpdaterIntegrateTransformsD1Ev @4036
    _ZN25btDiscreteDynamicsWorldMt31UpdaterCreatePredictiveContactsC1Ev @4037
    _ZN25btDiscreteDynamicsWorldMt31UpdaterCreatePredictiveContactsD0Ev @4038
    _ZN25btDiscreteDynamicsWorldMt31UpdaterCreatePredictiveContactsD1Ev @4039
    _ZN25btDiscreteDynamicsWorldMtC1EP12btDispatcherP21btBroadphaseInterfaceP24btConstraintSolverPoolMtP24btCollisionConfiguration @4040
    _ZN25btDiscreteDynamicsWorldMtC2EP12btDispatcherP21btBroadphaseInterfaceP24btConstraintSolverPoolMtP24btCollisionConfiguration @4041
    _ZN25btDiscreteDynamicsWorldMtD0Ev @4042
    _ZN25btDiscreteDynamicsWorldMtD1Ev @4043
    _ZN25btDiscreteDynamicsWorldMtD2Ev @4044
    _ZN25btDiscreteDynamicsWorldMtdlEPv @4045
    _ZN25btGImpactTriangleCallback15processTriangleEP9btVector3ii @4046
    _ZN25btGImpactTriangleCallbackC1Ev @4047
    _ZN25btGImpactTriangleCallbackD0Ev @4048
    _ZN25btGImpactTriangleCallbackD1Ev @4049
    _ZN25btHeightfieldTerrainShape10initializeEiiPKvfffi14PHY_ScalarTypeb @4050
    _ZN25btHeightfieldTerrainShape15setLocalScalingERK9btVector3 @4051
    _ZN25btHeightfieldTerrainShapeC1EiiPKvfffi14PHY_ScalarTypeb @4052
    _ZN25btHeightfieldTerrainShapeC1EiiPKvfibb @4053
    _ZN25btHeightfieldTerrainShapeC2EiiPKvfffi14PHY_ScalarTypeb @4054
    _ZN25btHeightfieldTerrainShapeC2EiiPKvfibb @4055
    _ZN25btHeightfieldTerrainShapeD0Ev @4056
    _ZN25btHeightfieldTerrainShapeD1Ev @4057
    _ZN25btHeightfieldTerrainShapeD2Ev @4058
    _ZN25btHeightfieldTerrainShapedlEPv @4059
    _ZN25btMultiBodyGearConstraint11setFrameInBERK11btMatrix3x3 @4060
    _ZN25btMultiBodyGearConstraint11setPivotInBERK9btVector3 @4061
    _ZN25btMultiBodyGearConstraint12setGearRatioEf @4062
    _ZN25btMultiBodyGearConstraint14setGearAuxLinkEi @4063
    _ZN25btMultiBodyGearConstraint16finalizeMultiDofEv @4064
    _ZN25btMultiBodyGearConstraint20createConstraintRowsER20btAlignedObjectArrayI27btMultiBodySolverConstraintER23btMultiBodyJacobianDataRK19btContactSolverInfo @4065
    _ZN25btMultiBodyGearConstraint25setRelativePositionTargetEf @4066
    _ZN25btMultiBodyGearConstraint6setErpEf @4067
    _ZN25btMultiBodyGearConstraint9debugDrawEP12btIDebugDraw @4068
    _ZN25btMultiBodyGearConstraintC1EP11btMultiBodyiS1_iRK9btVector3S4_RK11btMatrix3x3S7_ @4069
    _ZN25btMultiBodyGearConstraintC2EP11btMultiBodyiS1_iRK9btVector3S4_RK11btMatrix3x3S7_ @4070
    _ZN25btMultiBodyGearConstraintD0Ev @4071
    _ZN25btMultiBodyGearConstraintD1Ev @4072
    _ZN25btMultiBodyGearConstraintD2Ev @4073
    _ZN25btOverlappingPairCallbackC2Ev @4074
    _ZN25btOverlappingPairCallbackD2Ev @4075
    _ZN25btSimulationIslandManager10findUnionsEP12btDispatcherP16btCollisionWorld @4076
    _ZN25btSimulationIslandManager12buildIslandsEP12btDispatcherP16btCollisionWorld @4077
    _ZN25btSimulationIslandManager12getUnionFindEv @4078
    _ZN25btSimulationIslandManager13initUnionFindEi @4079
    _ZN25btSimulationIslandManager14IslandCallbackC2Ev @4080
    _ZN25btSimulationIslandManager14IslandCallbackD2Ev @4081
    _ZN25btSimulationIslandManager15getSplitIslandsEv @4082
    _ZN25btSimulationIslandManager21updateActivationStateEP16btCollisionWorldP12btDispatcher @4083
    _ZN25btSimulationIslandManager22buildAndProcessIslandsEP12btDispatcherP16btCollisionWorldPNS_14IslandCallbackE @4084
    _ZN25btSimulationIslandManager26storeIslandActivationStateEP16btCollisionWorld @4085
    _ZN25btSimulationIslandManagerC1Ev @4086
    _ZN25btSimulationIslandManagerC2Ev @4087
    _ZN25btSimulationIslandManagerD0Ev @4088
    _ZN25btSimulationIslandManagerD1Ev @4089
    _ZN25btSimulationIslandManagerD2Ev @4090
    _ZN25btSubSimplexClosestResult25setBarycentricCoordinatesEffff @4091
    _ZN25btSubSimplexClosestResult5resetEv @4092
    _ZN25btSubSimplexClosestResult7isValidEv @4093
    _ZN25btSubSimplexClosestResultC1Ev @4094
    _ZN25btTaskSchedulerSequential11parallelForEiiiRK18btIParallelForBody @4095
    _ZN25btTaskSchedulerSequential13setNumThreadsEi @4096
    _ZN25btTaskSchedulerSequentialC1Ev @4097
    _ZN25btTaskSchedulerSequentialD0Ev @4098
    _ZN25btTaskSchedulerSequentialD1Ev @4099
    _ZN25btTranslationalLimitMotor14testLimitValueEif @4100
    _ZN25btTranslationalLimitMotor15solveLinearAxisEffR11btRigidBodyRK9btVector3S1_S4_iS4_S4_ @4101
    _ZN25btTranslationalLimitMotorC1Ev @4102
    _ZN25btTriangleRaycastCallback15processTriangleEP9btVector3ii @4103
    _ZN25btTriangleRaycastCallbackC1ERK9btVector3S2_j @4104
    _ZN25btTriangleRaycastCallbackC2ERK9btVector3S2_j @4105
    _ZN25btTriangleRaycastCallbackD2Ev @4106
    _ZN26BT_BOX_BOX_TRANSFORM_CACHE19calc_from_homogenicERK11btTransformS2_ @4107
    _ZN26BT_BOX_BOX_TRANSFORM_CACHE20calc_absolute_matrixEv @4108
    _ZN26BT_BOX_BOX_TRANSFORM_CACHEC1Ev @4109
    _ZN26CollisionDispatcherUpdaterC1Ev @4110
    _ZN26CollisionDispatcherUpdaterD0Ev @4111
    _ZN26CollisionDispatcherUpdaterD1Ev @4112
    _ZN26GIM_RSORT_TOKEN_COMPARATORclERK15GIM_RSORT_TOKENS2_ @4113
    _ZN26LocalSupportVertexCallback21GetSupportVertexLocalEv @4114
    _ZN26LocalSupportVertexCallback28internalProcessTriangleIndexEP9btVector3ii @4115
    _ZN26LocalSupportVertexCallbackC1ERK9btVector3 @4116
    _ZN26LocalSupportVertexCallbackD0Ev @4117
    _ZN26LocalSupportVertexCallbackD1Ev @4118
    _ZN26UpdaterUnconstrainedMotionC1Ev @4119
    _ZN26UpdaterUnconstrainedMotionD0Ev @4120
    _ZN26UpdaterUnconstrainedMotionD1Ev @4121
    _ZN26btBoxBoxCollisionAlgorithm10CreateFunc24CreateCollisionAlgorithmER36btCollisionAlgorithmConstructionInfoPK24btCollisionObjectWrapperS5_ @4122
    _ZN26btBoxBoxCollisionAlgorithm10CreateFuncC1Ev @4123
    _ZN26btBoxBoxCollisionAlgorithm10CreateFuncD0Ev @4124
    _ZN26btBoxBoxCollisionAlgorithm10CreateFuncD1Ev @4125
    _ZN26btBoxBoxCollisionAlgorithm16processCollisionEPK24btCollisionObjectWrapperS2_RK16btDispatcherInfoP16btManifoldResult @4126
    _ZN26btBoxBoxCollisionAlgorithm21calculateTimeOfImpactEP17btCollisionObjectS1_RK16btDispatcherInfoP16btManifoldResult @4127
    _ZN26btBoxBoxCollisionAlgorithm22getAllContactManifoldsER20btAlignedObjectArrayIP20btPersistentManifoldE @4128
    _ZN26btBoxBoxCollisionAlgorithmC1EP20btPersistentManifoldRK36btCollisionAlgorithmConstructionInfoPK24btCollisionObjectWrapperS7_ @4129
    _ZN26btBoxBoxCollisionAlgorithmC2EP20btPersistentManifoldRK36btCollisionAlgorithmConstructionInfoPK24btCollisionObjectWrapperS7_ @4130
    _ZN26btBoxBoxCollisionAlgorithmD0Ev @4131
    _ZN26btBoxBoxCollisionAlgorithmD1Ev @4132
    _ZN26btBoxBoxCollisionAlgorithmD2Ev @4133
    _ZN26btMultiBodyFixedConstraint11setFrameInBERK11btMatrix3x3 @4134
    _ZN26btMultiBodyFixedConstraint11setPivotInBERK9btVector3 @4135
    _ZN26btMultiBodyFixedConstraint16finalizeMultiDofEv @4136
    _ZN26btMultiBodyFixedConstraint20createConstraintRowsER20btAlignedObjectArrayI27btMultiBodySolverConstraintER23btMultiBodyJacobianDataRK19btContactSolverInfo @4137
    _ZN26btMultiBodyFixedConstraint9debugDrawEP12btIDebugDraw @4138
    _ZN26btMultiBodyFixedConstraintC1EP11btMultiBodyiP11btRigidBodyRK9btVector3S6_RK11btMatrix3x3S9_ @4139
    _ZN26btMultiBodyFixedConstraintC1EP11btMultiBodyiS1_iRK9btVector3S4_RK11btMatrix3x3S7_ @4140
    _ZN26btMultiBodyFixedConstraintC2EP11btMultiBodyiP11btRigidBodyRK9btVector3S6_RK11btMatrix3x3S9_ @4141
    _ZN26btMultiBodyFixedConstraintC2EP11btMultiBodyiS1_iRK9btVector3S4_RK11btMatrix3x3S7_ @4142
    _ZN26btMultiBodyFixedConstraintD0Ev @4143
    _ZN26btMultiBodyFixedConstraintD1Ev @4144
    _ZN26btMultiBodyFixedConstraintD2Ev @4145
    _ZN26btSoftBodyTriangleCallback10clearCacheEv @4146
    _ZN26btSoftBodyTriangleCallback15processTriangleEP9btVector3ii @4147
    _ZN26btSoftBodyTriangleCallback22setTimeStepAndCountersEfPK24btCollisionObjectWrapperRK16btDispatcherInfoP16btManifoldResult @4148
    _ZN26btSoftBodyTriangleCallbackC1EP12btDispatcherPK24btCollisionObjectWrapperS4_b @4149
    _ZN26btSoftBodyTriangleCallbackC2EP12btDispatcherPK24btCollisionObjectWrapperS4_b @4150
    _ZN26btSoftBodyTriangleCallbackD0Ev @4151
    _ZN26btSoftBodyTriangleCallbackD1Ev @4152
    _ZN26btSoftBodyTriangleCallbackD2Ev @4153
    _ZN26btTranslationalLimitMotor214testLimitValueEif @4154
    _ZN26btTranslationalLimitMotor2C1Ev @4155
    _ZN26btTriangleIndexVertexArray14addIndexedMeshERK13btIndexedMesh14PHY_ScalarType @4156
    _ZN26btTriangleIndexVertexArray16unLockVertexBaseEi @4157
    _ZN26btTriangleIndexVertexArray18preallocateIndicesEi @4158
    _ZN26btTriangleIndexVertexArray19preallocateVerticesEi @4159
    _ZN26btTriangleIndexVertexArray24getLockedVertexIndexBaseEPPhRiR14PHY_ScalarTypeS2_S1_S2_S2_S4_i @4160
    _ZN26btTriangleIndexVertexArrayC1EiPiiiPfi @4161
    _ZN26btTriangleIndexVertexArrayC1Ev @4162
    _ZN26btTriangleIndexVertexArrayC2EiPiiiPfi @4163
    _ZN26btTriangleIndexVertexArrayC2Ev @4164
    _ZN26btTriangleIndexVertexArrayD0Ev @4165
    _ZN26btTriangleIndexVertexArrayD1Ev @4166
    _ZN26btTriangleIndexVertexArrayD2Ev @4167
    _ZN26btTriangleIndexVertexArraydlEPv @4168
    _ZN26btTriangleIndexVertexArraynwEy @4169
    _ZN27InplaceSolverIslandCallback13processIslandEPP17btCollisionObjectiPP20btPersistentManifoldii @4170
    _ZN27InplaceSolverIslandCallback18processConstraintsEv @4171
    _ZN27InplaceSolverIslandCallback5setupEP19btContactSolverInfoPP17btTypedConstraintiP12btIDebugDraw @4172
    _ZN27InplaceSolverIslandCallbackC1EP18btConstraintSolverP12btStackAllocP12btDispatcher @4173
    _ZN27InplaceSolverIslandCallbackD0Ev @4174
    _ZN27InplaceSolverIslandCallbackD1Ev @4175
    _ZN27btContinuousConvexCollision16calcTimeOfImpactERK11btTransformS2_S2_S2_RN12btConvexCast10CastResultE @4176
    _ZN27btContinuousConvexCollision20computeClosestPointsERK11btTransformS2_R16btPointCollector @4177
    _ZN27btContinuousConvexCollisionC1EPK13btConvexShapePK18btStaticPlaneShape @4178
    _ZN27btContinuousConvexCollisionC1EPK13btConvexShapeS2_P22btVoronoiSimplexSolverP30btConvexPenetrationDepthSolver @4179
    _ZN27btContinuousConvexCollisionC2EPK13btConvexShapePK18btStaticPlaneShape @4180
    _ZN27btContinuousConvexCollisionC2EPK13btConvexShapeS2_P22btVoronoiSimplexSolverP30btConvexPenetrationDepthSolver @4181
    _ZN27btContinuousConvexCollisionD0Ev @4182
    _ZN27btContinuousConvexCollisionD1Ev @4183
    _ZN27btConvex2dConvex2dAlgorithm10CreateFunc24CreateCollisionAlgorithmER36btCollisionAlgorithmConstructionInfoPK24btCollisionObjectWrapperS5_ @4184
    _ZN27btConvex2dConvex2dAlgorithm10CreateFuncC1EP22btVoronoiSimplexSolverP30btConvexPenetrationDepthSolver @4185
    _ZN27btConvex2dConvex2dAlgorithm10CreateFuncC2EP22btVoronoiSimplexSolverP30btConvexPenetrationDepthSolver @4186
    _ZN27btConvex2dConvex2dAlgorithm10CreateFuncD0Ev @4187
    _ZN27btConvex2dConvex2dAlgorithm10CreateFuncD1Ev @4188
    _ZN27btConvex2dConvex2dAlgorithm10CreateFuncD2Ev @4189
    _ZN27btConvex2dConvex2dAlgorithm16processCollisionEPK24btCollisionObjectWrapperS2_RK16btDispatcherInfoP16btManifoldResult @4190
    _ZN27btConvex2dConvex2dAlgorithm19setLowLevelOfDetailEb @4191
    _ZN27btConvex2dConvex2dAlgorithm21calculateTimeOfImpactEP17btCollisionObjectS1_RK16btDispatcherInfoP16btManifoldResult @4192
    _ZN27btConvex2dConvex2dAlgorithm22getAllContactManifoldsER20btAlignedObjectArrayIP20btPersistentManifoldE @4193
    _ZN27btConvex2dConvex2dAlgorithmC1EP20btPersistentManifoldRK36btCollisionAlgorithmConstructionInfoPK24btCollisionObjectWrapperS7_P22btVoronoiSimplexSolverP30btConvexPenetrationDepthSolverii @4194
    _ZN27btConvex2dConvex2dAlgorithmC2EP20btPersistentManifoldRK36btCollisionAlgorithmConstructionInfoPK24btCollisionObjectWrapperS7_P22btVoronoiSimplexSolverP30btConvexPenetrationDepthSolverii @4195
    _ZN27btConvex2dConvex2dAlgorithmD0Ev @4196
    _ZN27btConvex2dConvex2dAlgorithmD1Ev @4197
    _ZN27btConvex2dConvex2dAlgorithmD2Ev @4198
    _ZN27btGImpactCollisionAlgorithm10CreateFunc24CreateCollisionAlgorithmER36btCollisionAlgorithmConstructionInfoPK24btCollisionObjectWrapperS5_ @4199
    _ZN27btGImpactCollisionAlgorithm10CreateFuncC1Ev @4200
    _ZN27btGImpactCollisionAlgorithm10CreateFuncD0Ev @4201
    _ZN27btGImpactCollisionAlgorithm10CreateFuncD1Ev @4202
    _ZN27btGImpactCollisionAlgorithm10clearCacheEv @4203
    _ZN27btGImpactCollisionAlgorithm12newAlgorithmEPK24btCollisionObjectWrapperS2_ @4204
    _ZN27btGImpactCollisionAlgorithm13checkManifoldEPK24btCollisionObjectWrapperS2_ @4205
    _ZN27btGImpactCollisionAlgorithm15addContactPointEPK24btCollisionObjectWrapperS2_RK9btVector3S5_f @4206
    _ZN27btGImpactCollisionAlgorithm15getLastManifoldEv @4207
    _ZN27btGImpactCollisionAlgorithm16gimpact_vs_shapeEPK24btCollisionObjectWrapperS2_PK23btGImpactShapeInterfacePK16btCollisionShapeb @4208
    _ZN27btGImpactCollisionAlgorithm16processCollisionEPK24btCollisionObjectWrapperS2_RK16btDispatcherInfoP16btManifoldResult @4209
    _ZN27btGImpactCollisionAlgorithm17registerAlgorithmEP21btCollisionDispatcher @4210
    _ZN27btGImpactCollisionAlgorithm18gimpact_vs_concaveEPK24btCollisionObjectWrapperS2_PK23btGImpactShapeInterfacePK14btConcaveShapeb @4211
    _ZN27btGImpactCollisionAlgorithm18gimpact_vs_gimpactEPK24btCollisionObjectWrapperS2_PK23btGImpactShapeInterfaceS5_ @4212
    _ZN27btGImpactCollisionAlgorithm18newContactManifoldEPK17btCollisionObjectS2_ @4213
    _ZN27btGImpactCollisionAlgorithm20checkConvexAlgorithmEPK24btCollisionObjectWrapperS2_ @4214
    _ZN27btGImpactCollisionAlgorithm20internalGetResultOutEv @4215
    _ZN27btGImpactCollisionAlgorithm21calculateTimeOfImpactEP17btCollisionObjectS1_RK16btDispatcherInfoP16btManifoldResult @4216
    _ZN27btGImpactCollisionAlgorithm21collide_gjk_trianglesEPK24btCollisionObjectWrapperS2_PK22btGImpactMeshShapePartS5_PKii @4217
    _ZN27btGImpactCollisionAlgorithm21collide_sat_trianglesEPK24btCollisionObjectWrapperS2_PK22btGImpactMeshShapePartS5_PKii @4218
    _ZN27btGImpactCollisionAlgorithm22destroyConvexAlgorithmEv @4219
    _ZN27btGImpactCollisionAlgorithm22getAllContactManifoldsER20btAlignedObjectArrayIP20btPersistentManifoldE @4220
    _ZN27btGImpactCollisionAlgorithm23destroyContactManifoldsEv @4221
    _ZN27btGImpactCollisionAlgorithm24gimpact_vs_compoundshapeEPK24btCollisionObjectWrapperS2_PK23btGImpactShapeInterfacePK15btCompoundShapeb @4222
    _ZN27btGImpactCollisionAlgorithm24shape_vs_shape_collisionEPK24btCollisionObjectWrapperS2_PK16btCollisionShapeS5_ @4223
    _ZN27btGImpactCollisionAlgorithm26convex_vs_convex_collisionEPK24btCollisionObjectWrapperS2_PK16btCollisionShapeS5_ @4224
    _ZN27btGImpactCollisionAlgorithm27gimpact_vs_shape_find_pairsERK11btTransformS2_PK23btGImpactShapeInterfacePK16btCollisionShapeR20btAlignedObjectArrayIiE @4225
    _ZN27btGImpactCollisionAlgorithm29gimpact_vs_gimpact_find_pairsERK11btTransformS2_PK23btGImpactShapeInterfaceS5_R9btPairSet @4226
    _ZN27btGImpactCollisionAlgorithm37gimpacttrimeshpart_vs_plane_collisionEPK24btCollisionObjectWrapperS2_PK22btGImpactMeshShapePartPK18btStaticPlaneShapeb @4227
    _ZN27btGImpactCollisionAlgorithm8setFace0Ei @4228
    _ZN27btGImpactCollisionAlgorithm8setFace1Ei @4229
    _ZN27btGImpactCollisionAlgorithm8setPart0Ei @4230
    _ZN27btGImpactCollisionAlgorithm8setPart1Ei @4231
    _ZN27btGImpactCollisionAlgorithmC1ERK36btCollisionAlgorithmConstructionInfoPK24btCollisionObjectWrapperS5_ @4232
    _ZN27btGImpactCollisionAlgorithmC2ERK36btCollisionAlgorithmConstructionInfoPK24btCollisionObjectWrapperS5_ @4233
    _ZN27btGImpactCollisionAlgorithmD0Ev @4234
    _ZN27btGImpactCollisionAlgorithmD1Ev @4235
    _ZN27btGImpactCollisionAlgorithmD2Ev @4236
    _ZN27btMultiBodyConstraintSolver10solveGroupEPP17btCollisionObjectiPP20btPersistentManifoldiPP17btTypedConstraintiRK19btContactSolverInfoP12btIDebugDrawP12btDispatcher @4237
    _ZN27btMultiBodyConstraintSolver13applyDeltaVeeEPffii @4238
    _ZN27btMultiBodyConstraintSolver15convertContactsEPP20btPersistentManifoldiRK19btContactSolverInfo @4239
    _ZN27btMultiBodyConstraintSolver19solveMultiBodyGroupEPP17btCollisionObjectiPP20btPersistentManifoldiPP17btTypedConstraintiPP21btMultiBodyConstraintiRK19btContactSolverInfoP12btIDebugDrawP12btDispatcher @4240
    _ZN27btMultiBodyConstraintSolver20solveSingleIterationEiPP17btCollisionObjectiPP20btPersistentManifoldiPP17btTypedConstraintiRK19btContactSolverInfoP12btIDebugDraw @4241
    _ZN27btMultiBodyConstraintSolver23convertMultiBodyContactEP20btPersistentManifoldRK19btContactSolverInfo @4242
    _ZN27btMultiBodyConstraintSolver28solveGroupCacheFriendlySetupEPP17btCollisionObjectiPP20btPersistentManifoldiPP17btTypedConstraintiRK19btContactSolverInfoP12btIDebugDraw @4243
    _ZN27btMultiBodyConstraintSolver29solveGroupCacheFriendlyFinishEPP17btCollisionObjectiRK19btContactSolverInfo @4244
    _ZN27btMultiBodyConstraintSolver30addMultiBodyFrictionConstraintERK9btVector3P20btPersistentManifoldiR15btManifoldPointP17btCollisionObjectS8_fRK19btContactSolverInfoff @4245
    _ZN27btMultiBodyConstraintSolver30writeBackSolverBodyToMultiBodyER27btMultiBodySolverConstraintf @4246
    _ZN27btMultiBodyConstraintSolver31setupMultiBodyContactConstraintER27btMultiBodySolverConstraintRK9btVector3R15btManifoldPointRK19btContactSolverInfoRfbff @4247
    _ZN27btMultiBodyConstraintSolver33resolveSingleConstraintRowGenericERK27btMultiBodySolverConstraint @4248
    _ZN27btMultiBodyConstraintSolver39addMultiBodyTorsionalFrictionConstraintERK9btVector3P20btPersistentManifoldiR15btManifoldPointfP17btCollisionObjectS8_fRK19btContactSolverInfoff @4249
    _ZN27btMultiBodyConstraintSolver41setupMultiBodyTorsionalFrictionConstraintER27btMultiBodySolverConstraintRK9btVector3R15btManifoldPointfRK19btContactSolverInfoRfbff @4250
    _ZN27btMultiBodyConstraintSolverD0Ev @4251
    _ZN27btMultiBodyConstraintSolverD1Ev @4252
    _ZN27btMultiBodyConstraintSolverdlEPv @4253
    _ZN27btMultiBodySliderConstraint11setFrameInBERK11btMatrix3x3 @4254
    _ZN27btMultiBodySliderConstraint11setPivotInBERK9btVector3 @4255
    _ZN27btMultiBodySliderConstraint16finalizeMultiDofEv @4256
    _ZN27btMultiBodySliderConstraint20createConstraintRowsER20btAlignedObjectArrayI27btMultiBodySolverConstraintER23btMultiBodyJacobianDataRK19btContactSolverInfo @4257
    _ZN27btMultiBodySliderConstraint9debugDrawEP12btIDebugDraw @4258
    _ZN27btMultiBodySliderConstraintC1EP11btMultiBodyiP11btRigidBodyRK9btVector3S6_RK11btMatrix3x3S9_S6_ @4259
    _ZN27btMultiBodySliderConstraintC1EP11btMultiBodyiS1_iRK9btVector3S4_RK11btMatrix3x3S7_S4_ @4260
    _ZN27btMultiBodySliderConstraintC2EP11btMultiBodyiP11btRigidBodyRK9btVector3S6_RK11btMatrix3x3S9_S6_ @4261
    _ZN27btMultiBodySliderConstraintC2EP11btMultiBodyiS1_iRK9btVector3S4_RK11btMatrix3x3S7_S4_ @4262
    _ZN27btMultiBodySliderConstraintD0Ev @4263
    _ZN27btMultiBodySliderConstraintD1Ev @4264
    _ZN27btMultiBodySliderConstraintD2Ev @4265
    _ZN27btMultiBodySolverConstraintC1Ev @4266
    _ZN27btMultiBodySolverConstraintnwEyPv @4267
    _ZN27btPolyhedralContactClipping18findSeparatingAxisERK18btConvexPolyhedronS2_RK11btTransformS5_R9btVector3RN36btDiscreteCollisionDetectorInterface6ResultE @4268
    _ZN27btPolyhedralContactClipping19clipFaceAgainstHullERK9btVector3RK18btConvexPolyhedronRK11btTransformR20btAlignedObjectArrayIS0_ESB_ffRN36btDiscreteCollisionDetectorInterface6ResultE @4269
    _ZN27btPolyhedralContactClipping19clipHullAgainstHullERK9btVector3RK18btConvexPolyhedronS5_RK11btTransformS8_ffR20btAlignedObjectArrayIS0_ESB_RN36btDiscreteCollisionDetectorInterface6ResultE @4270
    _ZN27btPolyhedralContactClipping8clipFaceERK20btAlignedObjectArrayI9btVector3ERS2_RKS1_f @4271
    _ZN27btSimulationIslandManagerMt12buildIslandsEP12btDispatcherP16btCollisionWorld @4272
    _ZN27btSimulationIslandManagerMt12mergeIslandsEv @4273
    _ZN27btSimulationIslandManagerMt14IslandCallbackC2Ev @4274
    _ZN27btSimulationIslandManagerMt14IslandCallbackD2Ev @4275
    _ZN27btSimulationIslandManagerMt14allocateIslandEii @4276
    _ZN27btSimulationIslandManagerMt15initIslandPoolsEv @4277
    _ZN27btSimulationIslandManagerMt18addBodiesToIslandsEP16btCollisionWorld @4278
    _ZN27btSimulationIslandManagerMt20serialIslandDispatchEP20btAlignedObjectArrayIPNS_6IslandEEPNS_14IslandCallbackE @4279
    _ZN27btSimulationIslandManagerMt21addManifoldsToIslandsEP12btDispatcher @4280
    _ZN27btSimulationIslandManagerMt22buildAndProcessIslandsEP12btDispatcherP16btCollisionWorldR20btAlignedObjectArrayIP17btTypedConstraintEPNS_14IslandCallbackE @4281
    _ZN27btSimulationIslandManagerMt22parallelIslandDispatchEP20btAlignedObjectArrayIPNS_6IslandEEPNS_14IslandCallbackE @4282
    _ZN27btSimulationIslandManagerMt23addConstraintsToIslandsER20btAlignedObjectArrayIP17btTypedConstraintE @4283
    _ZN27btSimulationIslandManagerMt25setMinimumSolverBatchSizeEi @4284
    _ZN27btSimulationIslandManagerMt6Island6appendERKS0_ @4285
    _ZN27btSimulationIslandManagerMt6IslandC1Ev @4286
    _ZN27btSimulationIslandManagerMt6IslandD1Ev @4287
    _ZN27btSimulationIslandManagerMt9getIslandEi @4288
    _ZN27btSimulationIslandManagerMtC1Ev @4289
    _ZN27btSimulationIslandManagerMtC2Ev @4290
    _ZN27btSimulationIslandManagerMtD0Ev @4291
    _ZN27btSimulationIslandManagerMtD1Ev @4292
    _ZN27btSimulationIslandManagerMtD2Ev @4293
    _ZN27btSoftClusterCollisionShape9setMarginEf @4294
    _ZN27btSoftClusterCollisionShapeC1EPKN10btSoftBody7ClusterE @4295
    _ZN27btSoftClusterCollisionShapeD0Ev @4296
    _ZN27btSoftClusterCollisionShapeD1Ev @4297
    _ZN27btWheelInfoConstructionInfoC1Ev @4298
    _ZN28GIM_QUANTIZED_BVH_NODE_ARRAYC1Ev @4299
    _ZN28GIM_QUANTIZED_BVH_NODE_ARRAYD1Ev @4300
    _ZN28btCompoundCollisionAlgorithm10CreateFunc24CreateCollisionAlgorithmER36btCollisionAlgorithmConstructionInfoPK24btCollisionObjectWrapperS5_ @4301
    _ZN28btCompoundCollisionAlgorithm10CreateFuncC1Ev @4302
    _ZN28btCompoundCollisionAlgorithm10CreateFuncD0Ev @4303
    _ZN28btCompoundCollisionAlgorithm10CreateFuncD1Ev @4304
    _ZN28btCompoundCollisionAlgorithm16processCollisionEPK24btCollisionObjectWrapperS2_RK16btDispatcherInfoP16btManifoldResult @4305
    _ZN28btCompoundCollisionAlgorithm17SwappedCreateFunc24CreateCollisionAlgorithmER36btCollisionAlgorithmConstructionInfoPK24btCollisionObjectWrapperS5_ @4306
    _ZN28btCompoundCollisionAlgorithm17SwappedCreateFuncC1Ev @4307
    _ZN28btCompoundCollisionAlgorithm17SwappedCreateFuncD0Ev @4308
    _ZN28btCompoundCollisionAlgorithm17SwappedCreateFuncD1Ev @4309
    _ZN28btCompoundCollisionAlgorithm21calculateTimeOfImpactEP17btCollisionObjectS1_RK16btDispatcherInfoP16btManifoldResult @4310
    _ZN28btCompoundCollisionAlgorithm21removeChildAlgorithmsEv @4311
    _ZN28btCompoundCollisionAlgorithm22getAllContactManifoldsER20btAlignedObjectArrayIP20btPersistentManifoldE @4312
    _ZN28btCompoundCollisionAlgorithm26preallocateChildAlgorithmsEPK24btCollisionObjectWrapperS2_ @4313
    _ZN28btCompoundCollisionAlgorithmC1ERK36btCollisionAlgorithmConstructionInfoPK24btCollisionObjectWrapperS5_b @4314
    _ZN28btCompoundCollisionAlgorithmC2ERK36btCollisionAlgorithmConstructionInfoPK24btCollisionObjectWrapperS5_b @4315
    _ZN28btCompoundCollisionAlgorithmD0Ev @4316
    _ZN28btCompoundCollisionAlgorithmD1Ev @4317
    _ZN28btCompoundCollisionAlgorithmD2Ev @4318
    _ZN28btHashedOverlappingPairCache10equalsPairERK16btBroadphasePairii @4319
    _ZN28btHashedOverlappingPairCache10growTablesEv @4320
    _ZN28btHashedOverlappingPairCache15internalAddPairEP17btBroadphaseProxyS1_ @4321
    _ZN28btHashedOverlappingPairCache16internalFindPairEP17btBroadphaseProxyS1_i @4322
    _ZN28btHashedOverlappingPairCache18addOverlappingPairEP17btBroadphaseProxyS1_ @4323
    _ZN28btHashedOverlappingPairCache18hasDeferredRemovalEv @4324
    _ZN28btHashedOverlappingPairCache19cleanProxyFromPairsEP17btBroadphaseProxyP12btDispatcher @4325
    _ZN28btHashedOverlappingPairCache20cleanOverlappingPairER16btBroadphasePairP12btDispatcher @4326
    _ZN28btHashedOverlappingPairCache20sortOverlappingPairsEP12btDispatcher @4327
    _ZN28btHashedOverlappingPairCache21removeOverlappingPairEP17btBroadphaseProxyS1_P12btDispatcher @4328
    _ZN28btHashedOverlappingPairCache23getOverlappingPairArrayEv @4329
    _ZN28btHashedOverlappingPairCache24setOverlapFilterCallbackEP23btOverlapFilterCallback @4330
    _ZN28btHashedOverlappingPairCache26getOverlappingPairArrayPtrEv @4331
    _ZN28btHashedOverlappingPairCache26processAllOverlappingPairsEP17btOverlapCallbackP12btDispatcher @4332
    _ZN28btHashedOverlappingPairCache28setInternalGhostPairCallbackEP25btOverlappingPairCallback @4333
    _ZN28btHashedOverlappingPairCache37removeOverlappingPairsContainingProxyEP17btBroadphaseProxyP12btDispatcher @4334
    _ZN28btHashedOverlappingPairCache7getHashEjj @4335
    _ZN28btHashedOverlappingPairCache8findPairEP17btBroadphaseProxyS1_ @4336
    _ZN28btHashedOverlappingPairCacheC1Ev @4337
    _ZN28btHashedOverlappingPairCacheC2Ev @4338
    _ZN28btHashedOverlappingPairCacheD0Ev @4339
    _ZN28btHashedOverlappingPairCacheD1Ev @4340
    _ZN28btHashedOverlappingPairCacheD2Ev @4341
    _ZN28btHashedOverlappingPairCachedlEPv @4342
    _ZN28btHashedOverlappingPairCachedlEPvS0_ @4343
    _ZN28btHashedOverlappingPairCachenwEyPv @4344
    _ZN28btScaledBvhTriangleMeshShape13getChildShapeEv @4345
    _ZN28btScaledBvhTriangleMeshShape15setLocalScalingERK9btVector3 @4346
    _ZN28btScaledBvhTriangleMeshShapeC1EP22btBvhTriangleMeshShapeRK9btVector3 @4347
    _ZN28btScaledBvhTriangleMeshShapeC2EP22btBvhTriangleMeshShapeRK9btVector3 @4348
    _ZN28btScaledBvhTriangleMeshShapeD0Ev @4349
    _ZN28btScaledBvhTriangleMeshShapeD1Ev @4350
    _ZN28btScaledBvhTriangleMeshShapeD2Ev @4351
    _ZN28btScaledBvhTriangleMeshShapedlEPv @4352
    _ZN28btScaledBvhTriangleMeshShapenwEy @4353
    _ZN28btSoftMultiBodyDynamicsWorld11addSoftBodyEP10btSoftBodyii @4354
    _ZN28btSoftMultiBodyDynamicsWorld13rayTestSingleERK11btTransformS2_P17btCollisionObjectPK16btCollisionShapeS2_RN16btCollisionWorld17RayResultCallbackE @4355
    _ZN28btSoftMultiBodyDynamicsWorld14debugDrawWorldEv @4356
    _ZN28btSoftMultiBodyDynamicsWorld14removeSoftBodyEP10btSoftBody @4357
    _ZN28btSoftMultiBodyDynamicsWorld16getSoftBodyArrayEv @4358
    _ZN28btSoftMultiBodyDynamicsWorld19serializeSoftBodiesEP12btSerializer @4359
    _ZN28btSoftMultiBodyDynamicsWorld21removeCollisionObjectEP17btCollisionObject @4360
    _ZN28btSoftMultiBodyDynamicsWorld25predictUnconstraintMotionEf @4361
    _ZN28btSoftMultiBodyDynamicsWorld26solveSoftBodiesConstraintsEf @4362
    _ZN28btSoftMultiBodyDynamicsWorld28internalSingleStepSimulationEf @4363
    _ZN28btSoftMultiBodyDynamicsWorld9serializeEP12btSerializer @4364
    _ZN28btSoftMultiBodyDynamicsWorldC1EP12btDispatcherP21btBroadphaseInterfaceP27btMultiBodyConstraintSolverP24btCollisionConfigurationP16btSoftBodySolver @4365
    _ZN28btSoftMultiBodyDynamicsWorldC2EP12btDispatcherP21btBroadphaseInterfaceP27btMultiBodyConstraintSolverP24btCollisionConfigurationP16btSoftBodySolver @4366
    _ZN28btSoftMultiBodyDynamicsWorldD0Ev @4367
    _ZN28btSoftMultiBodyDynamicsWorldD1Ev @4368
    _ZN28btSoftMultiBodyDynamicsWorldD2Ev @4369
    _ZN28btSoftSoftCollisionAlgorithm10CreateFunc24CreateCollisionAlgorithmER36btCollisionAlgorithmConstructionInfoPK24btCollisionObjectWrapperS5_ @4370
    _ZN28btSoftSoftCollisionAlgorithm10CreateFuncC1Ev @4371
    _ZN28btSoftSoftCollisionAlgorithm10CreateFuncD0Ev @4372
    _ZN28btSoftSoftCollisionAlgorithm10CreateFuncD1Ev @4373
    _ZN28btSoftSoftCollisionAlgorithm16processCollisionEPK24btCollisionObjectWrapperS2_RK16btDispatcherInfoP16btManifoldResult @4374
    _ZN28btSoftSoftCollisionAlgorithm21calculateTimeOfImpactEP17btCollisionObjectS1_RK16btDispatcherInfoP16btManifoldResult @4375
    _ZN28btSoftSoftCollisionAlgorithm22getAllContactManifoldsER20btAlignedObjectArrayIP20btPersistentManifoldE @4376
    _ZN28btSoftSoftCollisionAlgorithmC1EP20btPersistentManifoldRK36btCollisionAlgorithmConstructionInfoPK24btCollisionObjectWrapperS7_ @4377
    _ZN28btSoftSoftCollisionAlgorithmC2EP20btPersistentManifoldRK36btCollisionAlgorithmConstructionInfoPK24btCollisionObjectWrapperS7_ @4378
    _ZN28btSoftSoftCollisionAlgorithmD0Ev @4379
    _ZN28btSoftSoftCollisionAlgorithmD1Ev @4380
    _ZN28btSoftSoftCollisionAlgorithmD2Ev @4381
    _ZN28btSortedOverlappingPairCache18addOverlappingPairEP17btBroadphaseProxyS1_ @4382
    _ZN28btSortedOverlappingPairCache18hasDeferredRemovalEv @4383
    _ZN28btSortedOverlappingPairCache19cleanProxyFromPairsEP17btBroadphaseProxyP12btDispatcher @4384
    _ZN28btSortedOverlappingPairCache20cleanOverlappingPairER16btBroadphasePairP12btDispatcher @4385
    _ZN28btSortedOverlappingPairCache20sortOverlappingPairsEP12btDispatcher @4386
    _ZN28btSortedOverlappingPairCache21removeOverlappingPairEP17btBroadphaseProxyS1_P12btDispatcher @4387
    _ZN28btSortedOverlappingPairCache23getOverlappingPairArrayEv @4388
    _ZN28btSortedOverlappingPairCache24setOverlapFilterCallbackEP23btOverlapFilterCallback @4389
    _ZN28btSortedOverlappingPairCache26getOverlappingPairArrayPtrEv @4390
    _ZN28btSortedOverlappingPairCache26processAllOverlappingPairsEP17btOverlapCallbackP12btDispatcher @4391
    _ZN28btSortedOverlappingPairCache28setInternalGhostPairCallbackEP25btOverlappingPairCallback @4392
    _ZN28btSortedOverlappingPairCache37removeOverlappingPairsContainingProxyEP17btBroadphaseProxyP12btDispatcher @4393
    _ZN28btSortedOverlappingPairCache8findPairEP17btBroadphaseProxyS1_ @4394
    _ZN28btSortedOverlappingPairCacheC1Ev @4395
    _ZN28btSortedOverlappingPairCacheC2Ev @4396
    _ZN28btSortedOverlappingPairCacheD0Ev @4397
    _ZN28btSortedOverlappingPairCacheD1Ev @4398
    _ZN28btSortedOverlappingPairCacheD2Ev @4399
    _ZN28btTriangleConvexcastCallback15processTriangleEP9btVector3ii @4400
    _ZN28btTriangleConvexcastCallbackC1EPK13btConvexShapeRK11btTransformS5_S5_f @4401
    _ZN28btTriangleConvexcastCallbackC2EPK13btConvexShapeRK11btTransformS5_S5_f @4402
    _ZN28btTriangleConvexcastCallbackD2Ev @4403
    _ZN29InplaceSolverIslandCallbackMt13processIslandEPP17btCollisionObjectiPP20btPersistentManifoldiPP17btTypedConstraintii @4404
    _ZN29InplaceSolverIslandCallbackMt5setupEP19btContactSolverInfoP12btIDebugDraw @4405
    _ZN29InplaceSolverIslandCallbackMtC1EP18btConstraintSolverP12btStackAllocP12btDispatcher @4406
    _ZN29InplaceSolverIslandCallbackMtD0Ev @4407
    _ZN29InplaceSolverIslandCallbackMtD1Ev @4408
    _ZN29btGeneric6DofSpringConstraint10setDampingEif @4409
    _ZN29btGeneric6DofSpringConstraint12enableSpringEib @4410
    _ZN29btGeneric6DofSpringConstraint12setStiffnessEif @4411
    _ZN29btGeneric6DofSpringConstraint19setEquilibriumPointEi @4412
    _ZN29btGeneric6DofSpringConstraint19setEquilibriumPointEif @4413
    _ZN29btGeneric6DofSpringConstraint19setEquilibriumPointEv @4414
    _ZN29btGeneric6DofSpringConstraint21internalUpdateSpringsEPN17btTypedConstraint17btConstraintInfo2E @4415
    _ZN29btGeneric6DofSpringConstraint4initEv @4416
    _ZN29btGeneric6DofSpringConstraint7setAxisERK9btVector3S2_ @4417
    _ZN29btGeneric6DofSpringConstraint8getInfo2EPN17btTypedConstraint17btConstraintInfo2E @4418
    _ZN29btGeneric6DofSpringConstraintC1ER11btRigidBodyRK11btTransformb @4419
    _ZN29btGeneric6DofSpringConstraintC1ER11btRigidBodyS1_RK11btTransformS4_b @4420
    _ZN29btGeneric6DofSpringConstraintC2ER11btRigidBodyRK11btTransformb @4421
    _ZN29btGeneric6DofSpringConstraintC2ER11btRigidBodyS1_RK11btTransformS4_b @4422
    _ZN29btGeneric6DofSpringConstraintD0Ev @4423
    _ZN29btGeneric6DofSpringConstraintD1Ev @4424
    _ZN29btGeneric6DofSpringConstraintdlEPv @4425
    _ZN29btGeneric6DofSpringConstraintnwEy @4426
    _ZN29btSoftRigidCollisionAlgorithm10CreateFunc24CreateCollisionAlgorithmER36btCollisionAlgorithmConstructionInfoPK24btCollisionObjectWrapperS5_ @4427
    _ZN29btSoftRigidCollisionAlgorithm10CreateFuncC1Ev @4428
    _ZN29btSoftRigidCollisionAlgorithm10CreateFuncD0Ev @4429
    _ZN29btSoftRigidCollisionAlgorithm10CreateFuncD1Ev @4430
    _ZN29btSoftRigidCollisionAlgorithm16processCollisionEPK24btCollisionObjectWrapperS2_RK16btDispatcherInfoP16btManifoldResult @4431
    _ZN29btSoftRigidCollisionAlgorithm21calculateTimeOfImpactEP17btCollisionObjectS1_RK16btDispatcherInfoP16btManifoldResult @4432
    _ZN29btSoftRigidCollisionAlgorithm22getAllContactManifoldsER20btAlignedObjectArrayIP20btPersistentManifoldE @4433
    _ZN29btSoftRigidCollisionAlgorithmC1EP20btPersistentManifoldRK36btCollisionAlgorithmConstructionInfoPK24btCollisionObjectWrapperS7_b @4434
    _ZN29btSoftRigidCollisionAlgorithmC2EP20btPersistentManifoldRK36btCollisionAlgorithmConstructionInfoPK24btCollisionObjectWrapperS7_b @4435
    _ZN29btSoftRigidCollisionAlgorithmD0Ev @4436
    _ZN29btSoftRigidCollisionAlgorithmD1Ev @4437
    _ZN29btSoftRigidCollisionAlgorithmD2Ev @4438
    _ZN29btSpatialTransformationMatrix16transformInverseERK22btSymmetricSpatialDyadRS0_NS_16eOutputOperationE @4439
    _ZN29btSpatialTransformationMatrix16transformInverseI20btSpatialForceVectorEEvRKT_RS2_NS_16eOutputOperationE @4440
    _ZN29btSpatialTransformationMatrix21transformRotationOnlyI20btSpatialForceVectorEEvRKT_RS2_NS_16eOutputOperationE @4441
    _ZN29btSpatialTransformationMatrix21transformRotationOnlyI21btSpatialMotionVectorEEvRKT_RS2_NS_16eOutputOperationE @4442
    _ZN29btSpatialTransformationMatrix28transformInverseRotationOnlyI21btSpatialMotionVectorEEvRKT_RS2_NS_16eOutputOperationE @4443
    _ZN29btSpatialTransformationMatrix9transformI21btSpatialMotionVectorEEvRKT_RS2_NS_16eOutputOperationE @4444
    _ZN29btSpatialTransformationMatrixC1Ev @4445
    _ZN29btSphereBoxCollisionAlgorithm16processCollisionEPK24btCollisionObjectWrapperS2_RK16btDispatcherInfoP16btManifoldResult @4446
    _ZN29btSphereBoxCollisionAlgorithm17getSphereDistanceEPK24btCollisionObjectWrapperR9btVector3S4_RfRKS3_ff @4447
    _ZN29btSphereBoxCollisionAlgorithm20getSpherePenetrationERK9btVector3S2_RS0_S3_ @4448
    _ZN29btSphereBoxCollisionAlgorithm21calculateTimeOfImpactEP17btCollisionObjectS1_RK16btDispatcherInfoP16btManifoldResult @4449
    _ZN29btSphereBoxCollisionAlgorithm22getAllContactManifoldsER20btAlignedObjectArrayIP20btPersistentManifoldE @4450
    _ZN29btSphereBoxCollisionAlgorithmC1EP20btPersistentManifoldRK36btCollisionAlgorithmConstructionInfoPK24btCollisionObjectWrapperS7_b @4451
    _ZN29btSphereBoxCollisionAlgorithmC2EP20btPersistentManifoldRK36btCollisionAlgorithmConstructionInfoPK24btCollisionObjectWrapperS7_b @4452
    _ZN29btSphereBoxCollisionAlgorithmD0Ev @4453
    _ZN29btSphereBoxCollisionAlgorithmD1Ev @4454
    _ZN29btSphereBoxCollisionAlgorithmD2Ev @4455
    _ZN30GIM_TRIANGLE_CALCULATION_CACHE13clip_triangleERK9btVector4PK9btVector3S5_PS3_ @4456
    _ZN30GIM_TRIANGLE_CALCULATION_CACHE18triangle_collisionERK9btVector3S2_S2_fS2_S2_S2_fR25GIM_TRIANGLE_CONTACT_DATA @4457
    _ZN30GIM_TRIANGLE_CALCULATION_CACHEC1Ev @4458
    _ZN30btActivatingCollisionAlgorithmC1ERK36btCollisionAlgorithmConstructionInfo @4459
    _ZN30btActivatingCollisionAlgorithmC1ERK36btCollisionAlgorithmConstructionInfoPK24btCollisionObjectWrapperS5_ @4460
    _ZN30btActivatingCollisionAlgorithmC2ERK36btCollisionAlgorithmConstructionInfo @4461
    _ZN30btActivatingCollisionAlgorithmC2ERK36btCollisionAlgorithmConstructionInfoPK24btCollisionObjectWrapperS5_ @4462
    _ZN30btActivatingCollisionAlgorithmD0Ev @4463
    _ZN30btActivatingCollisionAlgorithmD1Ev @4464
    _ZN30btActivatingCollisionAlgorithmD2Ev @4465
    _ZN30btBox2dBox2dCollisionAlgorithm16processCollisionEPK24btCollisionObjectWrapperS2_RK16btDispatcherInfoP16btManifoldResult @4466
    _ZN30btBox2dBox2dCollisionAlgorithm21calculateTimeOfImpactEP17btCollisionObjectS1_RK16btDispatcherInfoP16btManifoldResult @4467
    _ZN30btBox2dBox2dCollisionAlgorithm22getAllContactManifoldsER20btAlignedObjectArrayIP20btPersistentManifoldE @4468
    _ZN30btBox2dBox2dCollisionAlgorithmC1EP20btPersistentManifoldRK36btCollisionAlgorithmConstructionInfoPK24btCollisionObjectWrapperS7_ @4469
    _ZN30btBox2dBox2dCollisionAlgorithmC2EP20btPersistentManifoldRK36btCollisionAlgorithmConstructionInfoPK24btCollisionObjectWrapperS7_ @4470
    _ZN30btBox2dBox2dCollisionAlgorithmD0Ev @4471
    _ZN30btBox2dBox2dCollisionAlgorithmD1Ev @4472
    _ZN30btBox2dBox2dCollisionAlgorithmD2Ev @4473
    _ZN30btCharacterControllerInterfaceC2Ev @4474
    _ZN30btCharacterControllerInterfaceD2Ev @4475
    _ZN30btCollisionAlgorithmCreateFunc24CreateCollisionAlgorithmER36btCollisionAlgorithmConstructionInfoPK24btCollisionObjectWrapperS4_ @4476
    _ZN30btCollisionAlgorithmCreateFuncC2Ev @4477
    _ZN30btCollisionAlgorithmCreateFuncD0Ev @4478
    _ZN30btCollisionAlgorithmCreateFuncD1Ev @4479
    _ZN30btCollisionAlgorithmCreateFuncD2Ev @4480
    _ZN30btCompoundCompoundLeafCallback7ProcessEPK10btDbvtNodeS2_ @4481
    _ZN30btCompoundCompoundLeafCallbackC1EPK24btCollisionObjectWrapperS2_P12btDispatcherRK16btDispatcherInfoP16btManifoldResultP23btHashedSimplePairCacheP20btPersistentManifold @4482
    _ZN30btCompoundCompoundLeafCallbackD0Ev @4483
    _ZN30btCompoundCompoundLeafCallbackD1Ev @4484
    _ZN30btConvexPenetrationDepthSolverC2Ev @4485
    _ZN30btConvexPenetrationDepthSolverD2Ev @4486
    _ZN30btGeneric6DofSpring2Constraint10setDampingEifb @4487
    _ZN30btGeneric6DofSpring2Constraint11enableMotorEib @4488
    _ZN30btGeneric6DofSpring2Constraint12enableSpringEib @4489
    _ZN30btGeneric6DofSpring2Constraint12setStiffnessEifb @4490
    _ZN30btGeneric6DofSpring2Constraint13buildJacobianEv @4491
    _ZN30btGeneric6DofSpring2Constraint14setServoTargetEif @4492
    _ZN30btGeneric6DofSpring2Constraint15btGetMatrixElemERK11btMatrix3x3i @4493
    _ZN30btGeneric6DofSpring2Constraint15calculateJacobiEP23btRotationalLimitMotor2RK11btTransformS4_PN17btTypedConstraint17btConstraintInfo2EiR9btVector3ii @4494
    _ZN30btGeneric6DofSpring2Constraint15setLinearLimitsEPN17btTypedConstraint17btConstraintInfo2EiRK11btTransformS5_RK9btVector3S8_S8_S8_ @4495
    _ZN30btGeneric6DofSpring2Constraint16matrixToEulerXYZERK11btMatrix3x3R9btVector3 @4496
    _ZN30btGeneric6DofSpring2Constraint16matrixToEulerXZYERK11btMatrix3x3R9btVector3 @4497
    _ZN30btGeneric6DofSpring2Constraint16matrixToEulerYXZERK11btMatrix3x3R9btVector3 @4498
    _ZN30btGeneric6DofSpring2Constraint16matrixToEulerYZXERK11btMatrix3x3R9btVector3 @4499
    _ZN30btGeneric6DofSpring2Constraint16matrixToEulerZXYERK11btMatrix3x3R9btVector3 @4500
    _ZN30btGeneric6DofSpring2Constraint16matrixToEulerZYXERK11btMatrix3x3R9btVector3 @4501
    _ZN30btGeneric6DofSpring2Constraint16setAngularLimitsEPN17btTypedConstraint17btConstraintInfo2EiRK11btTransformS5_RK9btVector3S8_S8_S8_ @4502
    _ZN30btGeneric6DofSpring2Constraint16setMaxMotorForceEif @4503
    _ZN30btGeneric6DofSpring2Constraint17setTargetVelocityEif @4504
    _ZN30btGeneric6DofSpring2Constraint18calculateAngleInfoEv @4505
    _ZN30btGeneric6DofSpring2Constraint19calculateLinearInfoEv @4506
    _ZN30btGeneric6DofSpring2Constraint19calculateTransformsERK11btTransformS2_ @4507
    _ZN30btGeneric6DofSpring2Constraint19calculateTransformsEv @4508
    _ZN30btGeneric6DofSpring2Constraint19setEquilibriumPointEi @4509
    _ZN30btGeneric6DofSpring2Constraint19setEquilibriumPointEif @4510
    _ZN30btGeneric6DofSpring2Constraint19setEquilibriumPointEv @4511
    _ZN30btGeneric6DofSpring2Constraint19setLinearLowerLimitERK9btVector3 @4512
    _ZN30btGeneric6DofSpring2Constraint19setLinearUpperLimitERK9btVector3 @4513
    _ZN30btGeneric6DofSpring2Constraint20setAngularLowerLimitERK9btVector3 @4514
    _ZN30btGeneric6DofSpring2Constraint20setAngularUpperLimitERK9btVector3 @4515
    _ZN30btGeneric6DofSpring2Constraint21get_limit_motor_info2EP23btRotationalLimitMotor2RK11btTransformS4_RK9btVector3S7_S7_S7_PN17btTypedConstraint17btConstraintInfo2EiRS5_ii @4516
    _ZN30btGeneric6DofSpring2Constraint21testAngularLimitMotorEi @4517
    _ZN30btGeneric6DofSpring2Constraint23getRotationalLimitMotorEi @4518
    _ZN30btGeneric6DofSpring2Constraint26getTranslationalLimitMotorEv @4519
    _ZN30btGeneric6DofSpring2Constraint7setAxisERK9btVector3S2_ @4520
    _ZN30btGeneric6DofSpring2Constraint8getInfo1EPN17btTypedConstraint17btConstraintInfo1E @4521
    _ZN30btGeneric6DofSpring2Constraint8getInfo2EPN17btTypedConstraint17btConstraintInfo2E @4522
    _ZN30btGeneric6DofSpring2Constraint8setParamEifi @4523
    _ZN30btGeneric6DofSpring2Constraint8setServoEib @4524
    _ZN30btGeneric6DofSpring2Constraint9setBounceEif @4525
    _ZN30btGeneric6DofSpring2Constraint9setFramesERK11btTransformS2_ @4526
    _ZN30btGeneric6DofSpring2ConstraintC1ER11btRigidBodyRK11btTransform11RotateOrder @4527
    _ZN30btGeneric6DofSpring2ConstraintC1ER11btRigidBodyS1_RK11btTransformS4_11RotateOrder @4528
    _ZN30btGeneric6DofSpring2ConstraintC2ER11btRigidBodyRK11btTransform11RotateOrder @4529
    _ZN30btGeneric6DofSpring2ConstraintC2ER11btRigidBodyS1_RK11btTransformS4_11RotateOrder @4530
    _ZN30btGeneric6DofSpring2ConstraintD0Ev @4531
    _ZN30btGeneric6DofSpring2ConstraintD1Ev @4532
    _ZN30btGeneric6DofSpring2ConstraintD2Ev @4533
    _ZN30btGeneric6DofSpring2ConstraintdlEPv @4534
    _ZN30btGeneric6DofSpring2ConstraintnwEy @4535
    _ZN30btGjkEpaPenetrationDepthSolver12calcPenDepthER22btVoronoiSimplexSolverPK13btConvexShapeS4_RK11btTransformS7_R9btVector3S9_S9_P12btIDebugDraw @4536
    _ZN30btGjkEpaPenetrationDepthSolverC1Ev @4537
    _ZN30btGjkEpaPenetrationDepthSolverD0Ev @4538
    _ZN30btGjkEpaPenetrationDepthSolverD1Ev @4539
    _ZN30btKinematicCharacterController10playerStepEP16btCollisionWorldf @4540
    _ZN30btKinematicCharacterController10setGravityERK9btVector3 @4541
    _ZN30btKinematicCharacterController11setMaxSlopeEf @4542
    _ZN30btKinematicCharacterController11setUpVectorERK9btVector3 @4543
    _ZN30btKinematicCharacterController12applyImpulseERK9btVector3 @4544
    _ZN30btKinematicCharacterController12setFallSpeedEf @4545
    _ZN30btKinematicCharacterController12setJumpSpeedEf @4546
    _ZN30btKinematicCharacterController12updateActionEP16btCollisionWorldf @4547
    _ZN30btKinematicCharacterController13setStepHeightEf @4548
    _ZN30btKinematicCharacterController14getGhostObjectEv @4549
    _ZN30btKinematicCharacterController14needsCollisionEPK17btCollisionObjectS2_ @4550
    _ZN30btKinematicCharacterController16setLinearDampingEf @4551
    _ZN30btKinematicCharacterController16setMaxJumpHeightEf @4552
    _ZN30btKinematicCharacterController16setUpInterpolateEb @4553
    _ZN30btKinematicCharacterController16setWalkDirectionERK9btVector3 @4554
    _ZN30btKinematicCharacterController17parallelComponentERK9btVector3S2_ @4555
    _ZN30btKinematicCharacterController17setAngularDampingEf @4556
    _ZN30btKinematicCharacterController17setLinearVelocityERK9btVector3 @4557
    _ZN30btKinematicCharacterController18setAngularVelocityERK9btVector3 @4558
    _ZN30btKinematicCharacterController19getUpAxisDirectionsEv @4559
    _ZN30btKinematicCharacterController20stepForwardAndStrafeEP16btCollisionWorldRK9btVector3 @4560
    _ZN30btKinematicCharacterController22perpindicularComponentERK9btVector3S2_ @4561
    _ZN30btKinematicCharacterController22recoverFromPenetrationEP16btCollisionWorld @4562
    _ZN30btKinematicCharacterController22setMaxPenetrationDepthEf @4563
    _ZN30btKinematicCharacterController26computeReflectionDirectionERK9btVector3S2_ @4564
    _ZN30btKinematicCharacterController26setVelocityForTimeIntervalERK9btVector3f @4565
    _ZN30btKinematicCharacterController36updateTargetPositionBasedOnCollisionERK9btVector3ff @4566
    _ZN30btKinematicCharacterController4jumpERK9btVector3 @4567
    _ZN30btKinematicCharacterController4warpERK9btVector3 @4568
    _ZN30btKinematicCharacterController5resetEP16btCollisionWorld @4569
    _ZN30btKinematicCharacterController5setUpERK9btVector3 @4570
    _ZN30btKinematicCharacterController6stepUpEP16btCollisionWorld @4571
    _ZN30btKinematicCharacterController7preStepEP16btCollisionWorld @4572
    _ZN30btKinematicCharacterController8stepDownEP16btCollisionWorldf @4573
    _ZN30btKinematicCharacterController9debugDrawEP12btIDebugDraw @4574
    _ZN30btKinematicCharacterControllerC1EP24btPairCachingGhostObjectP13btConvexShapefRK9btVector3 @4575
    _ZN30btKinematicCharacterControllerC2EP24btPairCachingGhostObjectP13btConvexShapefRK9btVector3 @4576
    _ZN30btKinematicCharacterControllerD0Ev @4577
    _ZN30btKinematicCharacterControllerD1Ev @4578
    _ZN30btKinematicCharacterControllerD2Ev @4579
    _ZN30btKinematicCharacterControllerdlEPv @4580
    _ZN30btKinematicCharacterControllernwEy @4581
    _ZN31btConvexPlaneCollisionAlgorithm10CreateFunc24CreateCollisionAlgorithmER36btCollisionAlgorithmConstructionInfoPK24btCollisionObjectWrapperS5_ @4582
    _ZN31btConvexPlaneCollisionAlgorithm10CreateFuncC1Ev @4583
    _ZN31btConvexPlaneCollisionAlgorithm10CreateFuncD0Ev @4584
    _ZN31btConvexPlaneCollisionAlgorithm10CreateFuncD1Ev @4585
    _ZN31btConvexPlaneCollisionAlgorithm16processCollisionEPK24btCollisionObjectWrapperS2_RK16btDispatcherInfoP16btManifoldResult @4586
    _ZN31btConvexPlaneCollisionAlgorithm20collideSingleContactERK12btQuaternionPK24btCollisionObjectWrapperS5_RK16btDispatcherInfoP16btManifoldResult @4587
    _ZN31btConvexPlaneCollisionAlgorithm21calculateTimeOfImpactEP17btCollisionObjectS1_RK16btDispatcherInfoP16btManifoldResult @4588
    _ZN31btConvexPlaneCollisionAlgorithm22getAllContactManifoldsER20btAlignedObjectArrayIP20btPersistentManifoldE @4589
    _ZN31btConvexPlaneCollisionAlgorithmC1EP20btPersistentManifoldRK36btCollisionAlgorithmConstructionInfoPK24btCollisionObjectWrapperS7_bii @4590
    _ZN31btConvexPlaneCollisionAlgorithmC2EP20btPersistentManifoldRK36btCollisionAlgorithmConstructionInfoPK24btCollisionObjectWrapperS7_bii @4591
    _ZN31btConvexPlaneCollisionAlgorithmD0Ev @4592
    _ZN31btConvexPlaneCollisionAlgorithmD1Ev @4593
    _ZN31btConvexPlaneCollisionAlgorithmD2Ev @4594
    _ZN31btDefaultCollisionConfiguration25getCollisionAlgorithmPoolEv @4595
    _ZN31btDefaultCollisionConfiguration25getPersistentManifoldPoolEv @4596
    _ZN31btDefaultCollisionConfiguration31getCollisionAlgorithmCreateFuncEii @4597
    _ZN31btDefaultCollisionConfiguration34setPlaneConvexMultipointIterationsEii @4598
    _ZN31btDefaultCollisionConfiguration35getClosestPointsAlgorithmCreateFuncEii @4599
    _ZN31btDefaultCollisionConfiguration35setConvexConvexMultipointIterationsEii @4600
    _ZN31btDefaultCollisionConfigurationC1ERK34btDefaultCollisionConstructionInfo @4601
    _ZN31btDefaultCollisionConfigurationC2ERK34btDefaultCollisionConstructionInfo @4602
    _ZN31btDefaultCollisionConfigurationD0Ev @4603
    _ZN31btDefaultCollisionConfigurationD1Ev @4604
    _ZN31btDefaultCollisionConfigurationD2Ev @4605
    _ZN31btInternalTriangleIndexCallbackC2Ev @4606
    _ZN31btInternalTriangleIndexCallbackD0Ev @4607
    _ZN31btInternalTriangleIndexCallbackD1Ev @4608
    _ZN31btInternalTriangleIndexCallbackD2Ev @4609
    _ZN31btMultiBodyJointLimitConstraint16finalizeMultiDofEv @4610
    _ZN31btMultiBodyJointLimitConstraint20createConstraintRowsER20btAlignedObjectArrayI27btMultiBodySolverConstraintER23btMultiBodyJacobianDataRK19btContactSolverInfo @4611
    _ZN31btMultiBodyJointLimitConstraint9debugDrawEP12btIDebugDraw @4612
    _ZN31btMultiBodyJointLimitConstraintC1EP11btMultiBodyiff @4613
    _ZN31btMultiBodyJointLimitConstraintC2EP11btMultiBodyiff @4614
    _ZN31btMultiBodyJointLimitConstraintD0Ev @4615
    _ZN31btMultiBodyJointLimitConstraintD1Ev @4616
    _ZN31btMultiBodyJointLimitConstraintD2Ev @4617
    _ZN32btConvexInternalAabbCachingShape15recalcLocalAabbEv @4618
    _ZN32btConvexInternalAabbCachingShape15setLocalScalingERK9btVector3 @4619
    _ZN32btConvexInternalAabbCachingShapeC1Ev @4620
    _ZN32btConvexInternalAabbCachingShapeC2Ev @4621
    _ZN32btConvexInternalAabbCachingShapeD2Ev @4622
    _ZN32btMultimaterialTriangleMeshShape21getMaterialPropertiesEii @4623
    _ZN32btSphereSphereCollisionAlgorithm10CreateFunc24CreateCollisionAlgorithmER36btCollisionAlgorithmConstructionInfoPK24btCollisionObjectWrapperS5_ @4624
    _ZN32btSphereSphereCollisionAlgorithm10CreateFuncC1Ev @4625
    _ZN32btSphereSphereCollisionAlgorithm10CreateFuncD0Ev @4626
    _ZN32btSphereSphereCollisionAlgorithm10CreateFuncD1Ev @4627
    _ZN32btSphereSphereCollisionAlgorithm16processCollisionEPK24btCollisionObjectWrapperS2_RK16btDispatcherInfoP16btManifoldResult @4628
    _ZN32btSphereSphereCollisionAlgorithm21calculateTimeOfImpactEP17btCollisionObjectS1_RK16btDispatcherInfoP16btManifoldResult @4629
    _ZN32btSphereSphereCollisionAlgorithm22getAllContactManifoldsER20btAlignedObjectArrayIP20btPersistentManifoldE @4630
    _ZN32btSphereSphereCollisionAlgorithmC1EP20btPersistentManifoldRK36btCollisionAlgorithmConstructionInfoPK24btCollisionObjectWrapperS7_ @4631
    _ZN32btSphereSphereCollisionAlgorithmC2EP20btPersistentManifoldRK36btCollisionAlgorithmConstructionInfoPK24btCollisionObjectWrapperS7_ @4632
    _ZN32btSphereSphereCollisionAlgorithmD0Ev @4633
    _ZN32btSphereSphereCollisionAlgorithmD1Ev @4634
    _ZN32btSphereSphereCollisionAlgorithmD2Ev @4635
    _ZN33btConvexConcaveCollisionAlgorithm10CreateFunc24CreateCollisionAlgorithmER36btCollisionAlgorithmConstructionInfoPK24btCollisionObjectWrapperS5_ @4636
    _ZN33btConvexConcaveCollisionAlgorithm10CreateFuncC1Ev @4637
    _ZN33btConvexConcaveCollisionAlgorithm10CreateFuncD0Ev @4638
    _ZN33btConvexConcaveCollisionAlgorithm10CreateFuncD1Ev @4639
    _ZN33btConvexConcaveCollisionAlgorithm10clearCacheEv @4640
    _ZN33btConvexConcaveCollisionAlgorithm16processCollisionEPK24btCollisionObjectWrapperS2_RK16btDispatcherInfoP16btManifoldResult @4641
    _ZN33btConvexConcaveCollisionAlgorithm17SwappedCreateFunc24CreateCollisionAlgorithmER36btCollisionAlgorithmConstructionInfoPK24btCollisionObjectWrapperS5_ @4642
    _ZN33btConvexConcaveCollisionAlgorithm17SwappedCreateFuncC1Ev @4643
    _ZN33btConvexConcaveCollisionAlgorithm17SwappedCreateFuncD0Ev @4644
    _ZN33btConvexConcaveCollisionAlgorithm17SwappedCreateFuncD1Ev @4645
    _ZN33btConvexConcaveCollisionAlgorithm21calculateTimeOfImpactEP17btCollisionObjectS1_RK16btDispatcherInfoP16btManifoldResult @4646
    _ZN33btConvexConcaveCollisionAlgorithm22getAllContactManifoldsER20btAlignedObjectArrayIP20btPersistentManifoldE @4647
    _ZN33btConvexConcaveCollisionAlgorithmC1ERK36btCollisionAlgorithmConstructionInfoPK24btCollisionObjectWrapperS5_b @4648
    _ZN33btConvexConcaveCollisionAlgorithmC2ERK36btCollisionAlgorithmConstructionInfoPK24btCollisionObjectWrapperS5_b @4649
    _ZN33btConvexConcaveCollisionAlgorithmD0Ev @4650
    _ZN33btConvexConcaveCollisionAlgorithmD1Ev @4651
    _ZN33btConvexConcaveCollisionAlgorithmD2Ev @4652
    _ZN33btConvexConcaveCollisionAlgorithmdlEPv @4653
    _ZN33btConvexConcaveCollisionAlgorithmdlEPvS0_ @4654
    _ZN33btConvexConcaveCollisionAlgorithmnwEyPv @4655
    _ZN33btHingeAccumulatedAngleConstraint24getAccumulatedHingeAngleEv @4656
    _ZN33btHingeAccumulatedAngleConstraint24setAccumulatedHingeAngleEf @4657
    _ZN33btHingeAccumulatedAngleConstraint8getInfo1EPN17btTypedConstraint17btConstraintInfo1E @4658
    _ZN33btHingeAccumulatedAngleConstraintD0Ev @4659
    _ZN33btHingeAccumulatedAngleConstraintD1Ev @4660
    _ZN33btHingeAccumulatedAngleConstraintdlEPv @4661
    _ZN33btMinkowskiPenetrationDepthSolver12calcPenDepthER22btVoronoiSimplexSolverPK13btConvexShapeS4_RK11btTransformS7_R9btVector3S9_S9_P12btIDebugDraw @4662
    _ZN33btMinkowskiPenetrationDepthSolver24getPenetrationDirectionsEv @4663
    _ZN33btMinkowskiPenetrationDepthSolverC1Ev @4664
    _ZN33btMinkowskiPenetrationDepthSolverD0Ev @4665
    _ZN33btMinkowskiPenetrationDepthSolverD1Ev @4666
    _ZN34btClosestNotMeConvexResultCallback15addSingleResultERN16btCollisionWorld17LocalConvexResultEb @4667
    _ZN34btClosestNotMeConvexResultCallbackC1EP17btCollisionObjectRK9btVector3S4_P22btOverlappingPairCacheP12btDispatcher @4668
    _ZN34btClosestNotMeConvexResultCallbackD0Ev @4669
    _ZN34btClosestNotMeConvexResultCallbackD1Ev @4670
    _ZN34btDefaultCollisionConstructionInfoC1Ev @4671
    _ZN34btPolyhedralConvexAabbCachingShape15recalcLocalAabbEv @4672
    _ZN34btPolyhedralConvexAabbCachingShape15setLocalScalingERK9btVector3 @4673
    _ZN34btPolyhedralConvexAabbCachingShapeC1Ev @4674
    _ZN34btPolyhedralConvexAabbCachingShapeC2Ev @4675
    _ZN34btPolyhedralConvexAabbCachingShapeD2Ev @4676
    _ZN34btSphereTriangleCollisionAlgorithm10CreateFunc24CreateCollisionAlgorithmER36btCollisionAlgorithmConstructionInfoPK24btCollisionObjectWrapperS5_ @4677
    _ZN34btSphereTriangleCollisionAlgorithm10CreateFuncC1Ev @4678
    _ZN34btSphereTriangleCollisionAlgorithm10CreateFuncD0Ev @4679
    _ZN34btSphereTriangleCollisionAlgorithm10CreateFuncD1Ev @4680
    _ZN34btSphereTriangleCollisionAlgorithm16processCollisionEPK24btCollisionObjectWrapperS2_RK16btDispatcherInfoP16btManifoldResult @4681
    _ZN34btSphereTriangleCollisionAlgorithm21calculateTimeOfImpactEP17btCollisionObjectS1_RK16btDispatcherInfoP16btManifoldResult @4682
    _ZN34btSphereTriangleCollisionAlgorithm22getAllContactManifoldsER20btAlignedObjectArrayIP20btPersistentManifoldE @4683
    _ZN34btSphereTriangleCollisionAlgorithmC1EP20btPersistentManifoldRK36btCollisionAlgorithmConstructionInfoPK24btCollisionObjectWrapperS7_b @4684
    _ZN34btSphereTriangleCollisionAlgorithmC2EP20btPersistentManifoldRK36btCollisionAlgorithmConstructionInfoPK24btCollisionObjectWrapperS7_b @4685
    _ZN34btSphereTriangleCollisionAlgorithmD0Ev @4686
    _ZN34btSphereTriangleCollisionAlgorithmD1Ev @4687
    _ZN34btSphereTriangleCollisionAlgorithmD2Ev @4688
    _ZN34btTriangleIndexVertexMaterialArray21addMaterialPropertiesERK20btMaterialProperties14PHY_ScalarType @4689
    _ZN34btTriangleIndexVertexMaterialArray21getLockedMaterialBaseEPPhRiR14PHY_ScalarTypeS2_S1_S2_S2_S4_i @4690
    _ZN34btTriangleIndexVertexMaterialArray29getLockedReadOnlyMaterialBaseEPPKhRiR14PHY_ScalarTypeS3_S2_S3_S3_S5_i @4691
    _ZN34btTriangleIndexVertexMaterialArrayC1EiPiiiPfiiPhiS0_i @4692
    _ZN34btTriangleIndexVertexMaterialArrayC2EiPiiiPfiiPhiS0_i @4693
    _ZN34btTriangleIndexVertexMaterialArrayD0Ev @4694
    _ZN34btTriangleIndexVertexMaterialArrayD1Ev @4695
    _ZN34btTriangleIndexVertexMaterialArraydlEPv @4696
    _ZN35btSequentialImpulseConstraintSolver10btRandInt2Ei @4697
    _ZN35btSequentialImpulseConstraintSolver10solveGroupEPP17btCollisionObjectiPP20btPersistentManifoldiPP17btTypedConstraintiRK19btContactSolverInfoP12btIDebugDrawP12btDispatcher @4698
    _ZN35btSequentialImpulseConstraintSolver14convertContactEP20btPersistentManifoldRK19btContactSolverInfo @4699
    _ZN35btSequentialImpulseConstraintSolver14initSolverBodyEP12btSolverBodyP17btCollisionObjectf @4700
    _ZN35btSequentialImpulseConstraintSolver15convertContactsEPP20btPersistentManifoldiRK19btContactSolverInfo @4701
    _ZN35btSequentialImpulseConstraintSolver16restitutionCurveEfff @4702
    _ZN35btSequentialImpulseConstraintSolver19getOrInitSolverBodyER17btCollisionObjectf @4703
    _ZN35btSequentialImpulseConstraintSolver20setupSolverFunctionsEb @4704
    _ZN35btSequentialImpulseConstraintSolver20solveSingleIterationEiPP17btCollisionObjectiPP20btPersistentManifoldiPP17btTypedConstraintiRK19btContactSolverInfoP12btIDebugDraw @4705
    _ZN35btSequentialImpulseConstraintSolver21addFrictionConstraintERK9btVector3iiiR15btManifoldPointS2_S2_P17btCollisionObjectS6_fRK19btContactSolverInfoff @4706
    _ZN35btSequentialImpulseConstraintSolver22setupContactConstraintER18btSolverConstraintiiR15btManifoldPointRK19btContactSolverInfoRfRK9btVector3SA_ @4707
    _ZN35btSequentialImpulseConstraintSolver23setupFrictionConstraintER18btSolverConstraintRK9btVector3iiR15btManifoldPointS4_S4_P17btCollisionObjectS8_fRK19btContactSolverInfoff @4708
    _ZN35btSequentialImpulseConstraintSolver24applyAnisotropicFrictionEP17btCollisionObjectR9btVector3i @4709
    _ZN35btSequentialImpulseConstraintSolver28setFrictionConstraintImpulseER18btSolverConstraintiiR15btManifoldPointRK19btContactSolverInfo @4710
    _ZN35btSequentialImpulseConstraintSolver28solveGroupCacheFriendlySetupEPP17btCollisionObjectiPP20btPersistentManifoldiPP17btTypedConstraintiRK19btContactSolverInfoP12btIDebugDraw @4711
    _ZN35btSequentialImpulseConstraintSolver29solveGroupCacheFriendlyFinishEPP17btCollisionObjectiRK19btContactSolverInfo @4712
    _ZN35btSequentialImpulseConstraintSolver30addTorsionalFrictionConstraintERK9btVector3iiiR15btManifoldPointfS2_S2_P17btCollisionObjectS6_fff @4713
    _ZN35btSequentialImpulseConstraintSolver30resolveSplitPenetrationImpulseER12btSolverBodyS1_RK18btSolverConstraint @4714
    _ZN35btSequentialImpulseConstraintSolver32setupTorsionalFrictionConstraintER18btSolverConstraintRK9btVector3iiR15btManifoldPointfS4_S4_P17btCollisionObjectS8_fff @4715
    _ZN35btSequentialImpulseConstraintSolver33resolveSingleConstraintRowGenericER12btSolverBodyS1_RK18btSolverConstraint @4716
    _ZN35btSequentialImpulseConstraintSolver33solveGroupCacheFriendlyIterationsEPP17btCollisionObjectiPP20btPersistentManifoldiPP17btTypedConstraintiRK19btContactSolverInfoP12btIDebugDraw @4717
    _ZN35btSequentialImpulseConstraintSolver35getScalarConstraintRowSolverGenericEv @4718
    _ZN35btSequentialImpulseConstraintSolver36resolveSingleConstraintRowLowerLimitER12btSolverBodyS1_RK18btSolverConstraint @4719
    _ZN35btSequentialImpulseConstraintSolver37resolveSingleConstraintRowGenericSIMDER12btSolverBodyS1_RK18btSolverConstraint @4720
    _ZN35btSequentialImpulseConstraintSolver38getScalarConstraintRowSolverLowerLimitEv @4721
    _ZN35btSequentialImpulseConstraintSolver40resolveSingleConstraintRowLowerLimitSIMDER12btSolverBodyS1_RK18btSolverConstraint @4722
    _ZN35btSequentialImpulseConstraintSolver45solveGroupCacheFriendlySplitImpulseIterationsEPP17btCollisionObjectiPP20btPersistentManifoldiPP17btTypedConstraintiRK19btContactSolverInfoP12btIDebugDraw @4723
    _ZN35btSequentialImpulseConstraintSolver5resetEv @4724
    _ZN35btSequentialImpulseConstraintSolver7btRand2Ev @4725
    _ZN35btSequentialImpulseConstraintSolverC1Ev @4726
    _ZN35btSequentialImpulseConstraintSolverC2Ev @4727
    _ZN35btSequentialImpulseConstraintSolverD0Ev @4728
    _ZN35btSequentialImpulseConstraintSolverD1Ev @4729
    _ZN35btSequentialImpulseConstraintSolverD2Ev @4730
    _ZN35btSequentialImpulseConstraintSolverdlEPv @4731
    _ZN35btSequentialImpulseConstraintSolverdlEPvS0_ @4732
    _ZN35btSequentialImpulseConstraintSolvernwEy @4733
    _ZN35btSequentialImpulseConstraintSolvernwEyPv @4734
    _ZN35btSoftBodyConcaveCollisionAlgorithm10CreateFunc24CreateCollisionAlgorithmER36btCollisionAlgorithmConstructionInfoPK24btCollisionObjectWrapperS5_ @4735
    _ZN35btSoftBodyConcaveCollisionAlgorithm10CreateFuncC1Ev @4736
    _ZN35btSoftBodyConcaveCollisionAlgorithm10CreateFuncD0Ev @4737
    _ZN35btSoftBodyConcaveCollisionAlgorithm10CreateFuncD1Ev @4738
    _ZN35btSoftBodyConcaveCollisionAlgorithm10clearCacheEv @4739
    _ZN35btSoftBodyConcaveCollisionAlgorithm16processCollisionEPK24btCollisionObjectWrapperS2_RK16btDispatcherInfoP16btManifoldResult @4740
    _ZN35btSoftBodyConcaveCollisionAlgorithm17SwappedCreateFunc24CreateCollisionAlgorithmER36btCollisionAlgorithmConstructionInfoPK24btCollisionObjectWrapperS5_ @4741
    _ZN35btSoftBodyConcaveCollisionAlgorithm17SwappedCreateFuncC1Ev @4742
    _ZN35btSoftBodyConcaveCollisionAlgorithm17SwappedCreateFuncD0Ev @4743
    _ZN35btSoftBodyConcaveCollisionAlgorithm17SwappedCreateFuncD1Ev @4744
    _ZN35btSoftBodyConcaveCollisionAlgorithm21calculateTimeOfImpactEP17btCollisionObjectS1_RK16btDispatcherInfoP16btManifoldResult @4745
    _ZN35btSoftBodyConcaveCollisionAlgorithm22getAllContactManifoldsER20btAlignedObjectArrayIP20btPersistentManifoldE @4746
    _ZN35btSoftBodyConcaveCollisionAlgorithmC1ERK36btCollisionAlgorithmConstructionInfoPK24btCollisionObjectWrapperS5_b @4747
    _ZN35btSoftBodyConcaveCollisionAlgorithmC2ERK36btCollisionAlgorithmConstructionInfoPK24btCollisionObjectWrapperS5_b @4748
    _ZN35btSoftBodyConcaveCollisionAlgorithmD0Ev @4749
    _ZN35btSoftBodyConcaveCollisionAlgorithmD1Ev @4750
    _ZN35btSoftBodyConcaveCollisionAlgorithmD2Ev @4751
    _ZN36MultiBodyInplaceSolverIslandCallback13processIslandEPP17btCollisionObjectiPP20btPersistentManifoldii @4752
    _ZN36MultiBodyInplaceSolverIslandCallback18processConstraintsEv @4753
    _ZN36MultiBodyInplaceSolverIslandCallback5setupEP19btContactSolverInfoPP17btTypedConstraintiPP21btMultiBodyConstraintiP12btIDebugDraw @4754
    _ZN36MultiBodyInplaceSolverIslandCallbackC1EP27btMultiBodyConstraintSolverP12btDispatcher @4755
    _ZN36MultiBodyInplaceSolverIslandCallbackD0Ev @4756
    _ZN36MultiBodyInplaceSolverIslandCallbackD1Ev @4757
    _ZN36btCollisionAlgorithmConstructionInfoC1Ev @4758
    _ZN36btCompoundCompoundCollisionAlgorithm10CreateFunc24CreateCollisionAlgorithmER36btCollisionAlgorithmConstructionInfoPK24btCollisionObjectWrapperS5_ @4759
    _ZN36btCompoundCompoundCollisionAlgorithm10CreateFuncC1Ev @4760
    _ZN36btCompoundCompoundCollisionAlgorithm10CreateFuncD0Ev @4761
    _ZN36btCompoundCompoundCollisionAlgorithm10CreateFuncD1Ev @4762
    _ZN36btCompoundCompoundCollisionAlgorithm16processCollisionEPK24btCollisionObjectWrapperS2_RK16btDispatcherInfoP16btManifoldResult @4763
    _ZN36btCompoundCompoundCollisionAlgorithm21calculateTimeOfImpactEP17btCollisionObjectS1_RK16btDispatcherInfoP16btManifoldResult @4764
    _ZN36btCompoundCompoundCollisionAlgorithm21removeChildAlgorithmsEv @4765
    _ZN36btCompoundCompoundCollisionAlgorithm22getAllContactManifoldsER20btAlignedObjectArrayIP20btPersistentManifoldE @4766
    _ZN36btCompoundCompoundCollisionAlgorithmC1ERK36btCollisionAlgorithmConstructionInfoPK24btCollisionObjectWrapperS5_b @4767
    _ZN36btCompoundCompoundCollisionAlgorithmC2ERK36btCollisionAlgorithmConstructionInfoPK24btCollisionObjectWrapperS5_b @4768
    _ZN36btCompoundCompoundCollisionAlgorithmD0Ev @4769
    _ZN36btCompoundCompoundCollisionAlgorithmD1Ev @4770
    _ZN36btCompoundCompoundCollisionAlgorithmD2Ev @4771
    _ZN36btDiscreteCollisionDetectorInterface17ClosestPointInputC1Ev @4772
    _ZN36btDiscreteCollisionDetectorInterface6ResultC2Ev @4773
    _ZN36btDiscreteCollisionDetectorInterface6ResultD2Ev @4774
    _ZN36btDiscreteCollisionDetectorInterfaceC2Ev @4775
    _ZN36btDiscreteCollisionDetectorInterfaceD2Ev @4776
    _ZN41btSoftBodyRigidBodyCollisionConfiguration31getCollisionAlgorithmCreateFuncEii @4777
    _ZN41btSoftBodyRigidBodyCollisionConfigurationC1ERK34btDefaultCollisionConstructionInfo @4778
    _ZN41btSoftBodyRigidBodyCollisionConfigurationC2ERK34btDefaultCollisionConstructionInfo @4779
    _ZN41btSoftBodyRigidBodyCollisionConfigurationD0Ev @4780
    _ZN41btSoftBodyRigidBodyCollisionConfigurationD1Ev @4781
    _ZN41btSoftBodyRigidBodyCollisionConfigurationD2Ev @4782
    _ZN43btKinematicClosestNotMeConvexResultCallback15addSingleResultERN16btCollisionWorld17LocalConvexResultEb @4783
    _ZN43btKinematicClosestNotMeConvexResultCallbackC1EP17btCollisionObjectRK9btVector3f @4784
    _ZN43btKinematicClosestNotMeConvexResultCallbackD0Ev @4785
    _ZN43btKinematicClosestNotMeConvexResultCallbackD1Ev @4786
    _ZN4int3C1Eiii @4787
    _ZN4int3C2Eiii @4788
    _ZN4int3ixEi @4789
    _ZN4int4C1Eiiii @4790
    _ZN4int4ixEi @4791
    _ZN5btLCP15transfer_i_to_CEi @4792
    _ZN5btLCP15transfer_i_to_NEi @4793
    _ZN5btLCP17pN_plusequals_ANiEPfii @4794
    _ZN5btLCP22pN_equals_ANC_times_qCEPfS0_ @4795
    _ZN5btLCP22transfer_i_from_C_to_NEiR20btAlignedObjectArrayIfE @4796
    _ZN5btLCP22transfer_i_from_N_to_CEi @4797
    _ZN5btLCP24pC_plusequals_s_times_qCEPffS0_ @4798
    _ZN5btLCP24pN_plusequals_s_times_qNEPffS0_ @4799
    _ZN5btLCP6solve1EPfiii @4800
    _ZN5btLCP9unpermuteEv @4801
    _ZN5btLCPC1EiiiPfS0_S0_S0_S0_S0_S0_S0_S0_S0_S0_PbPiS2_S2_PS0_ @4802
    _ZN5btLCPC2EiiiPfS0_S0_S0_S0_S0_S0_S0_S0_S0_S0_PbPiS2_S2_PS0_ @4803
    _ZN6btAABB10invalidateEv @4804
    _ZN6btAABB14appy_transformERK11btTransform @4805
    _ZN6btAABB16increment_marginEf @4806
    _ZN6btAABB25calc_from_triangle_marginI9btVector3EEvRKT_S4_S4_f @4807
    _ZN6btAABB5mergeERKS_ @4808
    _ZN6btAABBC1ERK9btVector3S2_S2_f @4809
    _ZN6btAABBC1ERKS_ @4810
    _ZN6btAABBC1Ev @4811
    _ZN6btDbvt11countLeavesEPK10btDbvtNode @4812
    _ZN6btDbvt13extractLeavesEPK10btDbvtNodeR20btAlignedObjectArrayIS2_E @4813
    _ZN6btDbvt15optimizeTopDownEi @4814
    _ZN6btDbvt16optimizeBottomUpEv @4815
    _ZN6btDbvt19optimizeIncrementalEi @4816
    _ZN6btDbvt24collideTTpersistentStackEPK10btDbvtNodeS2_RNS_8ICollideE @4817
    _ZN6btDbvt5clearEv @4818
    _ZN6btDbvt6insertERK12btDbvtAabbMmPv @4819
    _ZN6btDbvt6removeEP10btDbvtNode @4820
    _ZN6btDbvt6sStkNNC1EPK10btDbvtNodeS3_ @4821
    _ZN6btDbvt6sStkNNC1Ev @4822
    _ZN6btDbvt6updateEP10btDbvtNodeR12btDbvtAabbMm @4823
    _ZN6btDbvt6updateEP10btDbvtNodeR12btDbvtAabbMmRK9btVector3 @4824
    _ZN6btDbvt6updateEP10btDbvtNodeR12btDbvtAabbMmRK9btVector3f @4825
    _ZN6btDbvt6updateEP10btDbvtNodeR12btDbvtAabbMmf @4826
    _ZN6btDbvt6updateEP10btDbvtNodei @4827
    _ZN6btDbvt7rayTestEPK10btDbvtNodeRK9btVector3S5_RNS_8ICollideE @4828
    _ZN6btDbvt7sStkCLNC1EPK10btDbvtNodePS1_ @4829
    _ZN6btDbvt8ICollide7DescentEPK10btDbvtNode @4830
    _ZN6btDbvt8ICollide7ProcessEPK10btDbvtNode @4831
    _ZN6btDbvt8ICollide7ProcessEPK10btDbvtNodeS3_ @4832
    _ZN6btDbvt8ICollide7ProcessEPK10btDbvtNodef @4833
    _ZN6btDbvt8ICollide9AllLeavesEPK10btDbvtNode @4834
    _ZN6btDbvt8ICollideC2Ev @4835
    _ZN6btDbvt8ICollideD0Ev @4836
    _ZN6btDbvt8ICollideD1Ev @4837
    _ZN6btDbvt8ICollideD2Ev @4838
    _ZN6btDbvt8maxdepthEPK10btDbvtNode @4839
    _ZN6btDbvt9collideTTEPK10btDbvtNodeS2_RNS_8ICollideE @4840
    _ZN6btDbvt9enumNodesEPK10btDbvtNodeRNS_8ICollideE @4841
    _ZN6btDbvtC1Ev @4842
    _ZN6btDbvtC2Ev @4843
    _ZN6btDbvtD1Ev @4844
    _ZN6btDbvtD2Ev @4845
    _ZN6btFaceC1ERKS_ @4846
    _ZN6btFaceC1Ev @4847
    _ZN6btFaceD1Ev @4848
    _ZN7CSQueue7enqueueEiPiP11DebugLogger @4849
    _ZN7CSQueueC1Ev @4850
    _ZN7CSQueueC2Ev @4851
    _ZN7ConvexH8HalfEdgeC1Ev @4852
    _ZN7ConvexHC1Eiii @4853
    _ZN7ConvexHC2Eiii @4854
    _ZN7RBQueue7enqueueEP11DebugLogger @4855
    _ZN7RBQueueC1Ev @4856
    _ZN7RBQueueC2Ev @4857
    _ZN7btClock14getTimeSecondsEv @4858
    _ZN7btClock18getTimeNanosecondsEv @4859
    _ZN7btClock19getTimeMicrosecondsEv @4860
    _ZN7btClock19getTimeMillisecondsEv @4861
    _ZN7btClock5resetEv @4862
    _ZN7btClockC1ERKS_ @4863
    _ZN7btClockC1Ev @4864
    _ZN7btClockC2ERKS_ @4865
    _ZN7btClockC2Ev @4866
    _ZN7btClockD1Ev @4867
    _ZN7btClockD2Ev @4868
    _ZN7btClockaSERKS_ @4869
    _ZN7btPlaneC1Ev @4870
    _ZN8GIM_AABB10invalidateEv @4871
    _ZN8GIM_AABB5mergeERKS_ @4872
    _ZN8GIM_AABBC1ERKS_ @4873
    _ZN8GIM_AABBC1Ev @4874
    _ZN8GIM_PAIRC1ERKS_ @4875
    _ZN8GIM_PAIRC1Eii @4876
    _ZN8HullDescC1E8HullFlagjPK9btVector3j @4877
    _ZN8HullDescC1Ev @4878
    _ZN9CharacterC1Ev @4879
    _ZN9CharacterC2Ev @4880
    _ZN9CharacterD1Ev @4881
    _ZN9CharacterD2Ev @4882
    _ZN9NodeLinksC1ERKS_ @4883
    _ZN9NodeLinksC1Ev @4884
    _ZN9NodeLinksD1Ev @4885
    _ZN9__gnu_cxx13new_allocatorIP11btRigidBodyE10deallocateEPS2_y @4886
    _ZN9__gnu_cxx13new_allocatorIP11btRigidBodyE7destroyIS2_EEvPT_ @4887
    _ZN9__gnu_cxx13new_allocatorIP11btRigidBodyE8allocateEyPKv @4888
    _ZN9__gnu_cxx13new_allocatorIP11btRigidBodyE9constructIS2_JRKS2_EEEvPT_DpOT0_ @4889
    _ZN9__gnu_cxx13new_allocatorIP11btRigidBodyEC2Ev @4890
    _ZN9__gnu_cxx13new_allocatorIP13RayTestResultE10deallocateEPS2_y @4891
    _ZN9__gnu_cxx13new_allocatorIP13RayTestResultE7destroyIS2_EEvPT_ @4892
    _ZN9__gnu_cxx13new_allocatorIP13RayTestResultE8allocateEyPKv @4893
    _ZN9__gnu_cxx13new_allocatorIP13RayTestResultE9constructIS2_JRKS2_EEEvPT_DpOT0_ @4894
    _ZN9__gnu_cxx13new_allocatorIP13RayTestResultEC2Ev @4895
    _ZN9__gnu_cxx13new_allocatorIP16btCollisionShapeE10deallocateEPS2_y @4896
    _ZN9__gnu_cxx13new_allocatorIP16btCollisionShapeE7destroyIS2_EEvPT_ @4897
    _ZN9__gnu_cxx13new_allocatorIP16btCollisionShapeE8allocateEyPKv @4898
    _ZN9__gnu_cxx13new_allocatorIP16btCollisionShapeE9constructIS2_JRKS2_EEEvPT_DpOT0_ @4899
    _ZN9__gnu_cxx13new_allocatorIP16btCollisionShapeEC2Ev @4900
    _ZN9__gnu_cxx13new_allocatorIP16btRaycastVehicleE10deallocateEPS2_y @4901
    _ZN9__gnu_cxx13new_allocatorIP16btRaycastVehicleE7destroyIS2_EEvPT_ @4902
    _ZN9__gnu_cxx13new_allocatorIP16btRaycastVehicleE8allocateEyPKv @4903
    _ZN9__gnu_cxx13new_allocatorIP16btRaycastVehicleE9constructIS2_JRKS2_EEEvPT_DpOT0_ @4904
    _ZN9__gnu_cxx13new_allocatorIP16btRaycastVehicleEC2Ev @4905
    _ZN9__gnu_cxx13new_allocatorIP17btTypedConstraintE10deallocateEPS2_y @4906
    _ZN9__gnu_cxx13new_allocatorIP17btTypedConstraintE7destroyIS2_EEvPT_ @4907
    _ZN9__gnu_cxx13new_allocatorIP17btTypedConstraintE8allocateEyPKv @4908
    _ZN9__gnu_cxx13new_allocatorIP17btTypedConstraintE9constructIS2_JRKS2_EEEvPT_DpOT0_ @4909
    _ZN9__gnu_cxx13new_allocatorIP17btTypedConstraintEC2Ev @4910
    _ZN9__gnu_cxx13new_allocatorIP9CharacterE10deallocateEPS2_y @4911
    _ZN9__gnu_cxx13new_allocatorIP9CharacterE7destroyIS2_EEvPT_ @4912
    _ZN9__gnu_cxx13new_allocatorIP9CharacterE8allocateEyPKv @4913
    _ZN9__gnu_cxx13new_allocatorIP9CharacterE9constructIS2_JRKS2_EEEvPT_DpOT0_ @4914
    _ZN9__gnu_cxx13new_allocatorIP9CharacterEC2Ev @4915
    _ZN9__gnu_cxx17__normal_iteratorIPP11btRigidBodySt6vectorIS2_SaIS2_EEEC1ERKS3_ @4916
    _ZN9__gnu_cxx17__normal_iteratorIPP13RayTestResultSt6vectorIS2_SaIS2_EEEC1ERKS3_ @4917
    _ZN9__gnu_cxx17__normal_iteratorIPP16btCollisionShapeSt6vectorIS2_SaIS2_EEEC1ERKS3_ @4918
    _ZN9__gnu_cxx17__normal_iteratorIPP16btRaycastVehicleSt6vectorIS2_SaIS2_EEEC1ERKS3_ @4919
    _ZN9__gnu_cxx17__normal_iteratorIPP17btTypedConstraintSt6vectorIS2_SaIS2_EEEC1ERKS3_ @4920
    _ZN9__gnu_cxx17__normal_iteratorIPP9CharacterSt6vectorIS2_SaIS2_EEEC1ERKS3_ @4921
    _ZN9__gnu_cxxmiIPP11btRigidBodySt6vectorIS2_SaIS2_EEEENS_17__normal_iteratorIT_T0_E15difference_typeERKSA_SD_ @4922
    _ZN9__gnu_cxxmiIPP13RayTestResultSt6vectorIS2_SaIS2_EEEENS_17__normal_iteratorIT_T0_E15difference_typeERKSA_SD_ @4923
    _ZN9__gnu_cxxmiIPP16btCollisionShapeSt6vectorIS2_SaIS2_EEEENS_17__normal_iteratorIT_T0_E15difference_typeERKSA_SD_ @4924
    _ZN9__gnu_cxxmiIPP16btRaycastVehicleSt6vectorIS2_SaIS2_EEEENS_17__normal_iteratorIT_T0_E15difference_typeERKSA_SD_ @4925
    _ZN9__gnu_cxxmiIPP17btTypedConstraintSt6vectorIS2_SaIS2_EEEENS_17__normal_iteratorIT_T0_E15difference_typeERKSA_SD_ @4926
    _ZN9__gnu_cxxmiIPP9CharacterSt6vectorIS2_SaIS2_EEEENS_17__normal_iteratorIT_T0_E15difference_typeERKSA_SD_ @4927
    _ZN9btBvhTree10build_treeER18GIM_BVH_DATA_ARRAY @4928
    _ZN9btBvhTree12setNodeBoundEiRK6btAABB @4929
    _ZN9btBvhTree15_build_sub_treeER18GIM_BVH_DATA_ARRAYii @4930
    _ZN9btBvhTree20_calc_splitting_axisER18GIM_BVH_DATA_ARRAYii @4931
    _ZN9btBvhTree30_sort_and_calc_splitting_indexER18GIM_BVH_DATA_ARRAYiii @4932
    _ZN9btHashInt7setUid1Ei @4933
    _ZN9btHashIntC1Ei @4934
    _ZN9btHashKeyI10btTriIndexEC1Ei @4935
    _ZN9btHashMapI12btHashStringP16btCollisionShapeE10growTablesERKS0_ @4936
    _ZN9btHashMapI12btHashStringP16btCollisionShapeE4findERKS0_ @4937
    _ZN9btHashMapI12btHashStringP16btCollisionShapeE6insertERKS0_RKS2_ @4938
    _ZN9btHashMapI12btHashStringP16btCollisionShapeEC1Ev @4939
    _ZN9btHashMapI12btHashStringP16btCollisionShapeED1Ev @4940
    _ZN9btHashMapI12btHashStringP17btCollisionObjectE10growTablesERKS0_ @4941
    _ZN9btHashMapI12btHashStringP17btCollisionObjectE4findERKS0_ @4942
    _ZN9btHashMapI12btHashStringP17btCollisionObjectE6insertERKS0_RKS2_ @4943
    _ZN9btHashMapI12btHashStringP17btCollisionObjectEC1Ev @4944
    _ZN9btHashMapI12btHashStringP17btCollisionObjectED1Ev @4945
    _ZN9btHashMapI20btInternalVertexPair14btInternalEdgeE10growTablesERKS0_ @4946
    _ZN9btHashMapI20btInternalVertexPair14btInternalEdgeE4findERKS0_ @4947
    _ZN9btHashMapI20btInternalVertexPair14btInternalEdgeE6insertERKS0_RKS1_ @4948
    _ZN9btHashMapI20btInternalVertexPair14btInternalEdgeEC1Ev @4949
    _ZN9btHashMapI20btInternalVertexPair14btInternalEdgeED1Ev @4950
    _ZN9btHashMapI9btHashInt14btTriangleInfoE10growTablesERKS0_ @4951
    _ZN9btHashMapI9btHashInt14btTriangleInfoE4findERKS0_ @4952
    _ZN9btHashMapI9btHashInt14btTriangleInfoE6insertERKS0_RKS1_ @4953
    _ZN9btHashMapI9btHashInt14btTriangleInfoEC2Ev @4954
    _ZN9btHashMapI9btHashInt14btTriangleInfoED2Ev @4955
    _ZN9btHashMapI9btHashKeyI10btTriIndexES1_E10getAtIndexEi @4956
    _ZN9btHashMapI9btHashKeyI10btTriIndexES1_E10growTablesERKS2_ @4957
    _ZN9btHashMapI9btHashKeyI10btTriIndexES1_E4findERKS2_ @4958
    _ZN9btHashMapI9btHashKeyI10btTriIndexES1_E5clearEv @4959
    _ZN9btHashMapI9btHashKeyI10btTriIndexES1_E6insertERKS2_RKS1_ @4960
    _ZN9btHashMapI9btHashKeyI10btTriIndexES1_EC1Ev @4961
    _ZN9btHashMapI9btHashKeyI10btTriIndexES1_ED1Ev @4962
    _ZN9btHashMapI9btHashKeyI10btTriIndexES1_EixERKS2_ @4963
    _ZN9btHashMapI9btHashPtrP14btOptimizedBvhE10growTablesERKS0_ @4964
    _ZN9btHashMapI9btHashPtrP14btOptimizedBvhE4findERKS0_ @4965
    _ZN9btHashMapI9btHashPtrP14btOptimizedBvhE6insertERKS0_RKS2_ @4966
    _ZN9btHashMapI9btHashPtrP14btOptimizedBvhEC1Ev @4967
    _ZN9btHashMapI9btHashPtrP14btOptimizedBvhED1Ev @4968
    _ZN9btHashMapI9btHashPtrP16btCollisionShapeE10growTablesERKS0_ @4969
    _ZN9btHashMapI9btHashPtrP16btCollisionShapeE4findERKS0_ @4970
    _ZN9btHashMapI9btHashPtrP16btCollisionShapeE5clearEv @4971
    _ZN9btHashMapI9btHashPtrP16btCollisionShapeE6insertERKS0_RKS2_ @4972
    _ZN9btHashMapI9btHashPtrP16btCollisionShapeEC1Ev @4973
    _ZN9btHashMapI9btHashPtrP16btCollisionShapeED1Ev @4974
    _ZN9btHashMapI9btHashPtrP17btCollisionObjectE10growTablesERKS0_ @4975
    _ZN9btHashMapI9btHashPtrP17btCollisionObjectE5clearEv @4976
    _ZN9btHashMapI9btHashPtrP17btCollisionObjectE6insertERKS0_RKS2_ @4977
    _ZN9btHashMapI9btHashPtrP17btCollisionObjectEC1Ev @4978
    _ZN9btHashMapI9btHashPtrP17btCollisionObjectED1Ev @4979
    _ZN9btHashMapI9btHashPtrP17btTriangleInfoMapEC1Ev @4980
    _ZN9btHashMapI9btHashPtrP17btTriangleInfoMapED1Ev @4981
    _ZN9btHashMapI9btHashPtrPKcE10growTablesERKS0_ @4982
    _ZN9btHashMapI9btHashPtrPKcE6insertERKS0_RKS2_ @4983
    _ZN9btHashMapI9btHashPtrPKcEC1Ev @4984
    _ZN9btHashMapI9btHashPtrPKcED1Ev @4985
    _ZN9btHashMapI9btHashPtriE10growTablesERKS0_ @4986
    _ZN9btHashMapI9btHashPtriE4findERKS0_ @4987
    _ZN9btHashMapI9btHashPtriE6insertERKS0_RKi @4988
    _ZN9btHashMapI9btHashPtriEC1Ev @4989
    _ZN9btHashMapI9btHashPtriED1Ev @4990
    _ZN9btHashPtrC1EPKv @4991
    _ZN9btMatrixXIfE11setIdentityEv @4992
    _ZN9btMatrixXIfE12setSubMatrixEiiiiRK9btVectorXIfE @4993
    _ZN9btMatrixXIfE12setSubMatrixEiiiiRKS0_ @4994
    _ZN9btMatrixXIfE12setSubMatrixEiiiif @4995
    _ZN9btMatrixXIfE13multiply2_p8rEPKfS2_iiii @4996
    _ZN9btMatrixXIfE16multiplyAdd2_p8rEPKfS2_iiii @4997
    _ZN9btMatrixXIfE24copyLowerToUpperTriangleEv @4998
    _ZN9btMatrixXIfE6resizeEii @4999
    _ZN9btMatrixXIfE7addElemEiif @5000
    _ZN9btMatrixXIfE7mulElemEiif @5001
    _ZN9btMatrixXIfE7setElemEiif @5002
    _ZN9btMatrixXIfE7setZeroEv @5003
    _ZN9btMatrixXIfE8negativeEv @5004
    _ZN9btMatrixXIfEC1ERKS0_ @5005
    _ZN9btMatrixXIfEC1Eii @5006
    _ZN9btMatrixXIfEC1Ev @5007
    _ZN9btMatrixXIfED1Ev @5008
    _ZN9btMatrixXIfEaSEOS0_ @5009
    _ZN9btMatrixXIfEmlERKS0_ @5010
    _ZN9btPairSet9push_pairEii @5011
    _ZN9btPairSetC1Ev @5012
    _ZN9btPairSetD1Ev @5013
    _ZN9btVector311deSerializeERK18btVector3FloatData @5014
    _ZN9btVector315setInterpolate3ERKS_S1_f @5015
    _ZN9btVector316deSerializeFloatERK18btVector3FloatData @5016
    _ZN9btVector317deSerializeDoubleERK19btVector3DoubleData @5017
    _ZN9btVector34setXEf @5018
    _ZN9btVector34setYEf @5019
    _ZN9btVector34setZEf @5020
    _ZN9btVector36setMaxERKS_ @5021
    _ZN9btVector36setMinERKS_ @5022
    _ZN9btVector37setZeroEv @5023
    _ZN9btVector38setValueERKfS1_S1_ @5024
    _ZN9btVector39normalizeEv @5025
    _ZN9btVector3C1ERKfS1_S1_ @5026
    _ZN9btVector3C1Ev @5027
    _ZN9btVector3C2ERKfS1_S1_ @5028
    _ZN9btVector3C2Ev @5029
    _ZN9btVector3cvPfEv @5030
    _ZN9btVector3dVERKf @5031
    _ZN9btVector3daEPv @5032
    _ZN9btVector3mIERKS_ @5033
    _ZN9btVector3mLERKS_ @5034
    _ZN9btVector3mLERKf @5035
    _ZN9btVector3naEy @5036
    _ZN9btVector3nwEyPv @5037
    _ZN9btVector3pLERKS_ @5038
    _ZN9btVector48setValueERKfS1_S1_S1_ @5039
    _ZN9btVector4C1ERKfS1_S1_S1_ @5040
    _ZN9btVector4C1Ev @5041
    _ZN9btVectorXIfE6resizeEi @5042
    _ZN9btVectorXIfE7setZeroEv @5043
    _ZN9btVectorXIfEC1ERKS0_ @5044
    _ZN9btVectorXIfEC1Ei @5045
    _ZN9btVectorXIfEC1Ev @5046
    _ZN9btVectorXIfED1Ev @5047
    _ZN9btVectorXIfEixEi @5048
    _ZN9gim_arrayI11GIM_CONTACTE10resizeDataEj @5049
    _ZN9gim_arrayI11GIM_CONTACTE11clear_rangeEj @5050
    _ZN9gim_arrayI11GIM_CONTACTE11destroyDataEv @5051
    _ZN9gim_arrayI11GIM_CONTACTE12growingCheckEv @5052
    _ZN9gim_arrayI11GIM_CONTACTE4backEv @5053
    _ZN9gim_arrayI11GIM_CONTACTE5clearEv @5054
    _ZN9gim_arrayI11GIM_CONTACTE9push_backERKS0_ @5055
    _ZN9gim_arrayI13GIM_AABB_DATAE4swapEjj @5056
    _ZN9gim_arrayI13GIM_AABB_DATAEixEy @5057
    _ZN9gim_arrayI15GIM_RSORT_TOKENE10resizeDataEj @5058
    _ZN9gim_arrayI15GIM_RSORT_TOKENE11clear_rangeEj @5059
    _ZN9gim_arrayI15GIM_RSORT_TOKENE11destroyDataEv @5060
    _ZN9gim_arrayI15GIM_RSORT_TOKENE12clear_memoryEv @5061
    _ZN9gim_arrayI15GIM_RSORT_TOKENE5clearEv @5062
    _ZN9gim_arrayI15GIM_RSORT_TOKENE6resizeEjbRKS0_ @5063
    _ZN9gim_arrayI15GIM_RSORT_TOKENE7pointerEv @5064
    _ZN9gim_arrayI15GIM_RSORT_TOKENE7reserveEj @5065
    _ZN9gim_arrayI15GIM_RSORT_TOKENEC1Ej @5066
    _ZN9gim_arrayI15GIM_RSORT_TOKENED1Ev @5067
    _ZN9gim_arrayI15GIM_RSORT_TOKENEixEy @5068
    _ZN9gim_arrayI17GIM_BOX_TREE_NODEE10resizeDataEj @5069
    _ZN9gim_arrayI17GIM_BOX_TREE_NODEE11clear_rangeEj @5070
    _ZN9gim_arrayI17GIM_BOX_TREE_NODEE11destroyDataEv @5071
    _ZN9gim_arrayI17GIM_BOX_TREE_NODEE6resizeEjbRKS0_ @5072
    _ZN9gim_arrayI17GIM_BOX_TREE_NODEE7reserveEj @5073
    _ZN9gim_arrayI17GIM_BOX_TREE_NODEEixEy @5074
    _ZNK10btBoxShape11getNumEdgesEv @5075
    _ZNK10btBoxShape12getNumPlanesEv @5076
    _ZNK10btBoxShape14getNumVerticesEv @5077
    _ZNK10btBoxShape16getPlaneEquationER9btVector4i @5078
    _ZNK10btBoxShape21calculateLocalInertiaEfR9btVector3 @5079
    _ZNK10btBoxShape24getHalfExtentsWithMarginEv @5080
    _ZNK10btBoxShape24localGetSupportingVertexERK9btVector3 @5081
    _ZNK10btBoxShape27getHalfExtentsWithoutMarginEv @5082
    _ZNK10btBoxShape32getPreferredPenetrationDirectionEiR9btVector3 @5083
    _ZNK10btBoxShape36getNumPreferredPenetrationDirectionsEv @5084
    _ZNK10btBoxShape37localGetSupportingVertexWithoutMarginERK9btVector3 @5085
    _ZNK10btBoxShape49batchedUnitVectorGetSupportingVertexWithoutMarginEPK9btVector3PS0_i @5086
    _ZNK10btBoxShape7getAabbERK11btTransformR9btVector3S4_ @5087
    _ZNK10btBoxShape7getEdgeEiR9btVector3S1_ @5088
    _ZNK10btBoxShape7getNameEv @5089
    _ZNK10btBoxShape8getPlaneER9btVector3S1_i @5090
    _ZNK10btBoxShape8isInsideERK9btVector3f @5091
    _ZNK10btBoxShape9getVertexEiR9btVector3 @5092
    _ZNK10btDbvtNode10isinternalEv @5093
    _ZNK10btDbvtNode6isleafEv @5094
    _ZNK10btQuadWord1wEv @5095
    _ZNK10btQuadWord1xEv @5096
    _ZNK10btQuadWord1yEv @5097
    _ZNK10btQuadWord1zEv @5098
    _ZNK10btQuadWord4getXEv @5099
    _ZNK10btQuadWord4getYEv @5100
    _ZNK10btQuadWord4getZEv @5101
    _ZNK10btSoftBody10clusterComEi @5102
    _ZNK10btSoftBody11evaluateComEv @5103
    _ZNK10btSoftBody12checkContactEPK24btCollisionObjectWrapperRK9btVector3fRNS_4sCtiE @5104
    _ZNK10btSoftBody12clusterCountEv @5105
    _ZNK10btSoftBody12getTotalMassEv @5106
    _ZNK10btSoftBody28calculateSerializeBufferSizeEv @5107
    _ZNK10btSoftBody4Body12applyImpulseERKNS_7ImpulseERK9btVector3 @5108
    _ZNK10btSoftBody4Body13applyAImpulseERKNS_7ImpulseE @5109
    _ZNK10btSoftBody4Body13applyDImpulseERK9btVector3S3_ @5110
    _ZNK10btSoftBody4Body13applyVImpulseERK9btVector3S3_ @5111
    _ZNK10btSoftBody4Body14applyDAImpulseERK9btVector3 @5112
    _ZNK10btSoftBody4Body14applyVAImpulseERK9btVector3 @5113
    _ZNK10btSoftBody4Body14linearVelocityEv @5114
    _ZNK10btSoftBody4Body15angularVelocityERK9btVector3 @5115
    _ZNK10btSoftBody4Body15angularVelocityEv @5116
    _ZNK10btSoftBody4Body15invWorldInertiaEv @5117
    _ZNK10btSoftBody4Body5xformEv @5118
    _ZNK10btSoftBody4Body7invMassEv @5119
    _ZNK10btSoftBody4Body8activateEv @5120
    _ZNK10btSoftBody4Body8velocityERK9btVector3 @5121
    _ZNK10btSoftBody6AJoint4TypeEv @5122
    _ZNK10btSoftBody6CJoint4TypeEv @5123
    _ZNK10btSoftBody6LJoint4TypeEv @5124
    _ZNK10btSoftBody7ImpulsemlEf @5125
    _ZNK10btSoftBody7ImpulsengEv @5126
    _ZNK10btSoftBody7getAabbER9btVector3S1_ @5127
    _ZNK10btSoftBody7getMassEi @5128
    _ZNK10btSoftBody7rayTestERK9btVector3S2_RfRNS_8eFeature1_ERib @5129
    _ZNK10btSoftBody9checkFaceEiii @5130
    _ZNK10btSoftBody9checkLinkEPKNS_4NodeES2_ @5131
    _ZNK10btSoftBody9checkLinkEii @5132
    _ZNK10btSoftBody9getVolumeEv @5133
    _ZNK10btSoftBody9serializeEPvP12btSerializer @5134
    _ZNK10btTriIndex6getUidEv @5135
    _ZNK11GIM_CONTACT16calc_key_contactEv @5136
    _ZNK11btConeShape14getConeUpIndexEv @5137
    _ZNK11btConeShape16coneLocalSupportERK9btVector3 @5138
    _ZNK11btConeShape21calculateLocalInertiaEfR9btVector3 @5139
    _ZNK11btConeShape24localGetSupportingVertexERK9btVector3 @5140
    _ZNK11btConeShape28calculateSerializeBufferSizeEv @5141
    _ZNK11btConeShape37localGetSupportingVertexWithoutMarginERK9btVector3 @5142
    _ZNK11btConeShape38getAnisotropicRollingFrictionDirectionEv @5143
    _ZNK11btConeShape49batchedUnitVectorGetSupportingVertexWithoutMarginEPK9btVector3PS0_i @5144
    _ZNK11btConeShape7getNameEv @5145
    _ZNK11btConeShape9getHeightEv @5146
    _ZNK11btConeShape9getRadiusEv @5147
    _ZNK11btConeShape9serializeEPvP12btSerializer @5148
    _ZNK11btMatrix3x311determinantEv @5149
    _ZNK11btMatrix3x311getRotationER12btQuaternion @5150
    _ZNK11btMatrix3x314serializeFloatER20btMatrix3x3FloatData @5151
    _ZNK11btMatrix3x314transposeTimesERKS_ @5152
    _ZNK11btMatrix3x318getOpenGLSubMatrixEPf @5153
    _ZNK11btMatrix3x35cofacEiiii @5154
    _ZNK11btMatrix3x35tdotxERK9btVector3 @5155
    _ZNK11btMatrix3x35tdotyERK9btVector3 @5156
    _ZNK11btMatrix3x35tdotzERK9btVector3 @5157
    _ZNK11btMatrix3x36getRowEi @5158
    _ZNK11btMatrix3x36scaledERK9btVector3 @5159
    _ZNK11btMatrix3x37inverseEv @5160
    _ZNK11btMatrix3x37solve33ERK9btVector3 @5161
    _ZNK11btMatrix3x38absoluteEv @5162
    _ZNK11btMatrix3x39getColumnEi @5163
    _ZNK11btMatrix3x39serializeER20btMatrix3x3FloatData @5164
    _ZNK11btMatrix3x39transposeEv @5165
    _ZNK11btMatrix3x3ixEi @5166
    _ZNK11btMultiBody10getBasePosEv @5167
    _ZNK11btMultiBody10getBaseVelEv @5168
    _ZNK11btMultiBody10getNumDofsEv @5169
    _ZNK11btMultiBody10getRVectorEi @5170
    _ZNK11btMultiBody11getBaseMassEv @5171
    _ZNK11btMultiBody11getJointPosEi @5172
    _ZNK11btMultiBody11getJointVelEi @5173
    _ZNK11btMultiBody11getLinkMassEi @5174
    _ZNK11btMultiBody11getNumLinksEv @5175
    _ZNK11btMultiBody12getBaseOmegaEv @5176
    _ZNK11btMultiBody12getLinkForceEi @5177
    _ZNK11btMultiBody12isPosUpdatedEv @5178
    _ZNK11btMultiBody12solveImatrixERK20btSpatialForceVectorR21btSpatialMotionVector @5179
    _ZNK11btMultiBody12solveImatrixERK9btVector3S2_Pf @5180
    _ZNK11btMultiBody13getLinkTorqueEi @5181
    _ZNK11btMultiBody13getNumPosVarsEv @5182
    _ZNK11btMultiBody14getBaseInertiaEv @5183
    _ZNK11btMultiBody14getCompanionIdEv @5184
    _ZNK11btMultiBody14getJointTorqueEi @5185
    _ZNK11btMultiBody14getLinkInertiaEi @5186
    _ZNK11btMultiBody15localDirToWorldEiRK9btVector3 @5187
    _ZNK11btMultiBody15localPosToWorldEiRK9btVector3 @5188
    _ZNK11btMultiBody15worldDirToLocalEiRK9btVector3 @5189
    _ZNK11btMultiBody15worldPosToLocalEiRK9btVector3 @5190
    _ZNK11btMultiBody16getKineticEnergyEv @5191
    _ZNK11btMultiBody17getVelocityVectorEv @5192
    _ZNK11btMultiBody17getWorldToBaseRotEv @5193
    _ZNK11btMultiBody17localFrameToWorldEiRK11btMatrix3x3 @5194
    _ZNK11btMultiBody18getAngularMomentumEv @5195
    _ZNK11btMultiBody19getJointPosMultiDofEi @5196
    _ZNK11btMultiBody19getJointVelMultiDofEi @5197
    _ZNK11btMultiBody19getParentToLocalRotEi @5198
    _ZNK11btMultiBody21getBaseWorldTransformEv @5199
    _ZNK11btMultiBody21isUsingRK4IntegrationEv @5200
    _ZNK11btMultiBody22compTreeLinkVelocitiesEP9btVector3S1_ @5201
    _ZNK11btMultiBody27fillContactJacobianMultiDofEiRK9btVector3S2_PfR20btAlignedObjectArrayIfERS4_IS0_ERS4_I11btMatrix3x3E @5202
    _ZNK11btMultiBody28calculateSerializeBufferSizeEv @5203
    _ZNK11btMultiBody30calcAccelerationDeltasMultiDofEPKfPfR20btAlignedObjectArrayIfERS3_I9btVector3E @5204
    _ZNK11btMultiBody30fillConstraintJacobianMultiDofEiRK9btVector3S2_S2_PfR20btAlignedObjectArrayIfERS4_IS0_ERS4_I11btMatrix3x3E @5205
    _ZNK11btMultiBody7getLinkEi @5206
    _ZNK11btMultiBody7isAwakeEv @5207
    _ZNK11btMultiBody9getParentEi @5208
    _ZNK11btMultiBody9mulMatrixEPfS0_iiiiS0_ @5209
    _ZNK11btMultiBody9serializeEPvP12btSerializer @5210
    _ZNK11btRigidBody10getInvMassEv @5211
    _ZNK11btRigidBody13getTotalForceEv @5212
    _ZNK11btRigidBody14getOrientationEv @5213
    _ZNK11btRigidBody14getTotalTorqueEv @5214
    _ZNK11btRigidBody15getLinearFactorEv @5215
    _ZNK11btRigidBody15getLocalInertiaEv @5216
    _ZNK11btRigidBody16getAngularFactorEv @5217
    _ZNK11btRigidBody16getLinearDampingEv @5218
    _ZNK11btRigidBody17getAngularDampingEv @5219
    _ZNK11btRigidBody17getCollisionShapeEv @5220
    _ZNK11btRigidBody17getLinearVelocityEv @5221
    _ZNK11btRigidBody18getAngularVelocityEv @5222
    _ZNK11btRigidBody18getBroadphaseProxyEv @5223
    _ZNK11btRigidBody20getNumConstraintRefsEv @5224
    _ZNK11btRigidBody21serializeSingleObjectEP12btSerializer @5225
    _ZNK11btRigidBody22getInvInertiaDiagLocalEv @5226
    _ZNK11btRigidBody23getCenterOfMassPositionEv @5227
    _ZNK11btRigidBody23getVelocityInLocalPointERK9btVector3 @5228
    _ZNK11btRigidBody24getCenterOfMassTransformEv @5229
    _ZNK11btRigidBody24getInvInertiaTensorWorldEv @5230
    _ZNK11btRigidBody25computeImpulseDenominatorERK9btVector3S2_ @5231
    _ZNK11btRigidBody28calculateSerializeBufferSizeEv @5232
    _ZNK11btRigidBody30computeGyroscopicForceExplicitEf @5233
    _ZNK11btRigidBody32computeAngularImpulseDenominatorERK9btVector3 @5234
    _ZNK11btRigidBody37computeGyroscopicImpulseImplicit_BodyEf @5235
    _ZNK11btRigidBody38computeGyroscopicImpulseImplicit_WorldEf @5236
    _ZNK11btRigidBody7getAabbER9btVector3S1_ @5237
    _ZNK11btRigidBody8getFlagsEv @5238
    _ZNK11btRigidBody9isInWorldEv @5239
    _ZNK11btRigidBody9serializeEPvP12btSerializer @5240
    _ZNK11btShapeHull10numIndicesEv @5241
    _ZNK11btShapeHull11numVerticesEv @5242
    _ZNK11btShapeHull12numTrianglesEv @5243
    _ZNK11btSymMatrixIiE5indexEii @5244
    _ZNK11btTransform11getRotationEv @5245
    _ZNK11btTransform12inverseTimesERKS_ @5246
    _ZNK11btTransform14serializeFloatER20btTransformFloatData @5247
    _ZNK11btTransform15getOpenGLMatrixEPf @5248
    _ZNK11btTransform7inverseEv @5249
    _ZNK11btTransform8getBasisEv @5250
    _ZNK11btTransform8invXformERK9btVector3 @5251
    _ZNK11btTransform9getOriginEv @5252
    _ZNK11btTransform9serializeER20btTransformFloatData @5253
    _ZNK11btTransformclERK9btVector3 @5254
    _ZNK11btTransformmlERK9btVector3 @5255
    _ZNK11btTransformmlERKS_ @5256
    _ZNK11btUnionFind14getNumElementsEv @5257
    _ZNK11btWheelInfo23getSuspensionRestLengthEv @5258
    _ZNK12GIM_TRIANGLE26collide_triangle_hard_testERKS_R25GIM_TRIANGLE_CONTACT_DATA @5259
    _ZNK12btBox2dShape10getNormalsEv @5260
    _ZNK12btBox2dShape11getCentroidEv @5261
    _ZNK12btBox2dShape11getNumEdgesEv @5262
    _ZNK12btBox2dShape11getVerticesEv @5263
    _ZNK12btBox2dShape12getNumPlanesEv @5264
    _ZNK12btBox2dShape14getNumVerticesEv @5265
    _ZNK12btBox2dShape14getVertexCountEv @5266
    _ZNK12btBox2dShape16getPlaneEquationER9btVector4i @5267
    _ZNK12btBox2dShape21calculateLocalInertiaEfR9btVector3 @5268
    _ZNK12btBox2dShape24getHalfExtentsWithMarginEv @5269
    _ZNK12btBox2dShape24localGetSupportingVertexERK9btVector3 @5270
    _ZNK12btBox2dShape27getHalfExtentsWithoutMarginEv @5271
    _ZNK12btBox2dShape32getPreferredPenetrationDirectionEiR9btVector3 @5272
    _ZNK12btBox2dShape36getNumPreferredPenetrationDirectionsEv @5273
    _ZNK12btBox2dShape37localGetSupportingVertexWithoutMarginERK9btVector3 @5274
    _ZNK12btBox2dShape49batchedUnitVectorGetSupportingVertexWithoutMarginEPK9btVector3PS0_i @5275
    _ZNK12btBox2dShape7getAabbERK11btTransformR9btVector3S4_ @5276
    _ZNK12btBox2dShape7getEdgeEiR9btVector3S1_ @5277
    _ZNK12btBox2dShape7getNameEv @5278
    _ZNK12btBox2dShape8getPlaneER9btVector3S1_i @5279
    _ZNK12btBox2dShape8isInsideERK9btVector3f @5280
    _ZNK12btBox2dShape9getVertexEiR9btVector3 @5281
    _ZNK12btConeShapeX38getAnisotropicRollingFrictionDirectionEv @5282
    _ZNK12btConeShapeX7getNameEv @5283
    _ZNK12btConeShapeZ38getAnisotropicRollingFrictionDirectionEv @5284
    _ZNK12btConeShapeZ7getNameEv @5285
    _ZNK12btDbvtAabbMm4MaxsEv @5286
    _ZNK12btDbvtAabbMm4MinsEv @5287
    _ZNK12btDbvtAabbMm6CenterEv @5288
    _ZNK12btDbvtAabbMm7ContainERKS_ @5289
    _ZNK12btDbvtAabbMm7ExtentsEv @5290
    _ZNK12btDbvtAabbMm7LengthsEv @5291
    _ZNK12btEmptyShape15getLocalScalingEv @5292
    _ZNK12btEmptyShape19processAllTrianglesEP18btTriangleCallbackRK9btVector3S4_ @5293
    _ZNK12btEmptyShape21calculateLocalInertiaEfR9btVector3 @5294
    _ZNK12btEmptyShape7getAabbERK11btTransformR9btVector3S4_ @5295
    _ZNK12btEmptyShape7getNameEv @5296
    _ZNK12btGImpactBvh10isLeafNodeEi @5297
    _ZNK12btGImpactBvh11getLeftNodeEi @5298
    _ZNK12btGImpactBvh11getNodeDataEi @5299
    _ZNK12btGImpactBvh12getNodeBoundEiR6btAABB @5300
    _ZNK12btGImpactBvh12getNodeCountEv @5301
    _ZNK12btGImpactBvh12getRightNodeEi @5302
    _ZNK12btGImpactBvh18getEscapeNodeIndexEi @5303
    _ZNK12btGImpactBvh8boxQueryERK6btAABBR20btAlignedObjectArrayIiE @5304
    _ZNK12btGImpactBvh8rayQueryERK9btVector3S2_R20btAlignedObjectArrayIiE @5305
    _ZNK12btHashString21portableStringCompareEPKcS1_ @5306
    _ZNK12btHashString6equalsERKS_ @5307
    _ZNK12btHashString7getHashEv @5308
    _ZNK12btMLCPSolver13getSolverTypeEv @5309
    _ZNK12btPlaneShape30get_plane_equation_transformedERK11btTransformR9btVector4 @5310
    _ZNK12btQuaternion3dotERKS_ @5311
    _ZNK12btQuaternion4getWEv @5312
    _ZNK12btQuaternion6lengthEv @5313
    _ZNK12btQuaternion7inverseEv @5314
    _ZNK12btQuaternion7length2Ev @5315
    _ZNK12btQuaternion8getAngleEv @5316
    _ZNK12btQuaternion9serializeER21btQuaternionFloatData @5317
    _ZNK12btQuaternionngEv @5318
    _ZNK12btSolverBody17getWorldTransformEv @5319
    _ZNK12btSolverBody18internalGetInvMassEv @5320
    _ZNK12btSolverBody26internalGetAngularVelocityER9btVector3 @5321
    _ZNK12btSolverBody30getVelocityInLocalPointNoDeltaERK9btVector3RS0_ @5322
    _ZNK12btSolverBody39internalGetVelocityInLocalPointObsoleteERK9btVector3RS0_ @5323
    _ZNK12gjkepa2_impl13MinkowskiDiff7SupportERK9btVector3 @5324
    _ZNK12gjkepa2_impl13MinkowskiDiff7SupportERK9btVector3j @5325
    _ZNK12gjkepa2_impl13MinkowskiDiff8Support0ERK9btVector3 @5326
    _ZNK12gjkepa2_impl13MinkowskiDiff8Support1ERK9btVector3 @5327
    _ZNK12gjkepa2_impl3GJK10getsupportERK9btVector3RNS0_3sSVE @5328
    _ZNK13btConvexShape17getAabbNonVirtualERK11btTransformR9btVector3S4_ @5329
    _ZNK13btConvexShape19getMarginNonVirtualEv @5330
    _ZNK13btConvexShape31localGetSupportVertexNonVirtualERK9btVector3 @5331
    _ZNK13btConvexShape44localGetSupportVertexWithoutMarginNonVirtualERK9btVector3 @5332
    _ZNK13btConvexShape7projectERK11btTransformRK9btVector3RfS6_RS3_S7_ @5333
    _ZNK13btGhostObject15convexSweepTestEPK13btConvexShapeRK11btTransformS5_RN16btCollisionWorld20ConvexResultCallbackEf @5334
    _ZNK13btGhostObject7rayTestERK9btVector3S2_RN16btCollisionWorld17RayResultCallbackE @5335
    _ZNK13btSphereShape21calculateLocalInertiaEfR9btVector3 @5336
    _ZNK13btSphereShape24localGetSupportingVertexERK9btVector3 @5337
    _ZNK13btSphereShape37localGetSupportingVertexWithoutMarginERK9btVector3 @5338
    _ZNK13btSphereShape49batchedUnitVectorGetSupportingVertexWithoutMarginEPK9btVector3PS0_i @5339
    _ZNK13btSphereShape7getAabbERK11btTransformR9btVector3S4_ @5340
    _ZNK13btSphereShape7getNameEv @5341
    _ZNK13btSphereShape9getMarginEv @5342
    _ZNK13btSphereShape9getRadiusEv @5343
    _ZNK14btAngularLimit11getSoftnessEv @5344
    _ZNK14btAngularLimit12getHalfRangeEv @5345
    _ZNK14btAngularLimit13getBiasFactorEv @5346
    _ZNK14btAngularLimit13getCorrectionEv @5347
    _ZNK14btAngularLimit19getRelaxationFactorEv @5348
    _ZNK14btAngularLimit3fitERf @5349
    _ZNK14btAngularLimit6getLowEv @5350
    _ZNK14btAngularLimit7getHighEv @5351
    _ZNK14btAngularLimit7isLimitEv @5352
    _ZNK14btAngularLimit8getErrorEv @5353
    _ZNK14btCapsuleShape13getHalfHeightEv @5354
    _ZNK14btCapsuleShape21calculateLocalInertiaEfR9btVector3 @5355
    _ZNK14btCapsuleShape28calculateSerializeBufferSizeEv @5356
    _ZNK14btCapsuleShape37localGetSupportingVertexWithoutMarginERK9btVector3 @5357
    _ZNK14btCapsuleShape38getAnisotropicRollingFrictionDirectionEv @5358
    _ZNK14btCapsuleShape49batchedUnitVectorGetSupportingVertexWithoutMarginEPK9btVector3PS0_i @5359
    _ZNK14btCapsuleShape7getAabbERK11btTransformR9btVector3S4_ @5360
    _ZNK14btCapsuleShape7getNameEv @5361
    _ZNK14btCapsuleShape9getRadiusEv @5362
    _ZNK14btCapsuleShape9getUpAxisEv @5363
    _ZNK14btCapsuleShape9serializeEPvP12btSerializer @5364
    _ZNK14btConcaveShape9getMarginEv @5365
    _ZNK14btOptimizedBvh16serializeInPlaceEPvjb @5366
    _ZNK14btQuantizedBvh10getAabbMaxEi @5367
    _ZNK14btQuantizedBvh10getAabbMinEi @5368
    _ZNK14btQuantizedBvh10unQuantizeEPKt @5369
    _ZNK14btQuantizedBvh17quantizeWithClampEPtRK9btVector3i @5370
    _ZNK14btQuantizedBvh17walkStacklessTreeEP21btNodeOverlapCallbackRK9btVector3S4_ @5371
    _ZNK14btQuantizedBvh25reportRayOverlappingNodexEP21btNodeOverlapCallbackRK9btVector3S4_ @5372
    _ZNK14btQuantizedBvh26reportAabbOverlappingNodexEP21btNodeOverlapCallbackRK9btVector3S4_ @5373
    _ZNK14btQuantizedBvh26walkStacklessQuantizedTreeEP21btNodeOverlapCallbackPtS2_ii @5374
    _ZNK14btQuantizedBvh27walkStacklessTreeAgainstRayEP21btNodeOverlapCallbackRK9btVector3S4_S4_S4_ii @5375
    _ZNK14btQuantizedBvh28calculateSerializeBufferSizeEv @5376
    _ZNK14btQuantizedBvh29reportBoxCastOverlappingNodexEP21btNodeOverlapCallbackRK9btVector3S4_S4_S4_ @5377
    _ZNK14btQuantizedBvh31calculateSerializeBufferSizeNewEv @5378
    _ZNK14btQuantizedBvh36walkStacklessQuantizedTreeAgainstRayEP21btNodeOverlapCallbackRK9btVector3S4_S4_S4_ii @5379
    _ZNK14btQuantizedBvh39walkStacklessQuantizedTreeCacheFriendlyEP21btNodeOverlapCallbackPtS2_ @5380
    _ZNK14btQuantizedBvh42walkRecursiveQuantizedTreeAgainstQueryAabbEPK18btQuantizedBvhNodeP21btNodeOverlapCallbackPtS5_ @5381
    _ZNK14btQuantizedBvh8quantizeEPtRK9btVector3i @5382
    _ZNK14btQuantizedBvh9serializeEPvP12btSerializer @5383
    _ZNK14btQuantizedBvh9serializeEPvjb @5384
    _ZNK14btTriangleMesh15getNumTrianglesEv @5385
    _ZNK15btCapsuleShapeX7getNameEv @5386
    _ZNK15btCapsuleShapeZ7getNameEv @5387
    _ZNK15btCompoundShape13getChildShapeEi @5388
    _ZNK15btCompoundShape15getLocalScalingEv @5389
    _ZNK15btCompoundShape17getChildTransformEi @5390
    _ZNK15btCompoundShape17getNumChildShapesEv @5391
    _ZNK15btCompoundShape17getUpdateRevisionEv @5392
    _ZNK15btCompoundShape18getDynamicAabbTreeEv @5393
    _ZNK15btCompoundShape21calculateLocalInertiaEfR9btVector3 @5394
    _ZNK15btCompoundShape28calculateSerializeBufferSizeEv @5395
    _ZNK15btCompoundShape31calculatePrincipalAxisTransformEPfR11btTransformR9btVector3 @5396
    _ZNK15btCompoundShape7getAabbERK11btTransformR9btVector3S4_ @5397
    _ZNK15btCompoundShape7getNameEv @5398
    _ZNK15btCompoundShape9getMarginEv @5399
    _ZNK15btCompoundShape9serializeEPvP12btSerializer @5400
    _ZNK15btConvex2dShape11getAabbSlowERK11btTransformR9btVector3S4_ @5401
    _ZNK15btConvex2dShape15getLocalScalingEv @5402
    _ZNK15btConvex2dShape21calculateLocalInertiaEfR9btVector3 @5403
    _ZNK15btConvex2dShape24localGetSupportingVertexERK9btVector3 @5404
    _ZNK15btConvex2dShape32getPreferredPenetrationDirectionEiR9btVector3 @5405
    _ZNK15btConvex2dShape36getNumPreferredPenetrationDirectionsEv @5406
    _ZNK15btConvex2dShape37localGetSupportingVertexWithoutMarginERK9btVector3 @5407
    _ZNK15btConvex2dShape49batchedUnitVectorGetSupportingVertexWithoutMarginEPK9btVector3PS0_i @5408
    _ZNK15btConvex2dShape7getAabbERK11btTransformR9btVector3S4_ @5409
    _ZNK15btConvex2dShape7getNameEv @5410
    _ZNK15btConvex2dShape9getMarginEv @5411
    _ZNK15btCylinderShape21calculateLocalInertiaEfR9btVector3 @5412
    _ZNK15btCylinderShape24getHalfExtentsWithMarginEv @5413
    _ZNK15btCylinderShape24localGetSupportingVertexERK9btVector3 @5414
    _ZNK15btCylinderShape27getHalfExtentsWithoutMarginEv @5415
    _ZNK15btCylinderShape28calculateSerializeBufferSizeEv @5416
    _ZNK15btCylinderShape37localGetSupportingVertexWithoutMarginERK9btVector3 @5417
    _ZNK15btCylinderShape38getAnisotropicRollingFrictionDirectionEv @5418
    _ZNK15btCylinderShape49batchedUnitVectorGetSupportingVertexWithoutMarginEPK9btVector3PS0_i @5419
    _ZNK15btCylinderShape7getAabbERK11btTransformR9btVector3S4_ @5420
    _ZNK15btCylinderShape7getNameEv @5421
    _ZNK15btCylinderShape9getRadiusEv @5422
    _ZNK15btCylinderShape9getUpAxisEv @5423
    _ZNK15btCylinderShape9serializeEPvP12btSerializer @5424
    _ZNK15btDynamicsWorld13getConstraintEi @5425
    _ZNK15btDynamicsWorld17getNumConstraintsEv @5426
    _ZNK15btJacobianEntry11getDiagonalEv @5427
    _ZNK15btJacobianEntry14getNonDiagonalERKS_ff @5428
    _ZNK15btManifoldPoint11getDistanceEv @5429
    _ZNK15btManifoldPoint11getLifeTimeEv @5430
    _ZNK15btManifoldPoint19getPositionWorldOnAEv @5431
    _ZNK15btManifoldPoint19getPositionWorldOnBEv @5432
    _ZNK15btMultibodyLink10getAxisTopEi @5433
    _ZNK15btMultibodyLink13getAxisBottomEi @5434
    _ZNK15btNullPairCache22getNumOverlappingPairsEv @5435
    _ZNK15btNullPairCache26getOverlappingPairArrayPtrEv @5436
    _ZNK15btPoolAllocator14getElementSizeEv @5437
    _ZNK15btSoftColliders13CollideSDF_RS6DoNodeERN10btSoftBody4NodeE @5438
    _ZNK15btTriangleShape10calcNormalER9btVector3 @5439
    _ZNK15btTriangleShape11getNumEdgesEv @5440
    _ZNK15btTriangleShape12getNumPlanesEv @5441
    _ZNK15btTriangleShape14getNumVerticesEv @5442
    _ZNK15btTriangleShape16getPlaneEquationEiR9btVector3S1_ @5443
    _ZNK15btTriangleShape21calculateLocalInertiaEfR9btVector3 @5444
    _ZNK15btTriangleShape32getPreferredPenetrationDirectionEiR9btVector3 @5445
    _ZNK15btTriangleShape36getNumPreferredPenetrationDirectionsEv @5446
    _ZNK15btTriangleShape37localGetSupportingVertexWithoutMarginERK9btVector3 @5447
    _ZNK15btTriangleShape49batchedUnitVectorGetSupportingVertexWithoutMarginEPK9btVector3PS0_i @5448
    _ZNK15btTriangleShape7getAabbERK11btTransformR9btVector3S4_ @5449
    _ZNK15btTriangleShape7getEdgeEiR9btVector3S1_ @5450
    _ZNK15btTriangleShape7getNameEv @5451
    _ZNK15btTriangleShape8getPlaneER9btVector3S1_i @5452
    _ZNK15btTriangleShape8isInsideERK9btVector3f @5453
    _ZNK15btTriangleShape9getVertexEiR9btVector3 @5454
    _ZNK16btBU_Simplex1to411getNumEdgesEv @5455
    _ZNK16btBU_Simplex1to412getNumPlanesEv @5456
    _ZNK16btBU_Simplex1to414getNumVerticesEv @5457
    _ZNK16btBU_Simplex1to47getAabbERK11btTransformR9btVector3S4_ @5458
    _ZNK16btBU_Simplex1to47getEdgeEiR9btVector3S1_ @5459
    _ZNK16btBU_Simplex1to47getNameEv @5460
    _ZNK16btBU_Simplex1to48getIndexEi @5461
    _ZNK16btBU_Simplex1to48getPlaneER9btVector3S1_i @5462
    _ZNK16btBU_Simplex1to48isInsideERK9btVector3f @5463
    _ZNK16btBU_Simplex1to49getVertexEiR9btVector3 @5464
    _ZNK16btCollisionShape10isCompoundEv @5465
    _ZNK16btCollisionShape10isConvex2dEv @5466
    _ZNK16btCollisionShape10isSoftBodyEv @5467
    _ZNK16btCollisionShape12getShapeTypeEv @5468
    _ZNK16btCollisionShape12isPolyhedralEv @5469
    _ZNK16btCollisionShape14getUserPointerEv @5470
    _ZNK16btCollisionShape17getBoundingSphereER9btVector3Rf @5471
    _ZNK16btCollisionShape20getAngularMotionDiscEv @5472
    _ZNK16btCollisionShape20serializeSingleShapeEP12btSerializer @5473
    _ZNK16btCollisionShape21calculateTemporalAabbERK11btTransformRK9btVector3S5_fRS3_S6_ @5474
    _ZNK16btCollisionShape27getContactBreakingThresholdEf @5475
    _ZNK16btCollisionShape28calculateSerializeBufferSizeEv @5476
    _ZNK16btCollisionShape38getAnisotropicRollingFrictionDirectionEv @5477
    _ZNK16btCollisionShape8isConvexEv @5478
    _ZNK16btCollisionShape9isConcaveEv @5479
    _ZNK16btCollisionShape9serializeEPvP12btSerializer @5480
    _ZNK16btCollisionWorld15convexSweepTestEPK13btConvexShapeRK11btTransformS5_RNS_20ConvexResultCallbackEf @5481
    _ZNK16btCollisionWorld17RayResultCallback14needsCollisionEP17btBroadphaseProxy @5482
    _ZNK16btCollisionWorld17RayResultCallback6hasHitEv @5483
    _ZNK16btCollisionWorld20ConvexResultCallback14needsCollisionEP17btBroadphaseProxy @5484
    _ZNK16btCollisionWorld20ConvexResultCallback6hasHitEv @5485
    _ZNK16btCollisionWorld22getNumCollisionObjectsEv @5486
    _ZNK16btCollisionWorld7rayTestERK9btVector3S2_RNS_17RayResultCallbackE @5487
    _ZNK16btCylinderShapeX37localGetSupportingVertexWithoutMarginERK9btVector3 @5488
    _ZNK16btCylinderShapeX49batchedUnitVectorGetSupportingVertexWithoutMarginEPK9btVector3PS0_i @5489
    _ZNK16btCylinderShapeX7getNameEv @5490
    _ZNK16btCylinderShapeX9getRadiusEv @5491
    _ZNK16btCylinderShapeZ37localGetSupportingVertexWithoutMarginERK9btVector3 @5492
    _ZNK16btCylinderShapeZ49batchedUnitVectorGetSupportingVertexWithoutMarginEPK9btVector3PS0_i @5493
    _ZNK16btCylinderShapeZ7getNameEv @5494
    _ZNK16btCylinderShapeZ9getRadiusEv @5495
    _ZNK16btDbvtBroadphase17getBroadphaseAabbER9btVector3S1_ @5496
    _ZNK16btDbvtBroadphase23getOverlappingPairCacheEv @5497
    _ZNK16btDbvtBroadphase7getAabbEP17btBroadphaseProxyR9btVector3S3_ @5498
    _ZNK16btGearConstraint28calculateSerializeBufferSizeEv @5499
    _ZNK16btGearConstraint8getParamEii @5500
    _ZNK16btGearConstraint9serializeEPvP12btSerializer @5501
    _ZNK16btManifoldResult12getBody0WrapEv @5502
    _ZNK16btManifoldResult12getBody1WrapEv @5503
    _ZNK16btManifoldResult16getBody0InternalEv @5504
    _ZNK16btRaycastVehicle12getNumWheelsEv @5505
    _ZNK16btRaycastVehicle12getRightAxisEv @5506
    _ZNK16btRaycastVehicle12getRigidBodyEv @5507
    _ZNK16btRaycastVehicle12getWheelInfoEi @5508
    _ZNK16btRaycastVehicle16getSteeringValueEi @5509
    _ZNK16btRaycastVehicle19getWheelTransformWSEi @5510
    _ZNK16btRaycastVehicle24getChassisWorldTransformEv @5511
    _ZNK17CONTACT_KEY_TOKENltERKS_ @5512
    _ZNK17GIM_BVH_TREE_NODE10isLeafNodeEv @5513
    _ZNK17GIM_BVH_TREE_NODE12getDataIndexEv @5514
    _ZNK17GIM_BVH_TREE_NODE14getEscapeIndexEv @5515
    _ZNK17btBroadphaseProxy6getUidEv @5516
    _ZNK17btCollisionObject11getFrictionEv @5517
    _ZNK17btCollisionObject12getIslandTagEv @5518
    _ZNK17btCollisionObject12getUserIndexEv @5519
    _ZNK17btCollisionObject14getCompanionIdEv @5520
    _ZNK17btCollisionObject14getHitFractionEv @5521
    _ZNK17btCollisionObject14getRestitutionEv @5522
    _ZNK17btCollisionObject14getUserPointerEv @5523
    _ZNK17btCollisionObject14isStaticObjectEv @5524
    _ZNK17btCollisionObject15getInternalTypeEv @5525
    _ZNK17btCollisionObject16checkCollideWithEPKS_ @5526
    _ZNK17btCollisionObject17getCollisionFlagsEv @5527
    _ZNK17btCollisionObject17getCollisionShapeEv @5528
    _ZNK17btCollisionObject17getContactDampingEv @5529
    _ZNK17btCollisionObject17getWorldTransformEv @5530
    _ZNK17btCollisionObject17isKinematicObjectEv @5531
    _ZNK17btCollisionObject18getActivationStateEv @5532
    _ZNK17btCollisionObject18getRollingFrictionEv @5533
    _ZNK17btCollisionObject18getWorldArrayIndexEv @5534
    _ZNK17btCollisionObject18hasContactResponseEv @5535
    _ZNK17btCollisionObject18setActivationStateEi @5536
    _ZNK17btCollisionObject19getBroadphaseHandleEv @5537
    _ZNK17btCollisionObject19getContactStiffnessEv @5538
    _ZNK17btCollisionObject19getCustomDebugColorER9btVector3 @5539
    _ZNK17btCollisionObject19getSpinningFrictionEv @5540
    _ZNK17btCollisionObject20forceActivationStateEi @5541
    _ZNK17btCollisionObject21serializeSingleObjectEP12btSerializer @5542
    _ZNK17btCollisionObject22getAnisotropicFrictionEv @5543
    _ZNK17btCollisionObject22hasAnisotropicFrictionEi @5544
    _ZNK17btCollisionObject23getCcdSweptSphereRadiusEv @5545
    _ZNK17btCollisionObject23mergesSimulationIslandsEv @5546
    _ZNK17btCollisionObject24checkCollideWithOverrideEPKS_ @5547
    _ZNK17btCollisionObject25isStaticOrKinematicObjectEv @5548
    _ZNK17btCollisionObject27getCcdSquareMotionThresholdEv @5549
    _ZNK17btCollisionObject28calculateSerializeBufferSizeEv @5550
    _ZNK17btCollisionObject29getContactProcessingThresholdEv @5551
    _ZNK17btCollisionObject30getInterpolationLinearVelocityEv @5552
    _ZNK17btCollisionObject31getInterpolationAngularVelocityEv @5553
    _ZNK17btCollisionObject8activateEb @5554
    _ZNK17btCollisionObject8isActiveEv @5555
    _ZNK17btCollisionObject9serializeEPvP12btSerializer @5556
    _ZNK17btConvexHullShape11getNumEdgesEv @5557
    _ZNK17btConvexHullShape12getNumPlanesEv @5558
    _ZNK17btConvexHullShape12getNumPointsEv @5559
    _ZNK17btConvexHullShape14getNumVerticesEv @5560
    _ZNK17btConvexHullShape14getScaledPointEi @5561
    _ZNK17btConvexHullShape24localGetSupportingVertexERK9btVector3 @5562
    _ZNK17btConvexHullShape28calculateSerializeBufferSizeEv @5563
    _ZNK17btConvexHullShape37localGetSupportingVertexWithoutMarginERK9btVector3 @5564
    _ZNK17btConvexHullShape49batchedUnitVectorGetSupportingVertexWithoutMarginEPK9btVector3PS0_i @5565
    _ZNK17btConvexHullShape7getEdgeEiR9btVector3S1_ @5566
    _ZNK17btConvexHullShape7getNameEv @5567
    _ZNK17btConvexHullShape7projectERK11btTransformRK9btVector3RfS6_RS3_S7_ @5568
    _ZNK17btConvexHullShape8getPlaneER9btVector3S1_i @5569
    _ZNK17btConvexHullShape8isInsideERK9btVector3f @5570
    _ZNK17btConvexHullShape9getVertexEiR9btVector3 @5571
    _ZNK17btConvexHullShape9serializeEPvP12btSerializer @5572
    _ZNK17btGjkPairDetector23getCachedSeparatingAxisEv @5573
    _ZNK17btGjkPairDetector27getCachedSeparatingDistanceEv @5574
    _ZNK17btHingeConstraint13getLowerLimitEv @5575
    _ZNK17btHingeConstraint13getUpperLimitEv @5576
    _ZNK17btHingeConstraint28calculateSerializeBufferSizeEv @5577
    _ZNK17btHingeConstraint8getFlagsEv @5578
    _ZNK17btHingeConstraint8getParamEii @5579
    _ZNK17btHingeConstraint8hasLimitEv @5580
    _ZNK17btHingeConstraint9serializeEPvP12btSerializer @5581
    _ZNK17btTriangleInfoMap28calculateSerializeBufferSizeEv @5582
    _ZNK17btTriangleInfoMap9serializeEPvP12btSerializer @5583
    _ZNK17btTriangleShapeEx13buildTriPlaneER9btVector4 @5584
    _ZNK17btTriangleShapeEx7getAabbERK11btTransformR9btVector3S4_ @5585
    _ZNK17btTypedConstraint13getRigidBodyAEv @5586
    _ZNK17btTypedConstraint13getRigidBodyBEv @5587
    _ZNK17btTypedConstraint17getConstraintTypeEv @5588
    _ZNK17btTypedConstraint27getBreakingImpulseThresholdEv @5589
    _ZNK17btTypedConstraint28calculateSerializeBufferSizeEv @5590
    _ZNK17btTypedConstraint30getOverrideNumSolverIterationsEv @5591
    _ZNK17btTypedConstraint9isEnabledEv @5592
    _ZNK17btTypedConstraint9serializeEPvP12btSerializer @5593
    _ZNK18btAngleCompareFuncclERK13GrahamVector3S2_ @5594
    _ZNK18btConvexPolyhedron15testContainmentEv @5595
    _ZNK18btConvexPolyhedron7projectERK11btTransformRK9btVector3RfS6_RS3_S7_ @5596
    _ZNK18btGImpactMeshShape11getMeshPartEi @5597
    _ZNK18btGImpactMeshShape12getChildAabbEiRK11btTransformR9btVector3S4_ @5598
    _ZNK18btGImpactMeshShape13getChildShapeEi @5599
    _ZNK18btGImpactMeshShape15lockChildShapesEv @5600
    _ZNK18btGImpactMeshShape16getMeshPartCountEv @5601
    _ZNK18btGImpactMeshShape17getBulletTriangleEiR17btTriangleShapeEx @5602
    _ZNK18btGImpactMeshShape17getChildTransformEi @5603
    _ZNK18btGImpactMeshShape17getNumChildShapesEv @5604
    _ZNK18btGImpactMeshShape17unlockChildShapesEv @5605
    _ZNK18btGImpactMeshShape19getGImpactShapeTypeEv @5606
    _ZNK18btGImpactMeshShape19getPrimitiveManagerEv @5607
    _ZNK18btGImpactMeshShape19processAllTrianglesEP18btTriangleCallbackRK9btVector3S4_ @5608
    _ZNK18btGImpactMeshShape20childrenHasTransformEv @5609
    _ZNK18btGImpactMeshShape20getBulletTetrahedronEiR20btTetrahedronShapeEx @5610
    _ZNK18btGImpactMeshShape21calculateLocalInertiaEfR9btVector3 @5611
    _ZNK18btGImpactMeshShape22needsRetrieveTrianglesEv @5612
    _ZNK18btGImpactMeshShape22processAllTrianglesRayEP18btTriangleCallbackRK9btVector3S4_ @5613
    _ZNK18btGImpactMeshShape25needsRetrieveTetrahedronsEv @5614
    _ZNK18btGImpactMeshShape28calculateSerializeBufferSizeEv @5615
    _ZNK18btGImpactMeshShape7getNameEv @5616
    _ZNK18btGImpactMeshShape7rayTestERK9btVector3S2_RN16btCollisionWorld17RayResultCallbackE @5617
    _ZNK18btGImpactMeshShape9serializeEPvP12btSerializer @5618
    _ZNK18btMultiSphereShape14getSphereCountEv @5619
    _ZNK18btMultiSphereShape15getSphereRadiusEi @5620
    _ZNK18btMultiSphereShape17getSpherePositionEi @5621
    _ZNK18btMultiSphereShape21calculateLocalInertiaEfR9btVector3 @5622
    _ZNK18btMultiSphereShape28calculateSerializeBufferSizeEv @5623
    _ZNK18btMultiSphereShape37localGetSupportingVertexWithoutMarginERK9btVector3 @5624
    _ZNK18btMultiSphereShape49batchedUnitVectorGetSupportingVertexWithoutMarginEPK9btVector3PS0_i @5625
    _ZNK18btMultiSphereShape7getNameEv @5626
    _ZNK18btMultiSphereShape9serializeEPvP12btSerializer @5627
    _ZNK18btQuantizedBvhNode10isLeafNodeEv @5628
    _ZNK18btQuantizedBvhNode14getEscapeIndexEv @5629
    _ZNK18btQuantizedBvhNode16getTriangleIndexEv @5630
    _ZNK18btQuantizedBvhNode9getPartIdEv @5631
    _ZNK18btQuantizedBvhTree10isLeafNodeEi @5632
    _ZNK18btQuantizedBvhTree11getLeftNodeEi @5633
    _ZNK18btQuantizedBvhTree11getNodeDataEi @5634
    _ZNK18btQuantizedBvhTree12getNodeBoundEiR6btAABB @5635
    _ZNK18btQuantizedBvhTree12getNodeCountEv @5636
    _ZNK18btQuantizedBvhTree12getRightNodeEi @5637
    _ZNK18btQuantizedBvhTree13quantizePointEPtRK9btVector3 @5638
    _ZNK18btQuantizedBvhTree18getEscapeNodeIndexEi @5639
    _ZNK18btQuantizedBvhTree24testQuantizedBoxOverlappEiPtS0_ @5640
    _ZNK18btSimpleBroadphase17getBroadphaseAabbER9btVector3S1_ @5641
    _ZNK18btSimpleBroadphase23getOverlappingPairCacheEv @5642
    _ZNK18btSimpleBroadphase23getSimpleProxyFromProxyEP17btBroadphaseProxy @5643
    _ZNK18btSimpleBroadphase7getAabbEP17btBroadphaseProxyR9btVector3S3_ @5644
    _ZNK18btSliderConstraint23getCalculatedTransformAEv @5645
    _ZNK18btSliderConstraint23getCalculatedTransformBEv @5646
    _ZNK18btSliderConstraint28calculateSerializeBufferSizeEv @5647
    _ZNK18btSliderConstraint8getFlagsEv @5648
    _ZNK18btSliderConstraint8getParamEii @5649
    _ZNK18btSliderConstraint9serializeEPvP12btSerializer @5650
    _ZNK18btStaticPlaneShape14getPlaneNormalEv @5651
    _ZNK18btStaticPlaneShape15getLocalScalingEv @5652
    _ZNK18btStaticPlaneShape16getPlaneConstantEv @5653
    _ZNK18btStaticPlaneShape19processAllTrianglesEP18btTriangleCallbackRK9btVector3S4_ @5654
    _ZNK18btStaticPlaneShape21calculateLocalInertiaEfR9btVector3 @5655
    _ZNK18btStaticPlaneShape28calculateSerializeBufferSizeEv @5656
    _ZNK18btStaticPlaneShape7getAabbERK11btTransformR9btVector3S4_ @5657
    _ZNK18btStaticPlaneShape7getNameEv @5658
    _ZNK18btStaticPlaneShape9serializeEPvP12btSerializer @5659
    _ZNK19btMinkowskiSumShape21calculateLocalInertiaEfR9btVector3 @5660
    _ZNK19btMinkowskiSumShape37localGetSupportingVertexWithoutMarginERK9btVector3 @5661
    _ZNK19btMinkowskiSumShape49batchedUnitVectorGetSupportingVertexWithoutMarginEPK9btVector3PS0_i @5662
    _ZNK19btMinkowskiSumShape7getNameEv @5663
    _ZNK19btMinkowskiSumShape9getMarginEv @5664
    _ZNK19btPrimitiveTriangle14get_edge_planeEiR9btVector4 @5665
    _ZNK19btTriangleMeshShape15getLocalAabbMaxEv @5666
    _ZNK19btTriangleMeshShape15getLocalAabbMinEv @5667
    _ZNK19btTriangleMeshShape15getLocalScalingEv @5668
    _ZNK19btTriangleMeshShape19processAllTrianglesEP18btTriangleCallbackRK9btVector3S4_ @5669
    _ZNK19btTriangleMeshShape21calculateLocalInertiaEfR9btVector3 @5670
    _ZNK19btTriangleMeshShape24localGetSupportingVertexERK9btVector3 @5671
    _ZNK19btTriangleMeshShape37localGetSupportingVertexWithoutMarginERK9btVector3 @5672
    _ZNK19btTriangleMeshShape7getAabbERK11btTransformR9btVector3S4_ @5673
    _ZNK19btTriangleMeshShape7getNameEv @5674
    _ZNK20btAlignedObjectArrayI10btTriIndexE4copyEiiPS0_ @5675
    _ZNK20btAlignedObjectArrayI10btTriIndexE4sizeEv @5676
    _ZNK20btAlignedObjectArrayI10btTriIndexE8capacityEv @5677
    _ZNK20btAlignedObjectArrayI10btTriangleE4copyEiiPS0_ @5678
    _ZNK20btAlignedObjectArrayI10btTriangleE4sizeEv @5679
    _ZNK20btAlignedObjectArrayI10btTriangleE8capacityEv @5680
    _ZNK20btAlignedObjectArrayI11GIM_CONTACTE4copyEiiPS0_ @5681
    _ZNK20btAlignedObjectArrayI11GIM_CONTACTE4sizeEv @5682
    _ZNK20btAlignedObjectArrayI11GIM_CONTACTE8capacityEv @5683
    _ZNK20btAlignedObjectArrayI11GIM_CONTACTEixEi @5684
    _ZNK20btAlignedObjectArrayI11btJointNodeE4copyEiiPS0_ @5685
    _ZNK20btAlignedObjectArrayI11btJointNodeE4sizeEv @5686
    _ZNK20btAlignedObjectArrayI11btJointNodeE8capacityEv @5687
    _ZNK20btAlignedObjectArrayI11btMatrix3x3E4copyEiiPS0_ @5688
    _ZNK20btAlignedObjectArrayI11btMatrix3x3E4sizeEv @5689
    _ZNK20btAlignedObjectArrayI11btMatrix3x3E8capacityEv @5690
    _ZNK20btAlignedObjectArrayI11btMatrix3x3EixEi @5691
    _ZNK20btAlignedObjectArrayI11btTransformE4sizeEv @5692
    _ZNK20btAlignedObjectArrayI11btTransformEixEi @5693
    _ZNK20btAlignedObjectArrayI11btWheelInfoE4copyEiiPS0_ @5694
    _ZNK20btAlignedObjectArrayI11btWheelInfoE4sizeEv @5695
    _ZNK20btAlignedObjectArrayI11btWheelInfoE8capacityEv @5696
    _ZNK20btAlignedObjectArrayI11btWheelInfoEixEi @5697
    _ZNK20btAlignedObjectArrayI12GIM_BVH_DATAE4copyEiiPS0_ @5698
    _ZNK20btAlignedObjectArrayI12GIM_BVH_DATAE4sizeEv @5699
    _ZNK20btAlignedObjectArrayI12GIM_BVH_DATAE8capacityEv @5700
    _ZNK20btAlignedObjectArrayI12btHashStringE4copyEiiPS0_ @5701
    _ZNK20btAlignedObjectArrayI12btHashStringE4sizeEv @5702
    _ZNK20btAlignedObjectArrayI12btHashStringE8capacityEv @5703
    _ZNK20btAlignedObjectArrayI12btHashStringEixEi @5704
    _ZNK20btAlignedObjectArrayI12btQuaternionE4copyEiiPS0_ @5705
    _ZNK20btAlignedObjectArrayI12btQuaternionE4sizeEv @5706
    _ZNK20btAlignedObjectArrayI12btQuaternionE8capacityEv @5707
    _ZNK20btAlignedObjectArrayI12btSimplePairE4copyEiiPS0_ @5708
    _ZNK20btAlignedObjectArrayI12btSimplePairE4sizeEv @5709
    _ZNK20btAlignedObjectArrayI12btSimplePairE8capacityEv @5710
    _ZNK20btAlignedObjectArrayI12btSolverBodyE4copyEiiPS0_ @5711
    _ZNK20btAlignedObjectArrayI12btSolverBodyE4sizeEv @5712
    _ZNK20btAlignedObjectArrayI12btSolverBodyE8capacityEv @5713
    _ZNK20btAlignedObjectArrayI13GrahamVector3E4copyEiiPS0_ @5714
    _ZNK20btAlignedObjectArrayI13GrahamVector3E4sizeEv @5715
    _ZNK20btAlignedObjectArrayI13GrahamVector3E8capacityEv @5716
    _ZNK20btAlignedObjectArrayI13btIndexedMeshE4copyEiiPS0_ @5717
    _ZNK20btAlignedObjectArrayI13btIndexedMeshE4sizeEv @5718
    _ZNK20btAlignedObjectArrayI13btIndexedMeshE8capacityEv @5719
    _ZNK20btAlignedObjectArrayI13btIndexedMeshEixEi @5720
    _ZNK20btAlignedObjectArrayI14btInternalEdgeE4copyEiiPS0_ @5721
    _ZNK20btAlignedObjectArrayI14btInternalEdgeE4sizeEv @5722
    _ZNK20btAlignedObjectArrayI14btInternalEdgeE8capacityEv @5723
    _ZNK20btAlignedObjectArrayI14btTriangleInfoE4copyEiiPS0_ @5724
    _ZNK20btAlignedObjectArrayI14btTriangleInfoE4sizeEv @5725
    _ZNK20btAlignedObjectArrayI14btTriangleInfoE8capacityEv @5726
    _ZNK20btAlignedObjectArrayI14btTriangleInfoEixEi @5727
    _ZNK20btAlignedObjectArrayI15btMultibodyLinkE4copyEiiPS0_ @5728
    _ZNK20btAlignedObjectArrayI15btMultibodyLinkE4sizeEv @5729
    _ZNK20btAlignedObjectArrayI15btMultibodyLinkE8capacityEv @5730
    _ZNK20btAlignedObjectArrayI15btMultibodyLinkEixEi @5731
    _ZNK20btAlignedObjectArrayI16btBroadphasePairE16findLinearSearchERKS0_ @5732
    _ZNK20btAlignedObjectArrayI16btBroadphasePairE4copyEiiPS0_ @5733
    _ZNK20btAlignedObjectArrayI16btBroadphasePairE4sizeEv @5734
    _ZNK20btAlignedObjectArrayI16btBroadphasePairE8capacityEv @5735
    _ZNK20btAlignedObjectArrayI16btBroadphasePairEixEi @5736
    _ZNK20btAlignedObjectArrayI16btBvhSubtreeInfoE4copyEiiPS0_ @5737
    _ZNK20btAlignedObjectArrayI16btBvhSubtreeInfoE4sizeEv @5738
    _ZNK20btAlignedObjectArrayI16btBvhSubtreeInfoE8capacityEv @5739
    _ZNK20btAlignedObjectArrayI16btBvhSubtreeInfoEixEi @5740
    _ZNK20btAlignedObjectArrayI17CONTACT_KEY_TOKENE4copyEiiPS0_ @5741
    _ZNK20btAlignedObjectArrayI17CONTACT_KEY_TOKENE4sizeEv @5742
    _ZNK20btAlignedObjectArrayI17CONTACT_KEY_TOKENE8capacityEv @5743
    _ZNK20btAlignedObjectArrayI17GIM_BVH_TREE_NODEE4copyEiiPS0_ @5744
    _ZNK20btAlignedObjectArrayI17GIM_BVH_TREE_NODEE4sizeEv @5745
    _ZNK20btAlignedObjectArrayI17GIM_BVH_TREE_NODEE8capacityEv @5746
    _ZNK20btAlignedObjectArrayI17GIM_BVH_TREE_NODEEixEi @5747
    _ZNK20btAlignedObjectArrayI18btOptimizedBvhNodeE4copyEiiPS0_ @5748
    _ZNK20btAlignedObjectArrayI18btOptimizedBvhNodeE4sizeEv @5749
    _ZNK20btAlignedObjectArrayI18btOptimizedBvhNodeE8capacityEv @5750
    _ZNK20btAlignedObjectArrayI18btOptimizedBvhNodeEixEi @5751
    _ZNK20btAlignedObjectArrayI18btQuantizedBvhNodeE4copyEiiPS0_ @5752
    _ZNK20btAlignedObjectArrayI18btQuantizedBvhNodeE4sizeEv @5753
    _ZNK20btAlignedObjectArrayI18btQuantizedBvhNodeE8capacityEv @5754
    _ZNK20btAlignedObjectArrayI18btQuantizedBvhNodeEixEi @5755
    _ZNK20btAlignedObjectArrayI18btSolverConstraintE4copyEiiPS0_ @5756
    _ZNK20btAlignedObjectArrayI18btSolverConstraintE4sizeEv @5757
    _ZNK20btAlignedObjectArrayI18btSolverConstraintE8capacityEv @5758
    _ZNK20btAlignedObjectArrayI20btCompoundShapeChildE4copyEiiPS0_ @5759
    _ZNK20btAlignedObjectArrayI20btCompoundShapeChildE4sizeEv @5760
    _ZNK20btAlignedObjectArrayI20btCompoundShapeChildE8capacityEv @5761
    _ZNK20btAlignedObjectArrayI20btCompoundShapeChildEixEi @5762
    _ZNK20btAlignedObjectArrayI20btInternalVertexPairE4copyEiiPS0_ @5763
    _ZNK20btAlignedObjectArrayI20btInternalVertexPairE4sizeEv @5764
    _ZNK20btAlignedObjectArrayI20btInternalVertexPairE8capacityEv @5765
    _ZNK20btAlignedObjectArrayI20btInternalVertexPairEixEi @5766
    _ZNK20btAlignedObjectArrayI20btMaterialPropertiesE4copyEiiPS0_ @5767
    _ZNK20btAlignedObjectArrayI20btMaterialPropertiesE4sizeEv @5768
    _ZNK20btAlignedObjectArrayI20btMaterialPropertiesE8capacityEv @5769
    _ZNK20btAlignedObjectArrayI21BT_QUANTIZED_BVH_NODEE4copyEiiPS0_ @5770
    _ZNK20btAlignedObjectArrayI21BT_QUANTIZED_BVH_NODEE4sizeEv @5771
    _ZNK20btAlignedObjectArrayI21BT_QUANTIZED_BVH_NODEE8capacityEv @5772
    _ZNK20btAlignedObjectArrayI21BT_QUANTIZED_BVH_NODEEixEi @5773
    _ZNK20btAlignedObjectArrayI27btMultiBodySolverConstraintE4copyEiiPS0_ @5774
    _ZNK20btAlignedObjectArrayI27btMultiBodySolverConstraintE4sizeEv @5775
    _ZNK20btAlignedObjectArrayI27btMultiBodySolverConstraintE8capacityEv @5776
    _ZNK20btAlignedObjectArrayI6btFaceE4copyEiiPS0_ @5777
    _ZNK20btAlignedObjectArrayI6btFaceE4sizeEv @5778
    _ZNK20btAlignedObjectArrayI6btFaceE8capacityEv @5779
    _ZNK20btAlignedObjectArrayI6btFaceEixEi @5780
    _ZNK20btAlignedObjectArrayI7btPlaneE4copyEiiPS0_ @5781
    _ZNK20btAlignedObjectArrayI7btPlaneE4sizeEv @5782
    _ZNK20btAlignedObjectArrayI7btPlaneE8capacityEv @5783
    _ZNK20btAlignedObjectArrayI8GIM_PAIRE4copyEiiPS0_ @5784
    _ZNK20btAlignedObjectArrayI8GIM_PAIRE4sizeEv @5785
    _ZNK20btAlignedObjectArrayI8GIM_PAIRE8capacityEv @5786
    _ZNK20btAlignedObjectArrayI9NodeLinksE4copyEiiPS0_ @5787
    _ZNK20btAlignedObjectArrayI9NodeLinksE4sizeEv @5788
    _ZNK20btAlignedObjectArrayI9NodeLinksE8capacityEv @5789
    _ZNK20btAlignedObjectArrayI9btElementE4copyEiiPS0_ @5790
    _ZNK20btAlignedObjectArrayI9btElementE4sizeEv @5791
    _ZNK20btAlignedObjectArrayI9btElementE8capacityEv @5792
    _ZNK20btAlignedObjectArrayI9btHashIntE4copyEiiPS0_ @5793
    _ZNK20btAlignedObjectArrayI9btHashIntE4sizeEv @5794
    _ZNK20btAlignedObjectArrayI9btHashIntE8capacityEv @5795
    _ZNK20btAlignedObjectArrayI9btHashIntEixEi @5796
    _ZNK20btAlignedObjectArrayI9btHashKeyI10btTriIndexEE4copyEiiPS2_ @5797
    _ZNK20btAlignedObjectArrayI9btHashKeyI10btTriIndexEE4sizeEv @5798
    _ZNK20btAlignedObjectArrayI9btHashKeyI10btTriIndexEE8capacityEv @5799
    _ZNK20btAlignedObjectArrayI9btHashKeyI10btTriIndexEEixEi @5800
    _ZNK20btAlignedObjectArrayI9btHashPtrE4copyEiiPS0_ @5801
    _ZNK20btAlignedObjectArrayI9btHashPtrE4sizeEv @5802
    _ZNK20btAlignedObjectArrayI9btHashPtrE8capacityEv @5803
    _ZNK20btAlignedObjectArrayI9btHashPtrEixEi @5804
    _ZNK20btAlignedObjectArrayI9btVector3E4copyEiiPS0_ @5805
    _ZNK20btAlignedObjectArrayI9btVector3E4sizeEv @5806
    _ZNK20btAlignedObjectArrayI9btVector3E8capacityEv @5807
    _ZNK20btAlignedObjectArrayI9btVector3EixEi @5808
    _ZNK20btAlignedObjectArrayI9btVectorXIfEE4copyEiiPS1_ @5809
    _ZNK20btAlignedObjectArrayI9btVectorXIfEE4sizeEv @5810
    _ZNK20btAlignedObjectArrayI9btVectorXIfEE8capacityEv @5811
    _ZNK20btAlignedObjectArrayIN10btSoftBody4FaceEE4copyEiiPS1_ @5812
    _ZNK20btAlignedObjectArrayIN10btSoftBody4FaceEE4sizeEv @5813
    _ZNK20btAlignedObjectArrayIN10btSoftBody4FaceEE8capacityEv @5814
    _ZNK20btAlignedObjectArrayIN10btSoftBody4FaceEEixEi @5815
    _ZNK20btAlignedObjectArrayIN10btSoftBody4LinkEE4copyEiiPS1_ @5816
    _ZNK20btAlignedObjectArrayIN10btSoftBody4LinkEE4sizeEv @5817
    _ZNK20btAlignedObjectArrayIN10btSoftBody4LinkEE8capacityEv @5818
    _ZNK20btAlignedObjectArrayIN10btSoftBody4LinkEEixEi @5819
    _ZNK20btAlignedObjectArrayIN10btSoftBody4NodeEE4copyEiiPS1_ @5820
    _ZNK20btAlignedObjectArrayIN10btSoftBody4NodeEE4sizeEv @5821
    _ZNK20btAlignedObjectArrayIN10btSoftBody4NodeEE8capacityEv @5822
    _ZNK20btAlignedObjectArrayIN10btSoftBody4NodeEEixEi @5823
    _ZNK20btAlignedObjectArrayIN10btSoftBody4NoteEE4copyEiiPS1_ @5824
    _ZNK20btAlignedObjectArrayIN10btSoftBody4NoteEE4sizeEv @5825
    _ZNK20btAlignedObjectArrayIN10btSoftBody4NoteEE8capacityEv @5826
    _ZNK20btAlignedObjectArrayIN10btSoftBody5TetraEE4copyEiiPS1_ @5827
    _ZNK20btAlignedObjectArrayIN10btSoftBody5TetraEE4sizeEv @5828
    _ZNK20btAlignedObjectArrayIN10btSoftBody5TetraEE8capacityEv @5829
    _ZNK20btAlignedObjectArrayIN10btSoftBody5TetraEEixEi @5830
    _ZNK20btAlignedObjectArrayIN10btSoftBody6AnchorEE4copyEiiPS1_ @5831
    _ZNK20btAlignedObjectArrayIN10btSoftBody6AnchorEE4sizeEv @5832
    _ZNK20btAlignedObjectArrayIN10btSoftBody6AnchorEE8capacityEv @5833
    _ZNK20btAlignedObjectArrayIN10btSoftBody6AnchorEEixEi @5834
    _ZNK20btAlignedObjectArrayIN10btSoftBody8RContactEE4copyEiiPS1_ @5835
    _ZNK20btAlignedObjectArrayIN10btSoftBody8RContactEE4sizeEv @5836
    _ZNK20btAlignedObjectArrayIN10btSoftBody8RContactEE8capacityEv @5837
    _ZNK20btAlignedObjectArrayIN10btSoftBody8SContactEE4copyEiiPS1_ @5838
    _ZNK20btAlignedObjectArrayIN10btSoftBody8SContactEE4sizeEv @5839
    _ZNK20btAlignedObjectArrayIN10btSoftBody8SContactEE8capacityEv @5840
    _ZNK20btAlignedObjectArrayIN10btSoftBody8ePSolver1_EE4copyEiiPS2_ @5841
    _ZNK20btAlignedObjectArrayIN10btSoftBody8ePSolver1_EE4sizeEv @5842
    _ZNK20btAlignedObjectArrayIN10btSoftBody8ePSolver1_EE8capacityEv @5843
    _ZNK20btAlignedObjectArrayIN10btSoftBody8eVSolver1_EE4copyEiiPS2_ @5844
    _ZNK20btAlignedObjectArrayIN10btSoftBody8eVSolver1_EE4sizeEv @5845
    _ZNK20btAlignedObjectArrayIN10btSoftBody8eVSolver1_EE8capacityEv @5846
    _ZNK20btAlignedObjectArrayIN17btTypedConstraint17btConstraintInfo1EE4copyEiiPS1_ @5847
    _ZNK20btAlignedObjectArrayIN17btTypedConstraint17btConstraintInfo1EE4sizeEv @5848
    _ZNK20btAlignedObjectArrayIN17btTypedConstraint17btConstraintInfo1EE8capacityEv @5849
    _ZNK20btAlignedObjectArrayIN20btConvexHullComputer4EdgeEE4copyEiiPS1_ @5850
    _ZNK20btAlignedObjectArrayIN20btConvexHullComputer4EdgeEE4sizeEv @5851
    _ZNK20btAlignedObjectArrayIN20btConvexHullComputer4EdgeEE8capacityEv @5852
    _ZNK20btAlignedObjectArrayIN20btConvexHullInternal7Point32EE4copyEiiPS1_ @5853
    _ZNK20btAlignedObjectArrayIN20btConvexHullInternal7Point32EE4sizeEv @5854
    _ZNK20btAlignedObjectArrayIN20btConvexHullInternal7Point32EE8capacityEv @5855
    _ZNK20btAlignedObjectArrayIN24btConstraintSolverPoolMt12ThreadSolverEE4copyEiiPS1_ @5856
    _ZNK20btAlignedObjectArrayIN24btConstraintSolverPoolMt12ThreadSolverEE4sizeEv @5857
    _ZNK20btAlignedObjectArrayIN24btConstraintSolverPoolMt12ThreadSolverEE8capacityEv @5858
    _ZNK20btAlignedObjectArrayIN6btDbvt6sStkNNEE4copyEiiPS1_ @5859
    _ZNK20btAlignedObjectArrayIN6btDbvt6sStkNNEE4sizeEv @5860
    _ZNK20btAlignedObjectArrayIN6btDbvt6sStkNNEE8capacityEv @5861
    _ZNK20btAlignedObjectArrayIN6btDbvt7sStkCLNEE4copyEiiPS1_ @5862
    _ZNK20btAlignedObjectArrayIN6btDbvt7sStkCLNEE4sizeEv @5863
    _ZNK20btAlignedObjectArrayIN6btDbvt7sStkCLNEE8capacityEv @5864
    _ZNK20btAlignedObjectArrayIN7ConvexH8HalfEdgeEE4copyEiiPS1_ @5865
    _ZNK20btAlignedObjectArrayIN7ConvexH8HalfEdgeEE4sizeEv @5866
    _ZNK20btAlignedObjectArrayIN7ConvexH8HalfEdgeEE8capacityEv @5867
    _ZNK20btAlignedObjectArrayIP10btDbvtNodeE4copyEiiPS1_ @5868
    _ZNK20btAlignedObjectArrayIP10btDbvtNodeE4sizeEv @5869
    _ZNK20btAlignedObjectArrayIP10btDbvtNodeE8capacityEv @5870
    _ZNK20btAlignedObjectArrayIP10btSoftBodyE16findLinearSearchERKS1_ @5871
    _ZNK20btAlignedObjectArrayIP10btSoftBodyE4copyEiiPS1_ @5872
    _ZNK20btAlignedObjectArrayIP10btSoftBodyE4sizeEv @5873
    _ZNK20btAlignedObjectArrayIP10btSoftBodyE8capacityEv @5874
    _ZNK20btAlignedObjectArrayIP10btSoftBodyEixEi @5875
    _ZNK20btAlignedObjectArrayIP11btMultiBodyE16findLinearSearchERKS1_ @5876
    _ZNK20btAlignedObjectArrayIP11btMultiBodyE4copyEiiPS1_ @5877
    _ZNK20btAlignedObjectArrayIP11btMultiBodyE4sizeEv @5878
    _ZNK20btAlignedObjectArrayIP11btMultiBodyE8capacityEv @5879
    _ZNK20btAlignedObjectArrayIP11btRigidBodyE16findLinearSearchERKS1_ @5880
    _ZNK20btAlignedObjectArrayIP11btRigidBodyE4copyEiiPS1_ @5881
    _ZNK20btAlignedObjectArrayIP11btRigidBodyE4sizeEv @5882
    _ZNK20btAlignedObjectArrayIP11btRigidBodyE8capacityEv @5883
    _ZNK20btAlignedObjectArrayIP14btHullTriangleE4copyEiiPS1_ @5884
    _ZNK20btAlignedObjectArrayIP14btHullTriangleE4sizeEv @5885
    _ZNK20btAlignedObjectArrayIP14btHullTriangleE8capacityEv @5886
    _ZNK20btAlignedObjectArrayIP14btOptimizedBvhE4copyEiiPS1_ @5887
    _ZNK20btAlignedObjectArrayIP14btOptimizedBvhE4sizeEv @5888
    _ZNK20btAlignedObjectArrayIP14btOptimizedBvhE8capacityEv @5889
    _ZNK20btAlignedObjectArrayIP14btOptimizedBvhEixEi @5890
    _ZNK20btAlignedObjectArrayIP16btCollisionShapeE4copyEiiPS1_ @5891
    _ZNK20btAlignedObjectArrayIP16btCollisionShapeE4sizeEv @5892
    _ZNK20btAlignedObjectArrayIP16btCollisionShapeE8capacityEv @5893
    _ZNK20btAlignedObjectArrayIP16btCollisionShapeEixEi @5894
    _ZNK20btAlignedObjectArrayIP17btActionInterfaceE16findLinearSearchERKS1_ @5895
    _ZNK20btAlignedObjectArrayIP17btActionInterfaceE4copyEiiPS1_ @5896
    _ZNK20btAlignedObjectArrayIP17btActionInterfaceE4sizeEv @5897
    _ZNK20btAlignedObjectArrayIP17btActionInterfaceE8capacityEv @5898
    _ZNK20btAlignedObjectArrayIP17btCollisionObjectE16findLinearSearchERKS1_ @5899
    _ZNK20btAlignedObjectArrayIP17btCollisionObjectE4copyEiiPS1_ @5900
    _ZNK20btAlignedObjectArrayIP17btCollisionObjectE4sizeEv @5901
    _ZNK20btAlignedObjectArrayIP17btCollisionObjectE8capacityEv @5902
    _ZNK20btAlignedObjectArrayIP17btCollisionObjectEixEi @5903
    _ZNK20btAlignedObjectArrayIP17btTriangleInfoMapE4copyEiiPS1_ @5904
    _ZNK20btAlignedObjectArrayIP17btTriangleInfoMapE4sizeEv @5905
    _ZNK20btAlignedObjectArrayIP17btTriangleInfoMapE8capacityEv @5906
    _ZNK20btAlignedObjectArrayIP17btTriangleInfoMapEixEi @5907
    _ZNK20btAlignedObjectArrayIP17btTypedConstraintE16findLinearSearchERKS1_ @5908
    _ZNK20btAlignedObjectArrayIP17btTypedConstraintE4copyEiiPS1_ @5909
    _ZNK20btAlignedObjectArrayIP17btTypedConstraintE4sizeEv @5910
    _ZNK20btAlignedObjectArrayIP17btTypedConstraintE8capacityEv @5911
    _ZNK20btAlignedObjectArrayIP17btTypedConstraintEixEi @5912
    _ZNK20btAlignedObjectArrayIP18btConstraintSolverE4copyEiiPS1_ @5913
    _ZNK20btAlignedObjectArrayIP18btConstraintSolverE4sizeEv @5914
    _ZNK20btAlignedObjectArrayIP18btConstraintSolverE8capacityEv @5915
    _ZNK20btAlignedObjectArrayIP18btSolverConstraintE4copyEiiPS1_ @5916
    _ZNK20btAlignedObjectArrayIP18btSolverConstraintE4sizeEv @5917
    _ZNK20btAlignedObjectArrayIP18btSolverConstraintE8capacityEv @5918
    _ZNK20btAlignedObjectArrayIP18btVector3FloatDataE4copyEiiPS1_ @5919
    _ZNK20btAlignedObjectArrayIP18btVector3FloatDataE4sizeEv @5920
    _ZNK20btAlignedObjectArrayIP18btVector3FloatDataE8capacityEv @5921
    _ZNK20btAlignedObjectArrayIP19btVector3DoubleDataE4copyEiiPS1_ @5922
    _ZNK20btAlignedObjectArrayIP19btVector3DoubleDataE4sizeEv @5923
    _ZNK20btAlignedObjectArrayIP19btVector3DoubleDataE8capacityEv @5924
    _ZNK20btAlignedObjectArrayIP20btCollisionAlgorithmE4copyEiiPS1_ @5925
    _ZNK20btAlignedObjectArrayIP20btCollisionAlgorithmE4sizeEv @5926
    _ZNK20btAlignedObjectArrayIP20btCollisionAlgorithmE8capacityEv @5927
    _ZNK20btAlignedObjectArrayIP20btCollisionShapeDataE4sizeEv @5928
    _ZNK20btAlignedObjectArrayIP20btPersistentManifoldE4copyEiiPS1_ @5929
    _ZNK20btAlignedObjectArrayIP20btPersistentManifoldE4sizeEv @5930
    _ZNK20btAlignedObjectArrayIP20btPersistentManifoldE8capacityEv @5931
    _ZNK20btAlignedObjectArrayIP20btPersistentManifoldEixEi @5932
    _ZNK20btAlignedObjectArrayIP21btMultiBodyConstraintE16findLinearSearchERKS1_ @5933
    _ZNK20btAlignedObjectArrayIP21btMultiBodyConstraintE4copyEiiPS1_ @5934
    _ZNK20btAlignedObjectArrayIP21btMultiBodyConstraintE4sizeEv @5935
    _ZNK20btAlignedObjectArrayIP21btMultiBodyConstraintE8capacityEv @5936
    _ZNK20btAlignedObjectArrayIP21btMultiBodyConstraintEixEi @5937
    _ZNK20btAlignedObjectArrayIP22btGImpactMeshShapePartE4sizeEv @5938
    _ZNK20btAlignedObjectArrayIP22btGImpactMeshShapePartEixEi @5939
    _ZNK20btAlignedObjectArrayIP23btQuantizedBvhFloatDataE4sizeEv @5940
    _ZNK20btAlignedObjectArrayIP24btQuantizedBvhDoubleDataE4sizeEv @5941
    _ZNK20btAlignedObjectArrayIP26btCollisionObjectFloatDataE4sizeEv @5942
    _ZNK20btAlignedObjectArrayIP26btTriangleIndexVertexArrayE4copyEiiPS1_ @5943
    _ZNK20btAlignedObjectArrayIP26btTriangleIndexVertexArrayE4sizeEv @5944
    _ZNK20btAlignedObjectArrayIP26btTriangleIndexVertexArrayE8capacityEv @5945
    _ZNK20btAlignedObjectArrayIP27btCollisionObjectDoubleDataE4sizeEv @5946
    _ZNK20btAlignedObjectArrayIP27btStridingMeshInterfaceDataE4copyEiiPS1_ @5947
    _ZNK20btAlignedObjectArrayIP27btStridingMeshInterfaceDataE4sizeEv @5948
    _ZNK20btAlignedObjectArrayIP27btStridingMeshInterfaceDataE8capacityEv @5949
    _ZNK20btAlignedObjectArrayIPK10btDbvtNodeE16findLinearSearchERKS2_ @5950
    _ZNK20btAlignedObjectArrayIPK10btDbvtNodeE4copyEiiPS2_ @5951
    _ZNK20btAlignedObjectArrayIPK10btDbvtNodeE4sizeEv @5952
    _ZNK20btAlignedObjectArrayIPK10btDbvtNodeE8capacityEv @5953
    _ZNK20btAlignedObjectArrayIPK17btCollisionObjectE16findLinearSearchERKS2_ @5954
    _ZNK20btAlignedObjectArrayIPK17btCollisionObjectE4copyEiiPS2_ @5955
    _ZNK20btAlignedObjectArrayIPK17btCollisionObjectE4sizeEv @5956
    _ZNK20btAlignedObjectArrayIPK17btCollisionObjectE8capacityEv @5957
    _ZNK20btAlignedObjectArrayIPKcE4copyEiiPS1_ @5958
    _ZNK20btAlignedObjectArrayIPKcE4sizeEv @5959
    _ZNK20btAlignedObjectArrayIPKcE8capacityEv @5960
    _ZNK20btAlignedObjectArrayIPKcEixEi @5961
    _ZNK20btAlignedObjectArrayIPN10btSoftBody4NodeEE16findLinearSearchERKS2_ @5962
    _ZNK20btAlignedObjectArrayIPN10btSoftBody4NodeEE4copyEiiPS2_ @5963
    _ZNK20btAlignedObjectArrayIPN10btSoftBody4NodeEE4sizeEv @5964
    _ZNK20btAlignedObjectArrayIPN10btSoftBody4NodeEE8capacityEv @5965
    _ZNK20btAlignedObjectArrayIPN10btSoftBody4NodeEEixEi @5966
    _ZNK20btAlignedObjectArrayIPN10btSoftBody5JointEE16findLinearSearchERKS2_ @5967
    _ZNK20btAlignedObjectArrayIPN10btSoftBody5JointEE4copyEiiPS2_ @5968
    _ZNK20btAlignedObjectArrayIPN10btSoftBody5JointEE4sizeEv @5969
    _ZNK20btAlignedObjectArrayIPN10btSoftBody5JointEE8capacityEv @5970
    _ZNK20btAlignedObjectArrayIPN10btSoftBody5JointEEixEi @5971
    _ZNK20btAlignedObjectArrayIPN10btSoftBody7ClusterEE16findLinearSearchERKS2_ @5972
    _ZNK20btAlignedObjectArrayIPN10btSoftBody7ClusterEE4copyEiiPS2_ @5973
    _ZNK20btAlignedObjectArrayIPN10btSoftBody7ClusterEE4sizeEv @5974
    _ZNK20btAlignedObjectArrayIPN10btSoftBody7ClusterEE8capacityEv @5975
    _ZNK20btAlignedObjectArrayIPN10btSoftBody7ClusterEEixEi @5976
    _ZNK20btAlignedObjectArrayIPN10btSoftBody8MaterialEE4copyEiiPS2_ @5977
    _ZNK20btAlignedObjectArrayIPN10btSoftBody8MaterialEE4sizeEv @5978
    _ZNK20btAlignedObjectArrayIPN10btSoftBody8MaterialEE8capacityEv @5979
    _ZNK20btAlignedObjectArrayIPN10btSoftBody8MaterialEEixEi @5980
    _ZNK20btAlignedObjectArrayIPN11btSparseSdfILi3EE4CellEE4copyEiiPS3_ @5981
    _ZNK20btAlignedObjectArrayIPN11btSparseSdfILi3EE4CellEE4sizeEv @5982
    _ZNK20btAlignedObjectArrayIPN11btSparseSdfILi3EE4CellEE8capacityEv @5983
    _ZNK20btAlignedObjectArrayIPN20btConvexHullInternal4FaceEE4copyEiiPS2_ @5984
    _ZNK20btAlignedObjectArrayIPN20btConvexHullInternal4FaceEE4sizeEv @5985
    _ZNK20btAlignedObjectArrayIPN20btConvexHullInternal4FaceEE8capacityEv @5986
    _ZNK20btAlignedObjectArrayIPN20btConvexHullInternal6VertexEE4copyEiiPS2_ @5987
    _ZNK20btAlignedObjectArrayIPN20btConvexHullInternal6VertexEE4sizeEv @5988
    _ZNK20btAlignedObjectArrayIPN20btConvexHullInternal6VertexEE8capacityEv @5989
    _ZNK20btAlignedObjectArrayIPN27btSimulationIslandManagerMt6IslandEE4copyEiiPS2_ @5990
    _ZNK20btAlignedObjectArrayIPN27btSimulationIslandManagerMt6IslandEE4sizeEv @5991
    _ZNK20btAlignedObjectArrayIPN27btSimulationIslandManagerMt6IslandEE8capacityEv @5992
    _ZNK20btAlignedObjectArrayIPcE4copyEiiPS0_ @5993
    _ZNK20btAlignedObjectArrayIPcE4sizeEv @5994
    _ZNK20btAlignedObjectArrayIPcE8capacityEv @5995
    _ZNK20btAlignedObjectArrayIPfE4copyEiiPS0_ @5996
    _ZNK20btAlignedObjectArrayIPfE4sizeEv @5997
    _ZNK20btAlignedObjectArrayIPfE8capacityEv @5998
    _ZNK20btAlignedObjectArrayIPhE4copyEiiPS0_ @5999
    _ZNK20btAlignedObjectArrayIPhE4sizeEv @6000
    _ZNK20btAlignedObjectArrayIPhE8capacityEv @6001
    _ZNK20btAlignedObjectArrayIPiE4copyEiiPS0_ @6002
    _ZNK20btAlignedObjectArrayIPiE4sizeEv @6003
    _ZNK20btAlignedObjectArrayIPiE8capacityEv @6004
    _ZNK20btAlignedObjectArrayIPsE4copyEiiPS0_ @6005
    _ZNK20btAlignedObjectArrayIPsE4sizeEv @6006
    _ZNK20btAlignedObjectArrayIPsE8capacityEv @6007
    _ZNK20btAlignedObjectArrayIS_IPK10btDbvtNodeEE4copyEiiPS3_ @6008
    _ZNK20btAlignedObjectArrayIS_IPK10btDbvtNodeEE4sizeEv @6009
    _ZNK20btAlignedObjectArrayIS_IPK10btDbvtNodeEE8capacityEv @6010
    _ZNK20btAlignedObjectArrayIS_IiEE4copyEiiPS0_ @6011
    _ZNK20btAlignedObjectArrayIS_IiEE4sizeEv @6012
    _ZNK20btAlignedObjectArrayIS_IiEE8capacityEv @6013
    _ZNK20btAlignedObjectArrayIbE4copyEiiPb @6014
    _ZNK20btAlignedObjectArrayIbE4sizeEv @6015
    _ZNK20btAlignedObjectArrayIbE8capacityEv @6016
    _ZNK20btAlignedObjectArrayIfE4copyEiiPf @6017
    _ZNK20btAlignedObjectArrayIfE4sizeEv @6018
    _ZNK20btAlignedObjectArrayIfE8capacityEv @6019
    _ZNK20btAlignedObjectArrayIfEixEi @6020
    _ZNK20btAlignedObjectArrayIiE16findLinearSearchERKi @6021
    _ZNK20btAlignedObjectArrayIiE4copyEiiPi @6022
    _ZNK20btAlignedObjectArrayIiE4sizeEv @6023
    _ZNK20btAlignedObjectArrayIiE8capacityEv @6024
    _ZNK20btAlignedObjectArrayIiEixEi @6025
    _ZNK20btAlignedObjectArrayIjE4copyEiiPj @6026
    _ZNK20btAlignedObjectArrayIjE4sizeEv @6027
    _ZNK20btAlignedObjectArrayIjE8capacityEv @6028
    _ZNK20btAlignedObjectArrayItE4copyEiiPt @6029
    _ZNK20btAlignedObjectArrayItE4sizeEv @6030
    _ZNK20btAlignedObjectArrayItE8capacityEv @6031
    _ZNK20btAxisSweep3InternalIjE17getBroadphaseAabbER9btVector3S2_ @6032
    _ZNK20btAxisSweep3InternalIjE23getOverlappingPairCacheEv @6033
    _ZNK20btAxisSweep3InternalIjE4Edge5IsMaxEv @6034
    _ZNK20btAxisSweep3InternalIjE6Handle11GetNextFreeEv @6035
    _ZNK20btAxisSweep3InternalIjE7getAabbEP17btBroadphaseProxyR9btVector3S4_ @6036
    _ZNK20btAxisSweep3InternalIjE8quantizeEPjRK9btVector3i @6037
    _ZNK20btAxisSweep3InternalIjE9getHandleEj @6038
    _ZNK20btAxisSweep3InternalItE17getBroadphaseAabbER9btVector3S2_ @6039
    _ZNK20btAxisSweep3InternalItE23getOverlappingPairCacheEv @6040
    _ZNK20btAxisSweep3InternalItE4Edge5IsMaxEv @6041
    _ZNK20btAxisSweep3InternalItE6Handle11GetNextFreeEv @6042
    _ZNK20btAxisSweep3InternalItE7getAabbEP17btBroadphaseProxyR9btVector3S4_ @6043
    _ZNK20btAxisSweep3InternalItE8quantizeEPtRK9btVector3i @6044
    _ZNK20btAxisSweep3InternalItE9getHandleEt @6045
    _ZNK20btConvexHullComputer4Edge15getSourceVertexEv @6046
    _ZNK20btConvexHullComputer4Edge15getTargetVertexEv @6047
    _ZNK20btConvexHullComputer4Edge17getNextEdgeOfFaceEv @6048
    _ZNK20btConvexHullComputer4Edge19getNextEdgeOfVertexEv @6049
    _ZNK20btConvexHullInternal10Rational6418isNegativeInfinityEv @6050
    _ZNK20btConvexHullInternal10Rational645isNaNEv @6051
    _ZNK20btConvexHullInternal10Rational647compareERKS0_ @6052
    _ZNK20btConvexHullInternal11Rational1287compareERKS0_ @6053
    _ZNK20btConvexHullInternal11Rational1287compareEx @6054
    _ZNK20btConvexHullInternal6Int1284ucmpERKS0_ @6055
    _ZNK20btConvexHullInternal6Int1287getSignEv @6056
    _ZNK20btConvexHullInternal6Int1288toScalarEv @6057
    _ZNK20btConvexHullInternal6Int128ltERKS0_ @6058
    _ZNK20btConvexHullInternal6Int128miERKS0_ @6059
    _ZNK20btConvexHullInternal6Int128mlEx @6060
    _ZNK20btConvexHullInternal6Int128ngEv @6061
    _ZNK20btConvexHullInternal6Int128plERKS0_ @6062
    _ZNK20btConvexHullInternal6Vertex3dotERKNS_7Point64E @6063
    _ZNK20btConvexHullInternal6Vertex6xvalueEv @6064
    _ZNK20btConvexHullInternal6Vertex6yvalueEv @6065
    _ZNK20btConvexHullInternal6Vertex6zvalueEv @6066
    _ZNK20btConvexHullInternal6VertexmiERKS0_ @6067
    _ZNK20btConvexHullInternal7Point323dotERKNS_7Point64E @6068
    _ZNK20btConvexHullInternal7Point323dotERKS0_ @6069
    _ZNK20btConvexHullInternal7Point325crossERKNS_7Point64E @6070
    _ZNK20btConvexHullInternal7Point325crossERKS0_ @6071
    _ZNK20btConvexHullInternal7Point32eqERKS0_ @6072
    _ZNK20btConvexHullInternal7Point32miERKS0_ @6073
    _ZNK20btConvexHullInternal7Point32neERKS0_ @6074
    _ZNK20btConvexHullInternal7Point32plERKS0_ @6075
    _ZNK20btConvexHullInternal7Point643dotERKS0_ @6076
    _ZNK20btConvexHullInternal9PointR1286xvalueEv @6077
    _ZNK20btConvexHullInternal9PointR1286yvalueEv @6078
    _ZNK20btConvexHullInternal9PointR1286zvalueEv @6079
    _ZNK20btDefaultMotionState17getWorldTransformER11btTransform @6080
    _ZNK20btInternalVertexPair6equalsERKS_ @6081
    _ZNK20btInternalVertexPair7getHashEv @6082
    _ZNK20btPersistentManifold13getCacheEntryERK15btManifoldPoint @6083
    _ZNK20btPersistentManifold14getNumContactsEv @6084
    _ZNK20btPersistentManifold20validContactDistanceERK15btManifoldPoint @6085
    _ZNK20btPersistentManifold27getContactBreakingThresholdEv @6086
    _ZNK20btPersistentManifold29getContactProcessingThresholdEv @6087
    _ZNK20btPersistentManifold8getBody0Ev @6088
    _ZNK20btPersistentManifold8getBody1Ev @6089
    _ZNK20btPolarDecomposition13maxIterationsEv @6090
    _ZNK20btPolarDecomposition9decomposeERK11btMatrix3x3RS0_S3_ @6091
    _ZNK20btSpatialForceVector10getAngularEv @6092
    _ZNK20btSpatialForceVector9getLinearEv @6093
    _ZNK20btSpatialForceVectormlERKf @6094
    _ZNK20btSpatialForceVectorplERKS_ @6095
    _ZNK21BT_QUANTIZED_BVH_NODE10isLeafNodeEv @6096
    _ZNK21BT_QUANTIZED_BVH_NODE12getDataIndexEv @6097
    _ZNK21BT_QUANTIZED_BVH_NODE14getEscapeIndexEv @6098
    _ZNK21BT_QUANTIZED_BVH_NODE24testQuantizedBoxOverlappEPtS0_ @6099
    _ZNK21btCollisionDispatcher15getNearCallbackEv @6100
    _ZNK21btCollisionDispatcher15getNumManifoldsEv @6101
    _ZNK21btCollisionDispatcher23getInternalManifoldPoolEv @6102
    _ZNK21btConeTwistConstraint12getTwistSpanEv @6103
    _ZNK21btConeTwistConstraint13getRigidBodyAEv @6104
    _ZNK21btConeTwistConstraint13getRigidBodyBEv @6105
    _ZNK21btConeTwistConstraint13getTwistAngleEv @6106
    _ZNK21btConeTwistConstraint16GetPointForAngleEff @6107
    _ZNK21btConeTwistConstraint28calculateSerializeBufferSizeEv @6108
    _ZNK21btConeTwistConstraint33adjustSwingAxisToUseEllipseNormalER9btVector3 @6109
    _ZNK21btConeTwistConstraint8getParamEii @6110
    _ZNK21btConeTwistConstraint9getAFrameEv @6111
    _ZNK21btConeTwistConstraint9getBFrameEv @6112
    _ZNK21btConeTwistConstraint9serializeEPvP12btSerializer @6113
    _ZNK21btConvexInternalShape11getAabbSlowERK11btTransformR9btVector3S4_ @6114
    _ZNK21btConvexInternalShape11getMarginNVEv @6115
    _ZNK21btConvexInternalShape15getLocalScalingEv @6116
    _ZNK21btConvexInternalShape17getLocalScalingNVEv @6117
    _ZNK21btConvexInternalShape24localGetSupportingVertexERK9btVector3 @6118
    _ZNK21btConvexInternalShape26getImplicitShapeDimensionsEv @6119
    _ZNK21btConvexInternalShape28calculateSerializeBufferSizeEv @6120
    _ZNK21btConvexInternalShape32getPreferredPenetrationDirectionEiR9btVector3 @6121
    _ZNK21btConvexInternalShape36getNumPreferredPenetrationDirectionsEv @6122
    _ZNK21btConvexInternalShape7getAabbERK11btTransformR9btVector3S4_ @6123
    _ZNK21btConvexInternalShape9getMarginEv @6124
    _ZNK21btConvexInternalShape9serializeEPvP12btSerializer @6125
    _ZNK21btGImpactQuantizedBvh10isLeafNodeEi @6126
    _ZNK21btGImpactQuantizedBvh11getLeftNodeEi @6127
    _ZNK21btGImpactQuantizedBvh11getNodeDataEi @6128
    _ZNK21btGImpactQuantizedBvh12getGlobalBoxEv @6129
    _ZNK21btGImpactQuantizedBvh12getNodeBoundEiR6btAABB @6130
    _ZNK21btGImpactQuantizedBvh12getNodeCountEv @6131
    _ZNK21btGImpactQuantizedBvh12getRightNodeEi @6132
    _ZNK21btGImpactQuantizedBvh18getEscapeNodeIndexEi @6133
    _ZNK21btGImpactQuantizedBvh19getPrimitiveManagerEv @6134
    _ZNK21btGImpactQuantizedBvh8boxQueryERK6btAABBR20btAlignedObjectArrayIiE @6135
    _ZNK21btGImpactQuantizedBvh8rayQueryERK9btVector3S2_R20btAlignedObjectArrayIiE @6136
    _ZNK21btMultiBodyConstraint10getNumRowsEv @6137
    _ZNK21btMultiBodyConstraint11getPositionEi @6138
    _ZNK21btMultiBodyJointMotor12getIslandIdAEv @6139
    _ZNK21btMultiBodyJointMotor12getIslandIdBEv @6140
    _ZNK21btMultiBodyJointMotor6getErpEv @6141
    _ZNK21btSimpleDynamicsWorld10getGravityEv @6142
    _ZNK21btSimpleDynamicsWorld12getWorldTypeEv @6143
    _ZNK21btSpatialMotionVector10getAngularEv @6144
    _ZNK21btSpatialMotionVector3dotERK20btSpatialForceVector @6145
    _ZNK21btSpatialMotionVector5crossIS_EEvRKT_RS1_ @6146
    _ZNK21btSpatialMotionVector9getLinearEv @6147
    _ZNK21btSpatialMotionVectormlERKf @6148
    _ZNK21btSpatialMotionVectorngEv @6149
    _ZNK21btUniformScalingShape11getAabbSlowERK11btTransformR9btVector3S4_ @6150
    _ZNK21btUniformScalingShape15getLocalScalingEv @6151
    _ZNK21btUniformScalingShape21calculateLocalInertiaEfR9btVector3 @6152
    _ZNK21btUniformScalingShape24localGetSupportingVertexERK9btVector3 @6153
    _ZNK21btUniformScalingShape32getPreferredPenetrationDirectionEiR9btVector3 @6154
    _ZNK21btUniformScalingShape36getNumPreferredPenetrationDirectionsEv @6155
    _ZNK21btUniformScalingShape37localGetSupportingVertexWithoutMarginERK9btVector3 @6156
    _ZNK21btUniformScalingShape49batchedUnitVectorGetSupportingVertexWithoutMarginEPK9btVector3PS0_i @6157
    _ZNK21btUniformScalingShape7getAabbERK11btTransformR9btVector3S4_ @6158
    _ZNK21btUniformScalingShape7getNameEv @6159
    _ZNK21btUniformScalingShape9getMarginEv @6160
    _ZNK22CONTACT_KEY_TOKEN_COMPclERK17CONTACT_KEY_TOKENS2_ @6161
    _ZNK22UpdateIslandDispatcher7forLoopEii @6162
    _ZNK22btBvhTriangleMeshShape18serializeSingleBvhEP12btSerializer @6163
    _ZNK22btBvhTriangleMeshShape19processAllTrianglesEP18btTriangleCallbackRK9btVector3S4_ @6164
    _ZNK22btBvhTriangleMeshShape28calculateSerializeBufferSizeEv @6165
    _ZNK22btBvhTriangleMeshShape30serializeSingleTriangleInfoMapEP12btSerializer @6166
    _ZNK22btBvhTriangleMeshShape7getNameEv @6167
    _ZNK22btBvhTriangleMeshShape9serializeEPvP12btSerializer @6168
    _ZNK22btGImpactCompoundShape12getChildAabbEiRK11btTransformR9btVector3S4_ @6169
    _ZNK22btGImpactCompoundShape13getChildShapeEi @6170
    _ZNK22btGImpactCompoundShape17getBulletTriangleEiR17btTriangleShapeEx @6171
    _ZNK22btGImpactCompoundShape17getChildTransformEi @6172
    _ZNK22btGImpactCompoundShape17getNumChildShapesEv @6173
    _ZNK22btGImpactCompoundShape19getGImpactShapeTypeEv @6174
    _ZNK22btGImpactCompoundShape19getPrimitiveManagerEv @6175
    _ZNK22btGImpactCompoundShape20childrenHasTransformEv @6176
    _ZNK22btGImpactCompoundShape20getBulletTetrahedronEiR20btTetrahedronShapeEx @6177
    _ZNK22btGImpactCompoundShape21calculateLocalInertiaEfR9btVector3 @6178
    _ZNK22btGImpactCompoundShape22needsRetrieveTrianglesEv @6179
    _ZNK22btGImpactCompoundShape24CompoundPrimitiveManager10is_trimeshEv @6180
    _ZNK22btGImpactCompoundShape24CompoundPrimitiveManager17get_primitive_boxEiR6btAABB @6181
    _ZNK22btGImpactCompoundShape24CompoundPrimitiveManager19get_primitive_countEv @6182
    _ZNK22btGImpactCompoundShape24CompoundPrimitiveManager22get_primitive_triangleEiR19btPrimitiveTriangle @6183
    _ZNK22btGImpactCompoundShape25needsRetrieveTetrahedronsEv @6184
    _ZNK22btGImpactCompoundShape7getNameEv @6185
    _ZNK22btGImpactMeshShapePart13getChildShapeEi @6186
    _ZNK22btGImpactMeshShapePart14getVertexCountEv @6187
    _ZNK22btGImpactMeshShapePart15getLocalScalingEv @6188
    _ZNK22btGImpactMeshShapePart15lockChildShapesEv @6189
    _ZNK22btGImpactMeshShapePart17getBulletTriangleEiR17btTriangleShapeEx @6190
    _ZNK22btGImpactMeshShapePart17getChildTransformEi @6191
    _ZNK22btGImpactMeshShapePart17getNumChildShapesEv @6192
    _ZNK22btGImpactMeshShapePart17unlockChildShapesEv @6193
    _ZNK22btGImpactMeshShapePart19getGImpactShapeTypeEv @6194
    _ZNK22btGImpactMeshShapePart19getPrimitiveManagerEv @6195
    _ZNK22btGImpactMeshShapePart19processAllTrianglesEP18btTriangleCallbackRK9btVector3S4_ @6196
    _ZNK22btGImpactMeshShapePart20childrenHasTransformEv @6197
    _ZNK22btGImpactMeshShapePart20getBulletTetrahedronEiR20btTetrahedronShapeEx @6198
    _ZNK22btGImpactMeshShapePart21calculateLocalInertiaEfR9btVector3 @6199
    _ZNK22btGImpactMeshShapePart22needsRetrieveTrianglesEv @6200
    _ZNK22btGImpactMeshShapePart22processAllTrianglesRayEP18btTriangleCallbackRK9btVector3S4_ @6201
    _ZNK22btGImpactMeshShapePart23TrimeshPrimitiveManager10get_vertexEjR9btVector3 @6202
    _ZNK22btGImpactMeshShapePart23TrimeshPrimitiveManager10is_trimeshEv @6203
    _ZNK22btGImpactMeshShapePart23TrimeshPrimitiveManager11get_indicesEiRjS1_S1_ @6204
    _ZNK22btGImpactMeshShapePart23TrimeshPrimitiveManager16get_vertex_countEv @6205
    _ZNK22btGImpactMeshShapePart23TrimeshPrimitiveManager17get_primitive_boxEiR6btAABB @6206
    _ZNK22btGImpactMeshShapePart23TrimeshPrimitiveManager19get_bullet_triangleEiR17btTriangleShapeEx @6207
    _ZNK22btGImpactMeshShapePart23TrimeshPrimitiveManager19get_primitive_countEv @6208
    _ZNK22btGImpactMeshShapePart23TrimeshPrimitiveManager22get_primitive_triangleEiR19btPrimitiveTriangle @6209
    _ZNK22btGImpactMeshShapePart25needsRetrieveTetrahedronsEv @6210
    _ZNK22btGImpactMeshShapePart7getNameEv @6211
    _ZNK22btGImpactMeshShapePart7getPartEv @6212
    _ZNK22btGImpactMeshShapePart9getMarginEv @6213
    _ZNK22btGImpactMeshShapePart9getVertexEiR9btVector3 @6214
    _ZNK22btMultiBodyPoint2Point12getIslandIdAEv @6215
    _ZNK22btMultiBodyPoint2Point12getIslandIdBEv @6216
    _ZNK22btNNCGConstraintSolver13getSolverTypeEv @6217
    _ZNK22btRotationalLimitMotor16needApplyTorquesEv @6218
    _ZNK22btVoronoiSimplexSolver10getSimplexEP9btVector3S1_S1_ @6219
    _ZNK22btVoronoiSimplexSolver11fullSimplexEv @6220
    _ZNK22btVoronoiSimplexSolver11numVerticesEv @6221
    _ZNK22btVoronoiSimplexSolver12emptySimplexEv @6222
    _ZNK23btConvexPointCloudShape11getNumEdgesEv @6223
    _ZNK23btConvexPointCloudShape12getNumPlanesEv @6224
    _ZNK23btConvexPointCloudShape12getNumPointsEv @6225
    _ZNK23btConvexPointCloudShape14getNumVerticesEv @6226
    _ZNK23btConvexPointCloudShape14getScaledPointEi @6227
    _ZNK23btConvexPointCloudShape24localGetSupportingVertexERK9btVector3 @6228
    _ZNK23btConvexPointCloudShape37localGetSupportingVertexWithoutMarginERK9btVector3 @6229
    _ZNK23btConvexPointCloudShape49batchedUnitVectorGetSupportingVertexWithoutMarginEPK9btVector3PS0_i @6230
    _ZNK23btConvexPointCloudShape7getEdgeEiR9btVector3S1_ @6231
    _ZNK23btConvexPointCloudShape7getNameEv @6232
    _ZNK23btConvexPointCloudShape8getPlaneER9btVector3S1_i @6233
    _ZNK23btConvexPointCloudShape8isInsideERK9btVector3f @6234
    _ZNK23btConvexPointCloudShape9getVertexEiR9btVector3 @6235
    _ZNK23btDefaultSoftBodySolver13getSolverTypeEv @6236
    _ZNK23btDiscreteDynamicsWorld10getGravityEv @6237
    _ZNK23btDiscreteDynamicsWorld12getWorldTypeEv @6238
    _ZNK23btDiscreteDynamicsWorld13getConstraintEi @6239
    _ZNK23btDiscreteDynamicsWorld17getNumConstraintsEv @6240
    _ZNK23btGImpactShapeInterface12getChildAabbEiRK11btTransformR9btVector3S4_ @6241
    _ZNK23btGImpactShapeInterface12getShapeTypeEv @6242
    _ZNK23btGImpactShapeInterface15getLocalScalingEv @6243
    _ZNK23btGImpactShapeInterface15lockChildShapesEv @6244
    _ZNK23btGImpactShapeInterface17unlockChildShapesEv @6245
    _ZNK23btGImpactShapeInterface19processAllTrianglesEP18btTriangleCallbackRK9btVector3S4_ @6246
    _ZNK23btGImpactShapeInterface20getPrimitiveTriangleEiR19btPrimitiveTriangle @6247
    _ZNK23btGImpactShapeInterface22processAllTrianglesRayEP18btTriangleCallbackRK9btVector3S4_ @6248
    _ZNK23btGImpactShapeInterface7getAabbERK11btTransformR9btVector3S4_ @6249
    _ZNK23btGImpactShapeInterface7rayTestERK9btVector3S2_RN16btCollisionWorld17RayResultCallbackE @6250
    _ZNK23btGImpactShapeInterface9getBoxSetEv @6251
    _ZNK23btGImpactShapeInterface9hasBoxSetEv @6252
    _ZNK23btGeneric6DofConstraint23getCalculatedTransformAEv @6253
    _ZNK23btGeneric6DofConstraint23getCalculatedTransformBEv @6254
    _ZNK23btGeneric6DofConstraint24getRelativePivotPositionEi @6255
    _ZNK23btGeneric6DofConstraint28calculateSerializeBufferSizeEv @6256
    _ZNK23btGeneric6DofConstraint7getAxisEi @6257
    _ZNK23btGeneric6DofConstraint8getAngleEi @6258
    _ZNK23btGeneric6DofConstraint8getFlagsEv @6259
    _ZNK23btGeneric6DofConstraint8getParamEii @6260
    _ZNK23btGeneric6DofConstraint9serializeEPvP12btSerializer @6261
    _ZNK23btPoint2PointConstraint11getPivotInAEv @6262
    _ZNK23btPoint2PointConstraint11getPivotInBEv @6263
    _ZNK23btPoint2PointConstraint28calculateSerializeBufferSizeEv @6264
    _ZNK23btPoint2PointConstraint8getFlagsEv @6265
    _ZNK23btPoint2PointConstraint8getParamEii @6266
    _ZNK23btPoint2PointConstraint9serializeEPvP12btSerializer @6267
    _ZNK23btPolyhedralConvexShape19getConvexPolyhedronEv @6268
    _ZNK23btPolyhedralConvexShape21calculateLocalInertiaEfR9btVector3 @6269
    _ZNK23btPolyhedralConvexShape37localGetSupportingVertexWithoutMarginERK9btVector3 @6270
    _ZNK23btPolyhedralConvexShape49batchedUnitVectorGetSupportingVertexWithoutMarginEPK9btVector3PS0_i @6271
    _ZNK23btSimpleBroadphaseProxy11GetNextFreeEv @6272
    _ZNK23btStridingMeshInterface10getScalingEv @6273
    _ZNK23btStridingMeshInterface14getPremadeAabbEP9btVector3S1_ @6274
    _ZNK23btStridingMeshInterface14hasPremadeAabbEv @6275
    _ZNK23btStridingMeshInterface14setPremadeAabbERK9btVector3S2_ @6276
    _ZNK23btStridingMeshInterface27InternalProcessAllTrianglesEP31btInternalTriangleIndexCallbackRK9btVector3S4_ @6277
    _ZNK23btStridingMeshInterface28calculateSerializeBufferSizeEv @6278
    _ZNK23btStridingMeshInterface9serializeEPvP12btSerializer @6279
    _ZNK24btCollisionObjectWrapper17getCollisionShapeEv @6280
    _ZNK24btCollisionObjectWrapper17getWorldTransformEv @6281
    _ZNK24btCollisionObjectWrapper18getCollisionObjectEv @6282
    _ZNK24btCollisionWorldImporter10getNumBvhsEv @6283
    _ZNK24btCollisionWorldImporter13getBvhByIndexEi @6284
    _ZNK24btCollisionWorldImporter17getNameForPointerEPKv @6285
    _ZNK24btCollisionWorldImporter17getNumRigidBodiesEv @6286
    _ZNK24btCollisionWorldImporter19getRigidBodyByIndexEi @6287
    _ZNK24btCollisionWorldImporter21getNumCollisionShapesEv @6288
    _ZNK24btCollisionWorldImporter22getNumTriangleInfoMapsEv @6289
    _ZNK24btCollisionWorldImporter25getTriangleInfoMapByIndexEi @6290
    _ZNK24btConstraintSolverPoolMt13getSolverTypeEv @6291
    _ZNK24btConvexTriangleCallback10getAabbMaxEv @6292
    _ZNK24btConvexTriangleCallback10getAabbMinEv @6293
    _ZNK24btMultiBodyDynamicsWorld17getNumMultibodiesEv @6294
    _ZNK24btMultiBodyDynamicsWorld22getMultiBodyConstraintEi @6295
    _ZNK24btMultiBodyDynamicsWorld26getNumMultiBodyConstraintsEv @6296
    _ZNK24btSoftBodyCollisionShape15getLocalScalingEv @6297
    _ZNK24btSoftBodyCollisionShape19processAllTrianglesEP18btTriangleCallbackRK9btVector3S4_ @6298
    _ZNK24btSoftBodyCollisionShape21calculateLocalInertiaEfR9btVector3 @6299
    _ZNK24btSoftBodyCollisionShape7getAabbERK11btTransformR9btVector3S4_ @6300
    _ZNK24btSoftBodyCollisionShape7getNameEv @6301
    _ZNK24btSoftRigidDynamicsWorld12getWorldTypeEv @6302
    _ZNK24btSoftRigidDynamicsWorld7rayTestERK9btVector3S2_RN16btCollisionWorld17RayResultCallbackE @6303
    _ZNK25btConvexTriangleMeshShape11getNumEdgesEv @6304
    _ZNK25btConvexTriangleMeshShape12getNumPlanesEv @6305
    _ZNK25btConvexTriangleMeshShape14getNumVerticesEv @6306
    _ZNK25btConvexTriangleMeshShape15getLocalScalingEv @6307
    _ZNK25btConvexTriangleMeshShape24localGetSupportingVertexERK9btVector3 @6308
    _ZNK25btConvexTriangleMeshShape31calculatePrincipalAxisTransformER11btTransformR9btVector3Rf @6309
    _ZNK25btConvexTriangleMeshShape37localGetSupportingVertexWithoutMarginERK9btVector3 @6310
    _ZNK25btConvexTriangleMeshShape49batchedUnitVectorGetSupportingVertexWithoutMarginEPK9btVector3PS0_i @6311
    _ZNK25btConvexTriangleMeshShape7getEdgeEiR9btVector3S1_ @6312
    _ZNK25btConvexTriangleMeshShape7getNameEv @6313
    _ZNK25btConvexTriangleMeshShape8getPlaneER9btVector3S1_i @6314
    _ZNK25btConvexTriangleMeshShape8isInsideERK9btVector3f @6315
    _ZNK25btConvexTriangleMeshShape9getVertexEiR9btVector3 @6316
    _ZNK25btDiscreteDynamicsWorldMt26UpdaterIntegrateTransforms7forLoopEii @6317
    _ZNK25btDiscreteDynamicsWorldMt31UpdaterCreatePredictiveContacts7forLoopEii @6318
    _ZNK25btHeightfieldTerrainShape15getLocalScalingEv @6319
    _ZNK25btHeightfieldTerrainShape17quantizeWithClampEPiRK9btVector3i @6320
    _ZNK25btHeightfieldTerrainShape19processAllTrianglesEP18btTriangleCallbackRK9btVector3S4_ @6321
    _ZNK25btHeightfieldTerrainShape21calculateLocalInertiaEfR9btVector3 @6322
    _ZNK25btHeightfieldTerrainShape22getRawHeightFieldValueEii @6323
    _ZNK25btHeightfieldTerrainShape7getAabbERK11btTransformR9btVector3S4_ @6324
    _ZNK25btHeightfieldTerrainShape7getNameEv @6325
    _ZNK25btHeightfieldTerrainShape9getVertexEiiR9btVector3 @6326
    _ZNK25btMultiBodyGearConstraint12getIslandIdAEv @6327
    _ZNK25btMultiBodyGearConstraint12getIslandIdBEv @6328
    _ZNK25btTaskSchedulerSequential13getNumThreadsEv @6329
    _ZNK25btTaskSchedulerSequential16getMaxNumThreadsEv @6330
    _ZNK25btTranslationalLimitMotor14needApplyForceEi @6331
    _ZNK25btTranslationalLimitMotor9isLimitedEi @6332
    _ZNK26CollisionDispatcherUpdater7forLoopEii @6333
    _ZNK26UpdaterUnconstrainedMotion7forLoopEii @6334
    _ZNK26btMultiBodyFixedConstraint12getIslandIdAEv @6335
    _ZNK26btMultiBodyFixedConstraint12getIslandIdBEv @6336
    _ZNK26btSoftBodyTriangleCallback10getAabbMaxEv @6337
    _ZNK26btSoftBodyTriangleCallback10getAabbMinEv @6338
    _ZNK26btTriangleIndexVertexArray14getNumSubPartsEv @6339
    _ZNK26btTriangleIndexVertexArray14getPremadeAabbEP9btVector3S1_ @6340
    _ZNK26btTriangleIndexVertexArray14hasPremadeAabbEv @6341
    _ZNK26btTriangleIndexVertexArray14setPremadeAabbERK9btVector3S2_ @6342
    _ZNK26btTriangleIndexVertexArray24unLockReadOnlyVertexBaseEi @6343
    _ZNK26btTriangleIndexVertexArray32getLockedReadOnlyVertexIndexBaseEPPKhRiR14PHY_ScalarTypeS3_S2_S3_S3_S5_i @6344
    _ZNK27btMultiBodySliderConstraint12getIslandIdAEv @6345
    _ZNK27btMultiBodySliderConstraint12getIslandIdBEv @6346
    _ZNK27btSoftClusterCollisionShape12getShapeTypeEv @6347
    _ZNK27btSoftClusterCollisionShape21calculateLocalInertiaEfR9btVector3 @6348
    _ZNK27btSoftClusterCollisionShape24localGetSupportingVertexERK9btVector3 @6349
    _ZNK27btSoftClusterCollisionShape37localGetSupportingVertexWithoutMarginERK9btVector3 @6350
    _ZNK27btSoftClusterCollisionShape49batchedUnitVectorGetSupportingVertexWithoutMarginEPK9btVector3PS0_i @6351
    _ZNK27btSoftClusterCollisionShape7getAabbERK11btTransformR9btVector3S4_ @6352
    _ZNK27btSoftClusterCollisionShape7getNameEv @6353
    _ZNK27btSoftClusterCollisionShape9getMarginEv @6354
    _ZNK28IslandBatchSizeSortPredicateclEPKN27btSimulationIslandManagerMt6IslandES3_ @6355
    _ZNK28btHashedOverlappingPairCache22getNumOverlappingPairsEv @6356
    _ZNK28btHashedOverlappingPairCache24needsBroadphaseCollisionEP17btBroadphaseProxyS1_ @6357
    _ZNK28btHashedOverlappingPairCache26getOverlappingPairArrayPtrEv @6358
    _ZNK28btScaledBvhTriangleMeshShape15getLocalScalingEv @6359
    _ZNK28btScaledBvhTriangleMeshShape19processAllTrianglesEP18btTriangleCallbackRK9btVector3S4_ @6360
    _ZNK28btScaledBvhTriangleMeshShape21calculateLocalInertiaEfR9btVector3 @6361
    _ZNK28btScaledBvhTriangleMeshShape28calculateSerializeBufferSizeEv @6362
    _ZNK28btScaledBvhTriangleMeshShape7getAabbERK11btTransformR9btVector3S4_ @6363
    _ZNK28btScaledBvhTriangleMeshShape7getNameEv @6364
    _ZNK28btScaledBvhTriangleMeshShape9serializeEPvP12btSerializer @6365
    _ZNK28btSoftMultiBodyDynamicsWorld12getWorldTypeEv @6366
    _ZNK28btSoftMultiBodyDynamicsWorld7rayTestERK9btVector3S2_RN16btCollisionWorld17RayResultCallbackE @6367
    _ZNK28btSortedOverlappingPairCache22getNumOverlappingPairsEv @6368
    _ZNK28btSortedOverlappingPairCache24needsBroadphaseCollisionEP17btBroadphaseProxyS1_ @6369
    _ZNK28btSortedOverlappingPairCache26getOverlappingPairArrayPtrEv @6370
    _ZNK29btBroadphasePairSortPredicateclERK16btBroadphasePairS2_ @6371
    _ZNK29btGeneric6DofSpringConstraint28calculateSerializeBufferSizeEv @6372
    _ZNK29btGeneric6DofSpringConstraint9serializeEPvP12btSerializer @6373
    _ZNK30btGeneric6DofSpring2Constraint23getCalculatedTransformAEv @6374
    _ZNK30btGeneric6DofSpring2Constraint23getCalculatedTransformBEv @6375
    _ZNK30btGeneric6DofSpring2Constraint28calculateSerializeBufferSizeEv @6376
    _ZNK30btGeneric6DofSpring2Constraint7getAxisEi @6377
    _ZNK30btGeneric6DofSpring2Constraint8getAngleEi @6378
    _ZNK30btGeneric6DofSpring2Constraint8getParamEii @6379
    _ZNK30btGeneric6DofSpring2Constraint9serializeEPvP12btSerializer @6380
    _ZNK30btKinematicCharacterController10getGravityEv @6381
    _ZNK30btKinematicCharacterController11getMaxSlopeEv @6382
    _ZNK30btKinematicCharacterController11getRotationER9btVector3S1_ @6383
    _ZNK30btKinematicCharacterController12getFallSpeedEv @6384
    _ZNK30btKinematicCharacterController12getJumpSpeedEv @6385
    _ZNK30btKinematicCharacterController16getLinearDampingEv @6386
    _ZNK30btKinematicCharacterController17getAngularDampingEv @6387
    _ZNK30btKinematicCharacterController17getLinearVelocityEv @6388
    _ZNK30btKinematicCharacterController18getAngularVelocityEv @6389
    _ZNK30btKinematicCharacterController22getMaxPenetrationDepthEv @6390
    _ZNK30btKinematicCharacterController7canJumpEv @6391
    _ZNK30btKinematicCharacterController8onGroundEv @6392
    _ZNK31IslandBodyCapacitySortPredicateclEPKN27btSimulationIslandManagerMt6IslandES3_ @6393
    _ZNK31btMultiBodyJointLimitConstraint12getIslandIdAEv @6394
    _ZNK31btMultiBodyJointLimitConstraint12getIslandIdBEv @6395
    _ZNK31btUnionFindElementSortPredicateclERK9btElementS2_ @6396
    _ZNK32btConvexInternalAabbCachingShape17getNonvirtualAabbERK11btTransformR9btVector3S4_f @6397
    _ZNK32btConvexInternalAabbCachingShape18getCachedLocalAabbER9btVector3S1_ @6398
    _ZNK32btConvexInternalAabbCachingShape7getAabbERK11btTransformR9btVector3S4_ @6399
    _ZNK33btPersistentManifoldSortPredicateclEPK20btPersistentManifoldS2_ @6400
    _ZNK33btSortConstraintOnIslandPredicateclEPK17btTypedConstraintS2_ @6401
    _ZNK34btClosestNotMeConvexResultCallback14needsCollisionEP17btBroadphaseProxy @6402
    _ZNK34btPolyhedralConvexAabbCachingShape17getNonvirtualAabbERK11btTransformR9btVector3S4_f @6403
    _ZNK34btPolyhedralConvexAabbCachingShape7getAabbERK11btTransformR9btVector3S4_ @6404
    _ZNK34btSortConstraintOnIslandPredicate2clEPK17btTypedConstraintS2_ @6405
    _ZNK35btSequentialImpulseConstraintSolver13getSolverTypeEv @6406
    _ZNK42btSortMultiBodyConstraintOnIslandPredicateclEPK21btMultiBodyConstraintS2_ @6407
    _ZNK4int3ixEi @6408
    _ZNK5btLCP12AiC_times_qCEiPf @6409
    _ZNK5btLCP12AiN_times_qNEiPf @6410
    _ZNK5btLCP3AiiEi @6411
    _ZNK5btLCP4numCEv @6412
    _ZNK5btLCP4numNEv @6413
    _ZNK5btLCP6getNubEv @6414
    _ZNK5btLCP6indexCEi @6415
    _ZNK5btLCP6indexNEi @6416
    _ZNK6btAABB11collide_rayERK9btVector3S2_ @6417
    _ZNK6btAABB13has_collisionERKS_ @6418
    _ZNK6btAABB14plane_classifyERK9btVector4 @6419
    _ZNK6btAABB17get_center_extendER9btVector3S1_ @6420
    _ZNK6btAABB19projection_intervalERK9btVector3RfS3_ @6421
    _ZNK6btAABB23overlapping_trans_cacheERKS_RK26BT_BOX_BOX_TRANSFORM_CACHEb @6422
    _ZNK6btDbvt15rayTestInternalEPK10btDbvtNodeRK9btVector3S5_S5_PjfS5_S5_R20btAlignedObjectArrayIS2_ERNS_8ICollideE @6423
    _ZNK6btDbvt21collideTVNoStackAllocEPK10btDbvtNodeRK12btDbvtAabbMmR20btAlignedObjectArrayIS2_ERNS_8ICollideE @6424
    _ZNK6btDbvt5cloneERS_PNS_6ICloneE @6425
    _ZNK6btDbvt5emptyEv @6426
    _ZNK6btDbvt5writeEPNS_7IWriterE @6427
    _ZNK6btDbvt9collideTVEPK10btDbvtNodeRK12btDbvtAabbMmRNS_8ICollideE @6428
    _ZNK8HullDesc11HasHullFlagE8HullFlag @6429
    _ZNK8pointCmpclERKN20btConvexHullInternal7Point32ES3_ @6430
    _ZNK9__gnu_cxx13new_allocatorIP11btRigidBodyE8max_sizeEv @6431
    _ZNK9__gnu_cxx13new_allocatorIP13RayTestResultE8max_sizeEv @6432
    _ZNK9__gnu_cxx13new_allocatorIP16btCollisionShapeE8max_sizeEv @6433
    _ZNK9__gnu_cxx13new_allocatorIP16btRaycastVehicleE8max_sizeEv @6434
    _ZNK9__gnu_cxx13new_allocatorIP17btTypedConstraintE8max_sizeEv @6435
    _ZNK9__gnu_cxx13new_allocatorIP9CharacterE8max_sizeEv @6436
    _ZNK9__gnu_cxx17__normal_iteratorIPP11btRigidBodySt6vectorIS2_SaIS2_EEE4baseEv @6437
    _ZNK9__gnu_cxx17__normal_iteratorIPP13RayTestResultSt6vectorIS2_SaIS2_EEE4baseEv @6438
    _ZNK9__gnu_cxx17__normal_iteratorIPP16btCollisionShapeSt6vectorIS2_SaIS2_EEE4baseEv @6439
    _ZNK9__gnu_cxx17__normal_iteratorIPP16btRaycastVehicleSt6vectorIS2_SaIS2_EEE4baseEv @6440
    _ZNK9__gnu_cxx17__normal_iteratorIPP17btTypedConstraintSt6vectorIS2_SaIS2_EEE4baseEv @6441
    _ZNK9__gnu_cxx17__normal_iteratorIPP9CharacterSt6vectorIS2_SaIS2_EEE4baseEv @6442
    _ZNK9btBvhTree10isLeafNodeEi @6443
    _ZNK9btBvhTree11getLeftNodeEi @6444
    _ZNK9btBvhTree11getNodeDataEi @6445
    _ZNK9btBvhTree12getNodeBoundEiR6btAABB @6446
    _ZNK9btBvhTree12getNodeCountEv @6447
    _ZNK9btBvhTree12getRightNodeEi @6448
    _ZNK9btBvhTree18getEscapeNodeIndexEi @6449
    _ZNK9btHashInt6equalsERKS_ @6450
    _ZNK9btHashInt7getHashEv @6451
    _ZNK9btHashInt7getUid1Ev @6452
    _ZNK9btHashKeyI10btTriIndexE6equalsERKS1_ @6453
    _ZNK9btHashKeyI10btTriIndexE7getHashEv @6454
    _ZNK9btHashKeyI10btTriIndexE7getUid1Ev @6455
    _ZNK9btHashMapI12btHashStringP16btCollisionShapeE9findIndexERKS0_ @6456
    _ZNK9btHashMapI12btHashStringP17btCollisionObjectE9findIndexERKS0_ @6457
    _ZNK9btHashMapI20btInternalVertexPair14btInternalEdgeE9findIndexERKS0_ @6458
    _ZNK9btHashMapI9btHashInt14btTriangleInfoE9findIndexERKS0_ @6459
    _ZNK9btHashMapI9btHashKeyI10btTriIndexES1_E4sizeEv @6460
    _ZNK9btHashMapI9btHashKeyI10btTriIndexES1_E9findIndexERKS2_ @6461
    _ZNK9btHashMapI9btHashPtrP14btOptimizedBvhE9findIndexERKS0_ @6462
    _ZNK9btHashMapI9btHashPtrP16btCollisionShapeE9findIndexERKS0_ @6463
    _ZNK9btHashMapI9btHashPtrP17btCollisionObjectE9findIndexERKS0_ @6464
    _ZNK9btHashMapI9btHashPtrPKcE4findERKS0_ @6465
    _ZNK9btHashMapI9btHashPtrPKcE9findIndexERKS0_ @6466
    _ZNK9btHashMapI9btHashPtriE9findIndexERKS0_ @6467
    _ZNK9btHashPtr10getPointerEv @6468
    _ZNK9btHashPtr6equalsERKS_ @6469
    _ZNK9btHashPtr7getHashEv @6470
    _ZNK9btMatrixXIfE16getBufferPointerEv @6471
    _ZNK9btMatrixXIfE4colsEv @6472
    _ZNK9btMatrixXIfE4rowsEv @6473
    _ZNK9btMatrixXIfE9transposeEv @6474
    _ZNK9btMatrixXIfEclEii @6475
    _ZNK9btVector310normalizedEv @6476
    _ZNK9btVector314serializeFloatER18btVector3FloatData @6477
    _ZNK9btVector31wEv @6478
    _ZNK9btVector31xEv @6479
    _ZNK9btVector31yEv @6480
    _ZNK9btVector31zEv @6481
    _ZNK9btVector322getSkewSymmetricMatrixEPS_S0_S0_ @6482
    _ZNK9btVector33dotERKS_ @6483
    _ZNK9btVector34dot3ERKS_S1_S1_ @6484
    _ZNK9btVector34getXEv @6485
    _ZNK9btVector34getYEv @6486
    _ZNK9btVector34getZEv @6487
    _ZNK9btVector34lerpERKS_RKf @6488
    _ZNK9btVector34normEv @6489
    _ZNK9btVector35crossERKS_ @6490
    _ZNK9btVector36isZeroEv @6491
    _ZNK9btVector36lengthEv @6492
    _ZNK9btVector36maxDotEPKS_lRf @6493
    _ZNK9btVector36minDotEPKS_lRf @6494
    _ZNK9btVector36tripleERKS_S1_ @6495
    _ZNK9btVector37length2Ev @6496
    _ZNK9btVector37maxAxisEv @6497
    _ZNK9btVector37minAxisEv @6498
    _ZNK9btVector38absoluteEv @6499
    _ZNK9btVector38safeNormEv @6500
    _ZNK9btVector39distance2ERKS_ @6501
    _ZNK9btVector39fuzzyZeroEv @6502
    _ZNK9btVector39serializeER18btVector3FloatData @6503
    _ZNK9btVector3cvPKfEv @6504
    _ZNK9btVector3eqERKS_ @6505
    _ZNK9btVector412closestAxis4Ev @6506
    _ZNK9btVector48maxAxis4Ev @6507
    _ZNK9btVector49absolute4Ev @6508
    _ZNK9btVectorXIfE4colsEv @6509
    _ZNK9btVectorXIfE4nrm2Ev @6510
    _ZNK9btVectorXIfE4rowsEv @6511
    _ZNK9btVectorXIfE4sizeEv @6512
    _ZNK9btVectorXIfEixEi @6513
    _ZNK9gim_arrayI11GIM_CONTACTE4backEv @6514
    _ZNK9gim_arrayI11GIM_CONTACTE4sizeEv @6515
    _ZNK9gim_arrayI11GIM_CONTACTEixEy @6516
    _ZNK9gim_arrayI13GIM_AABB_DATAE4sizeEv @6517
    _ZNK9gim_arrayI15GIM_RSORT_TOKENE4sizeEv @6518
    _ZNKSt12_Vector_baseIP11btRigidBodySaIS1_EE19_M_get_Tp_allocatorEv @6519
    _ZNKSt12_Vector_baseIP13RayTestResultSaIS1_EE19_M_get_Tp_allocatorEv @6520
    _ZNKSt12_Vector_baseIP16btCollisionShapeSaIS1_EE19_M_get_Tp_allocatorEv @6521
    _ZNKSt12_Vector_baseIP16btRaycastVehicleSaIS1_EE19_M_get_Tp_allocatorEv @6522
    _ZNKSt12_Vector_baseIP17btTypedConstraintSaIS1_EE19_M_get_Tp_allocatorEv @6523
    _ZNKSt12_Vector_baseIP9CharacterSaIS1_EE19_M_get_Tp_allocatorEv @6524
    _ZNKSt13move_iteratorIPP11btRigidBodyE4baseEv @6525
    _ZNKSt13move_iteratorIPP13RayTestResultE4baseEv @6526
    _ZNKSt13move_iteratorIPP16btCollisionShapeE4baseEv @6527
    _ZNKSt13move_iteratorIPP16btRaycastVehicleE4baseEv @6528
    _ZNKSt13move_iteratorIPP17btTypedConstraintE4baseEv @6529
    _ZNKSt13move_iteratorIPP9CharacterE4baseEv @6530
    _ZNKSt6vectorIP11btRigidBodySaIS1_EE12_M_check_lenEyPKc @6531
    _ZNKSt6vectorIP11btRigidBodySaIS1_EE14_M_range_checkEy @6532
    _ZNKSt6vectorIP11btRigidBodySaIS1_EE4sizeEv @6533
    _ZNKSt6vectorIP11btRigidBodySaIS1_EE8max_sizeEv @6534
    _ZNKSt6vectorIP13RayTestResultSaIS1_EE12_M_check_lenEyPKc @6535
    _ZNKSt6vectorIP13RayTestResultSaIS1_EE14_M_range_checkEy @6536
    _ZNKSt6vectorIP13RayTestResultSaIS1_EE4sizeEv @6537
    _ZNKSt6vectorIP13RayTestResultSaIS1_EE8max_sizeEv @6538
    _ZNKSt6vectorIP16btCollisionShapeSaIS1_EE12_M_check_lenEyPKc @6539
    _ZNKSt6vectorIP16btCollisionShapeSaIS1_EE14_M_range_checkEy @6540
    _ZNKSt6vectorIP16btCollisionShapeSaIS1_EE4sizeEv @6541
    _ZNKSt6vectorIP16btCollisionShapeSaIS1_EE8max_sizeEv @6542
    _ZNKSt6vectorIP16btRaycastVehicleSaIS1_EE12_M_check_lenEyPKc @6543
    _ZNKSt6vectorIP16btRaycastVehicleSaIS1_EE14_M_range_checkEy @6544
    _ZNKSt6vectorIP16btRaycastVehicleSaIS1_EE4sizeEv @6545
    _ZNKSt6vectorIP16btRaycastVehicleSaIS1_EE8max_sizeEv @6546
    _ZNKSt6vectorIP17btTypedConstraintSaIS1_EE12_M_check_lenEyPKc @6547
    _ZNKSt6vectorIP17btTypedConstraintSaIS1_EE14_M_range_checkEy @6548
    _ZNKSt6vectorIP17btTypedConstraintSaIS1_EE4sizeEv @6549
    _ZNKSt6vectorIP17btTypedConstraintSaIS1_EE8max_sizeEv @6550
    _ZNKSt6vectorIP9CharacterSaIS1_EE12_M_check_lenEyPKc @6551
    _ZNKSt6vectorIP9CharacterSaIS1_EE14_M_range_checkEy @6552
    _ZNKSt6vectorIP9CharacterSaIS1_EE4sizeEv @6553
    _ZNKSt6vectorIP9CharacterSaIS1_EE8max_sizeEv @6554
    _ZNSaIP11btRigidBodyEC2Ev @6555
    _ZNSaIP13RayTestResultEC2Ev @6556
    _ZNSaIP16btCollisionShapeEC2Ev @6557
    _ZNSaIP16btRaycastVehicleEC2Ev @6558
    _ZNSaIP17btTypedConstraintEC2Ev @6559
    _ZNSaIP9CharacterEC2Ev @6560
    _ZNSt11__copy_moveILb1ELb1ESt26random_access_iterator_tagE8__copy_mIP11btRigidBodyEEPT_PKS5_S8_S6_ @6561
    _ZNSt11__copy_moveILb1ELb1ESt26random_access_iterator_tagE8__copy_mIP13RayTestResultEEPT_PKS5_S8_S6_ @6562
    _ZNSt11__copy_moveILb1ELb1ESt26random_access_iterator_tagE8__copy_mIP16btCollisionShapeEEPT_PKS5_S8_S6_ @6563
    _ZNSt11__copy_moveILb1ELb1ESt26random_access_iterator_tagE8__copy_mIP16btRaycastVehicleEEPT_PKS5_S8_S6_ @6564
    _ZNSt11__copy_moveILb1ELb1ESt26random_access_iterator_tagE8__copy_mIP17btTypedConstraintEEPT_PKS5_S8_S6_ @6565
    _ZNSt11__copy_moveILb1ELb1ESt26random_access_iterator_tagE8__copy_mIP9CharacterEEPT_PKS5_S8_S6_ @6566
    _ZNSt12_Destroy_auxILb1EE9__destroyIPP11btRigidBodyEEvT_S5_ @6567
    _ZNSt12_Destroy_auxILb1EE9__destroyIPP13RayTestResultEEvT_S5_ @6568
    _ZNSt12_Destroy_auxILb1EE9__destroyIPP16btCollisionShapeEEvT_S5_ @6569
    _ZNSt12_Destroy_auxILb1EE9__destroyIPP16btRaycastVehicleEEvT_S5_ @6570
    _ZNSt12_Destroy_auxILb1EE9__destroyIPP17btTypedConstraintEEvT_S5_ @6571
    _ZNSt12_Destroy_auxILb1EE9__destroyIPP9CharacterEEvT_S5_ @6572
    _ZNSt12_Vector_baseIP11btRigidBodySaIS1_EE11_M_allocateEy @6573
    _ZNSt12_Vector_baseIP11btRigidBodySaIS1_EE12_Vector_implC1Ev @6574
    _ZNSt12_Vector_baseIP11btRigidBodySaIS1_EE13_M_deallocateEPS1_y @6575
    _ZNSt12_Vector_baseIP11btRigidBodySaIS1_EE17_Vector_impl_dataC2Ev @6576
    _ZNSt12_Vector_baseIP11btRigidBodySaIS1_EE19_M_get_Tp_allocatorEv @6577
    _ZNSt12_Vector_baseIP11btRigidBodySaIS1_EEC2Ev @6578
    _ZNSt12_Vector_baseIP13RayTestResultSaIS1_EE11_M_allocateEy @6579
    _ZNSt12_Vector_baseIP13RayTestResultSaIS1_EE12_Vector_implC1Ev @6580
    _ZNSt12_Vector_baseIP13RayTestResultSaIS1_EE13_M_deallocateEPS1_y @6581
    _ZNSt12_Vector_baseIP13RayTestResultSaIS1_EE17_Vector_impl_dataC2Ev @6582
    _ZNSt12_Vector_baseIP13RayTestResultSaIS1_EE19_M_get_Tp_allocatorEv @6583
    _ZNSt12_Vector_baseIP13RayTestResultSaIS1_EEC2Ev @6584
    _ZNSt12_Vector_baseIP16btCollisionShapeSaIS1_EE11_M_allocateEy @6585
    _ZNSt12_Vector_baseIP16btCollisionShapeSaIS1_EE12_Vector_implC1Ev @6586
    _ZNSt12_Vector_baseIP16btCollisionShapeSaIS1_EE13_M_deallocateEPS1_y @6587
    _ZNSt12_Vector_baseIP16btCollisionShapeSaIS1_EE17_Vector_impl_dataC2Ev @6588
    _ZNSt12_Vector_baseIP16btCollisionShapeSaIS1_EE19_M_get_Tp_allocatorEv @6589
    _ZNSt12_Vector_baseIP16btCollisionShapeSaIS1_EEC2Ev @6590
    _ZNSt12_Vector_baseIP16btRaycastVehicleSaIS1_EE11_M_allocateEy @6591
    _ZNSt12_Vector_baseIP16btRaycastVehicleSaIS1_EE12_Vector_implC1Ev @6592
    _ZNSt12_Vector_baseIP16btRaycastVehicleSaIS1_EE13_M_deallocateEPS1_y @6593
    _ZNSt12_Vector_baseIP16btRaycastVehicleSaIS1_EE17_Vector_impl_dataC2Ev @6594
    _ZNSt12_Vector_baseIP16btRaycastVehicleSaIS1_EE19_M_get_Tp_allocatorEv @6595
    _ZNSt12_Vector_baseIP16btRaycastVehicleSaIS1_EEC2Ev @6596
    _ZNSt12_Vector_baseIP17btTypedConstraintSaIS1_EE11_M_allocateEy @6597
    _ZNSt12_Vector_baseIP17btTypedConstraintSaIS1_EE12_Vector_implC1Ev @6598
    _ZNSt12_Vector_baseIP17btTypedConstraintSaIS1_EE13_M_deallocateEPS1_y @6599
    _ZNSt12_Vector_baseIP17btTypedConstraintSaIS1_EE17_Vector_impl_dataC2Ev @6600
    _ZNSt12_Vector_baseIP17btTypedConstraintSaIS1_EE19_M_get_Tp_allocatorEv @6601
    _ZNSt12_Vector_baseIP17btTypedConstraintSaIS1_EEC2Ev @6602
    _ZNSt12_Vector_baseIP9CharacterSaIS1_EE11_M_allocateEy @6603
    _ZNSt12_Vector_baseIP9CharacterSaIS1_EE12_Vector_implC1Ev @6604
    _ZNSt12_Vector_baseIP9CharacterSaIS1_EE13_M_deallocateEPS1_y @6605
    _ZNSt12_Vector_baseIP9CharacterSaIS1_EE17_Vector_impl_dataC2Ev @6606
    _ZNSt12_Vector_baseIP9CharacterSaIS1_EE19_M_get_Tp_allocatorEv @6607
    _ZNSt12_Vector_baseIP9CharacterSaIS1_EEC2Ev @6608
    _ZNSt13move_iteratorIPP11btRigidBodyEC1ES2_ @6609
    _ZNSt13move_iteratorIPP13RayTestResultEC1ES2_ @6610
    _ZNSt13move_iteratorIPP16btCollisionShapeEC1ES2_ @6611
    _ZNSt13move_iteratorIPP16btRaycastVehicleEC1ES2_ @6612
    _ZNSt13move_iteratorIPP17btTypedConstraintEC1ES2_ @6613
    _ZNSt13move_iteratorIPP9CharacterEC1ES2_ @6614
    _ZNSt16allocator_traitsISaIP11btRigidBodyEE10deallocateERS2_PS1_y @6615
    _ZNSt16allocator_traitsISaIP11btRigidBodyEE7destroyIS1_EEvRS2_PT_ @6616
    _ZNSt16allocator_traitsISaIP11btRigidBodyEE8allocateERS2_y @6617
    _ZNSt16allocator_traitsISaIP11btRigidBodyEE8max_sizeERKS2_ @6618
    _ZNSt16allocator_traitsISaIP11btRigidBodyEE9constructIS1_JRKS1_EEEvRS2_PT_DpOT0_ @6619
    _ZNSt16allocator_traitsISaIP13RayTestResultEE10deallocateERS2_PS1_y @6620
    _ZNSt16allocator_traitsISaIP13RayTestResultEE7destroyIS1_EEvRS2_PT_ @6621
    _ZNSt16allocator_traitsISaIP13RayTestResultEE8allocateERS2_y @6622
    _ZNSt16allocator_traitsISaIP13RayTestResultEE8max_sizeERKS2_ @6623
    _ZNSt16allocator_traitsISaIP13RayTestResultEE9constructIS1_JRKS1_EEEvRS2_PT_DpOT0_ @6624
    _ZNSt16allocator_traitsISaIP16btCollisionShapeEE10deallocateERS2_PS1_y @6625
    _ZNSt16allocator_traitsISaIP16btCollisionShapeEE7destroyIS1_EEvRS2_PT_ @6626
    _ZNSt16allocator_traitsISaIP16btCollisionShapeEE8allocateERS2_y @6627
    _ZNSt16allocator_traitsISaIP16btCollisionShapeEE8max_sizeERKS2_ @6628
    _ZNSt16allocator_traitsISaIP16btCollisionShapeEE9constructIS1_JRKS1_EEEvRS2_PT_DpOT0_ @6629
    _ZNSt16allocator_traitsISaIP16btRaycastVehicleEE10deallocateERS2_PS1_y @6630
    _ZNSt16allocator_traitsISaIP16btRaycastVehicleEE7destroyIS1_EEvRS2_PT_ @6631
    _ZNSt16allocator_traitsISaIP16btRaycastVehicleEE8allocateERS2_y @6632
    _ZNSt16allocator_traitsISaIP16btRaycastVehicleEE8max_sizeERKS2_ @6633
    _ZNSt16allocator_traitsISaIP16btRaycastVehicleEE9constructIS1_JRKS1_EEEvRS2_PT_DpOT0_ @6634
    _ZNSt16allocator_traitsISaIP17btTypedConstraintEE10deallocateERS2_PS1_y @6635
    _ZNSt16allocator_traitsISaIP17btTypedConstraintEE7destroyIS1_EEvRS2_PT_ @6636
    _ZNSt16allocator_traitsISaIP17btTypedConstraintEE8allocateERS2_y @6637
    _ZNSt16allocator_traitsISaIP17btTypedConstraintEE8max_sizeERKS2_ @6638
    _ZNSt16allocator_traitsISaIP17btTypedConstraintEE9constructIS1_JRKS1_EEEvRS2_PT_DpOT0_ @6639
    _ZNSt16allocator_traitsISaIP9CharacterEE10deallocateERS2_PS1_y @6640
    _ZNSt16allocator_traitsISaIP9CharacterEE7destroyIS1_EEvRS2_PT_ @6641
    _ZNSt16allocator_traitsISaIP9CharacterEE8allocateERS2_y @6642
    _ZNSt16allocator_traitsISaIP9CharacterEE8max_sizeERKS2_ @6643
    _ZNSt16allocator_traitsISaIP9CharacterEE9constructIS1_JRKS1_EEEvRS2_PT_DpOT0_ @6644
    _ZNSt20__uninitialized_copyILb1EE13__uninit_copyISt13move_iteratorIPP11btRigidBodyES5_EET0_T_S8_S7_ @6645
    _ZNSt20__uninitialized_copyILb1EE13__uninit_copyISt13move_iteratorIPP13RayTestResultES5_EET0_T_S8_S7_ @6646
    _ZNSt20__uninitialized_copyILb1EE13__uninit_copyISt13move_iteratorIPP16btCollisionShapeES5_EET0_T_S8_S7_ @6647
    _ZNSt20__uninitialized_copyILb1EE13__uninit_copyISt13move_iteratorIPP16btRaycastVehicleES5_EET0_T_S8_S7_ @6648
    _ZNSt20__uninitialized_copyILb1EE13__uninit_copyISt13move_iteratorIPP17btTypedConstraintES5_EET0_T_S8_S7_ @6649
    _ZNSt20__uninitialized_copyILb1EE13__uninit_copyISt13move_iteratorIPP9CharacterES5_EET0_T_S8_S7_ @6650
    _ZNSt6vectorIP11btRigidBodySaIS1_EE11_S_max_sizeERKS2_ @6651
    _ZNSt6vectorIP11btRigidBodySaIS1_EE11_S_relocateEPS1_S4_S4_RS2_ @6652
    _ZNSt6vectorIP11btRigidBodySaIS1_EE14_S_do_relocateEPS1_S4_S4_RS2_St17integral_constantIbLb1EE @6653
    _ZNSt6vectorIP11btRigidBodySaIS1_EE15_S_use_relocateEv @6654
    _ZNSt6vectorIP11btRigidBodySaIS1_EE17_M_realloc_insertIJRKS1_EEEvN9__gnu_cxx17__normal_iteratorIPS1_S3_EEDpOT_ @6655
    _ZNSt6vectorIP11btRigidBodySaIS1_EE19_S_nothrow_relocateESt17integral_constantIbLb1EE @6656
    _ZNSt6vectorIP11btRigidBodySaIS1_EE2atEy @6657
    _ZNSt6vectorIP11btRigidBodySaIS1_EE3endEv @6658
    _ZNSt6vectorIP11btRigidBodySaIS1_EE5beginEv @6659
    _ZNSt6vectorIP11btRigidBodySaIS1_EE9push_backERKS1_ @6660
    _ZNSt6vectorIP11btRigidBodySaIS1_EEC1Ev @6661
    _ZNSt6vectorIP11btRigidBodySaIS1_EEixEy @6662
    _ZNSt6vectorIP13RayTestResultSaIS1_EE11_S_max_sizeERKS2_ @6663
    _ZNSt6vectorIP13RayTestResultSaIS1_EE11_S_relocateEPS1_S4_S4_RS2_ @6664
    _ZNSt6vectorIP13RayTestResultSaIS1_EE14_S_do_relocateEPS1_S4_S4_RS2_St17integral_constantIbLb1EE @6665
    _ZNSt6vectorIP13RayTestResultSaIS1_EE15_M_erase_at_endEPS1_ @6666
    _ZNSt6vectorIP13RayTestResultSaIS1_EE15_S_use_relocateEv @6667
    _ZNSt6vectorIP13RayTestResultSaIS1_EE17_M_realloc_insertIJRKS1_EEEvN9__gnu_cxx17__normal_iteratorIPS1_S3_EEDpOT_ @6668
    _ZNSt6vectorIP13RayTestResultSaIS1_EE19_S_nothrow_relocateESt17integral_constantIbLb1EE @6669
    _ZNSt6vectorIP13RayTestResultSaIS1_EE2atEy @6670
    _ZNSt6vectorIP13RayTestResultSaIS1_EE3endEv @6671
    _ZNSt6vectorIP13RayTestResultSaIS1_EE5beginEv @6672
    _ZNSt6vectorIP13RayTestResultSaIS1_EE5clearEv @6673
    _ZNSt6vectorIP13RayTestResultSaIS1_EE9push_backERKS1_ @6674
    _ZNSt6vectorIP13RayTestResultSaIS1_EEC1Ev @6675
    _ZNSt6vectorIP13RayTestResultSaIS1_EEixEy @6676
    _ZNSt6vectorIP16btCollisionShapeSaIS1_EE11_S_max_sizeERKS2_ @6677
    _ZNSt6vectorIP16btCollisionShapeSaIS1_EE11_S_relocateEPS1_S4_S4_RS2_ @6678
    _ZNSt6vectorIP16btCollisionShapeSaIS1_EE14_S_do_relocateEPS1_S4_S4_RS2_St17integral_constantIbLb1EE @6679
    _ZNSt6vectorIP16btCollisionShapeSaIS1_EE15_S_use_relocateEv @6680
    _ZNSt6vectorIP16btCollisionShapeSaIS1_EE17_M_realloc_insertIJRKS1_EEEvN9__gnu_cxx17__normal_iteratorIPS1_S3_EEDpOT_ @6681
    _ZNSt6vectorIP16btCollisionShapeSaIS1_EE19_S_nothrow_relocateESt17integral_constantIbLb1EE @6682
    _ZNSt6vectorIP16btCollisionShapeSaIS1_EE2atEy @6683
    _ZNSt6vectorIP16btCollisionShapeSaIS1_EE3endEv @6684
    _ZNSt6vectorIP16btCollisionShapeSaIS1_EE5beginEv @6685
    _ZNSt6vectorIP16btCollisionShapeSaIS1_EE9push_backERKS1_ @6686
    _ZNSt6vectorIP16btCollisionShapeSaIS1_EEC1Ev @6687
    _ZNSt6vectorIP16btCollisionShapeSaIS1_EEixEy @6688
    _ZNSt6vectorIP16btRaycastVehicleSaIS1_EE11_S_max_sizeERKS2_ @6689
    _ZNSt6vectorIP16btRaycastVehicleSaIS1_EE11_S_relocateEPS1_S4_S4_RS2_ @6690
    _ZNSt6vectorIP16btRaycastVehicleSaIS1_EE14_S_do_relocateEPS1_S4_S4_RS2_St17integral_constantIbLb1EE @6691
    _ZNSt6vectorIP16btRaycastVehicleSaIS1_EE15_S_use_relocateEv @6692
    _ZNSt6vectorIP16btRaycastVehicleSaIS1_EE17_M_realloc_insertIJRKS1_EEEvN9__gnu_cxx17__normal_iteratorIPS1_S3_EEDpOT_ @6693
    _ZNSt6vectorIP16btRaycastVehicleSaIS1_EE19_S_nothrow_relocateESt17integral_constantIbLb1EE @6694
    _ZNSt6vectorIP16btRaycastVehicleSaIS1_EE2atEy @6695
    _ZNSt6vectorIP16btRaycastVehicleSaIS1_EE3endEv @6696
    _ZNSt6vectorIP16btRaycastVehicleSaIS1_EE5beginEv @6697
    _ZNSt6vectorIP16btRaycastVehicleSaIS1_EE9push_backERKS1_ @6698
    _ZNSt6vectorIP16btRaycastVehicleSaIS1_EEC1Ev @6699
    _ZNSt6vectorIP16btRaycastVehicleSaIS1_EEixEy @6700
    _ZNSt6vectorIP17btTypedConstraintSaIS1_EE11_S_max_sizeERKS2_ @6701
    _ZNSt6vectorIP17btTypedConstraintSaIS1_EE11_S_relocateEPS1_S4_S4_RS2_ @6702
    _ZNSt6vectorIP17btTypedConstraintSaIS1_EE14_S_do_relocateEPS1_S4_S4_RS2_St17integral_constantIbLb1EE @6703
    _ZNSt6vectorIP17btTypedConstraintSaIS1_EE15_S_use_relocateEv @6704
    _ZNSt6vectorIP17btTypedConstraintSaIS1_EE17_M_realloc_insertIJRKS1_EEEvN9__gnu_cxx17__normal_iteratorIPS1_S3_EEDpOT_ @6705
    _ZNSt6vectorIP17btTypedConstraintSaIS1_EE19_S_nothrow_relocateESt17integral_constantIbLb1EE @6706
    _ZNSt6vectorIP17btTypedConstraintSaIS1_EE2atEy @6707
    _ZNSt6vectorIP17btTypedConstraintSaIS1_EE3endEv @6708
    _ZNSt6vectorIP17btTypedConstraintSaIS1_EE5beginEv @6709
    _ZNSt6vectorIP17btTypedConstraintSaIS1_EE9push_backERKS1_ @6710
    _ZNSt6vectorIP17btTypedConstraintSaIS1_EEC1Ev @6711
    _ZNSt6vectorIP17btTypedConstraintSaIS1_EEixEy @6712
    _ZNSt6vectorIP9CharacterSaIS1_EE11_S_max_sizeERKS2_ @6713
    _ZNSt6vectorIP9CharacterSaIS1_EE11_S_relocateEPS1_S4_S4_RS2_ @6714
    _ZNSt6vectorIP9CharacterSaIS1_EE14_S_do_relocateEPS1_S4_S4_RS2_St17integral_constantIbLb1EE @6715
    _ZNSt6vectorIP9CharacterSaIS1_EE15_S_use_relocateEv @6716
    _ZNSt6vectorIP9CharacterSaIS1_EE17_M_realloc_insertIJRKS1_EEEvN9__gnu_cxx17__normal_iteratorIPS1_S3_EEDpOT_ @6717
    _ZNSt6vectorIP9CharacterSaIS1_EE19_S_nothrow_relocateESt17integral_constantIbLb1EE @6718
    _ZNSt6vectorIP9CharacterSaIS1_EE2atEy @6719
    _ZNSt6vectorIP9CharacterSaIS1_EE3endEv @6720
    _ZNSt6vectorIP9CharacterSaIS1_EE5beginEv @6721
    _ZNSt6vectorIP9CharacterSaIS1_EE9push_backERKS1_ @6722
    _ZNSt6vectorIP9CharacterSaIS1_EEC1Ev @6723
    _ZNSt6vectorIP9CharacterSaIS1_EEixEy @6724
    _ZSt12__miter_baseIPP11btRigidBodyEDTcl12__miter_basecldtfp_4baseEEESt13move_iteratorIT_E @6725
    _ZSt12__miter_baseIPP11btRigidBodyET_S3_ @6726
    _ZSt12__miter_baseIPP13RayTestResultEDTcl12__miter_basecldtfp_4baseEEESt13move_iteratorIT_E @6727
    _ZSt12__miter_baseIPP13RayTestResultET_S3_ @6728
    _ZSt12__miter_baseIPP16btCollisionShapeEDTcl12__miter_basecldtfp_4baseEEESt13move_iteratorIT_E @6729
    _ZSt12__miter_baseIPP16btCollisionShapeET_S3_ @6730
    _ZSt12__miter_baseIPP16btRaycastVehicleEDTcl12__miter_basecldtfp_4baseEEESt13move_iteratorIT_E @6731
    _ZSt12__miter_baseIPP16btRaycastVehicleET_S3_ @6732
    _ZSt12__miter_baseIPP17btTypedConstraintEDTcl12__miter_basecldtfp_4baseEEESt13move_iteratorIT_E @6733
    _ZSt12__miter_baseIPP17btTypedConstraintET_S3_ @6734
    _ZSt12__miter_baseIPP9CharacterEDTcl12__miter_basecldtfp_4baseEEESt13move_iteratorIT_E @6735
    _ZSt12__miter_baseIPP9CharacterET_S3_ @6736
    _ZSt12__niter_baseIPP11btRigidBodyET_S3_ @6737
    _ZSt12__niter_baseIPP13RayTestResultET_S3_ @6738
    _ZSt12__niter_baseIPP16btCollisionShapeET_S3_ @6739
    _ZSt12__niter_baseIPP16btRaycastVehicleET_S3_ @6740
    _ZSt12__niter_baseIPP17btTypedConstraintET_S3_ @6741
    _ZSt12__niter_baseIPP9CharacterET_S3_ @6742
    _ZSt12__niter_wrapIPP11btRigidBodyET_RKS3_S3_ @6743
    _ZSt12__niter_wrapIPP13RayTestResultET_RKS3_S3_ @6744
    _ZSt12__niter_wrapIPP16btCollisionShapeET_RKS3_S3_ @6745
    _ZSt12__niter_wrapIPP16btRaycastVehicleET_RKS3_S3_ @6746
    _ZSt12__niter_wrapIPP17btTypedConstraintET_RKS3_S3_ @6747
    _ZSt12__niter_wrapIPP9CharacterET_RKS3_S3_ @6748
    _ZSt12__relocate_aIPP11btRigidBodyS2_SaIS1_EET0_T_S5_S4_RT1_ @6749
    _ZSt12__relocate_aIPP13RayTestResultS2_SaIS1_EET0_T_S5_S4_RT1_ @6750
    _ZSt12__relocate_aIPP16btCollisionShapeS2_SaIS1_EET0_T_S5_S4_RT1_ @6751
    _ZSt12__relocate_aIPP16btRaycastVehicleS2_SaIS1_EET0_T_S5_S4_RT1_ @6752
    _ZSt12__relocate_aIPP17btTypedConstraintS2_SaIS1_EET0_T_S5_S4_RT1_ @6753
    _ZSt12__relocate_aIPP9CharacterS2_SaIS1_EET0_T_S5_S4_RT1_ @6754
    _ZSt13__copy_move_aILb1EPP11btRigidBodyS2_ET1_T0_S4_S3_ @6755
    _ZSt13__copy_move_aILb1EPP13RayTestResultS2_ET1_T0_S4_S3_ @6756
    _ZSt13__copy_move_aILb1EPP16btCollisionShapeS2_ET1_T0_S4_S3_ @6757
    _ZSt13__copy_move_aILb1EPP16btRaycastVehicleS2_ET1_T0_S4_S3_ @6758
    _ZSt13__copy_move_aILb1EPP17btTypedConstraintS2_ET1_T0_S4_S3_ @6759
    _ZSt13__copy_move_aILb1EPP9CharacterS2_ET1_T0_S4_S3_ @6760
    _ZSt14__copy_move_a2ILb1EPP11btRigidBodyS2_ET1_T0_S4_S3_ @6761
    _ZSt14__copy_move_a2ILb1EPP13RayTestResultS2_ET1_T0_S4_S3_ @6762
    _ZSt14__copy_move_a2ILb1EPP16btCollisionShapeS2_ET1_T0_S4_S3_ @6763
    _ZSt14__copy_move_a2ILb1EPP16btRaycastVehicleS2_ET1_T0_S4_S3_ @6764
    _ZSt14__copy_move_a2ILb1EPP17btTypedConstraintS2_ET1_T0_S4_S3_ @6765
    _ZSt14__copy_move_a2ILb1EPP9CharacterS2_ET1_T0_S4_S3_ @6766
    _ZSt14__relocate_a_1IP11btRigidBodyS1_ENSt9enable_ifIXsrSt24__is_bitwise_relocatableIT_vE5valueEPS4_E4typeES6_S6_S6_RSaIT0_E @6767
    _ZSt14__relocate_a_1IP13RayTestResultS1_ENSt9enable_ifIXsrSt24__is_bitwise_relocatableIT_vE5valueEPS4_E4typeES6_S6_S6_RSaIT0_E @6768
    _ZSt14__relocate_a_1IP16btCollisionShapeS1_ENSt9enable_ifIXsrSt24__is_bitwise_relocatableIT_vE5valueEPS4_E4typeES6_S6_S6_RSaIT0_E @6769
    _ZSt14__relocate_a_1IP16btRaycastVehicleS1_ENSt9enable_ifIXsrSt24__is_bitwise_relocatableIT_vE5valueEPS4_E4typeES6_S6_S6_RSaIT0_E @6770
    _ZSt14__relocate_a_1IP17btTypedConstraintS1_ENSt9enable_ifIXsrSt24__is_bitwise_relocatableIT_vE5valueEPS4_E4typeES6_S6_S6_RSaIT0_E @6771
    _ZSt14__relocate_a_1IP9CharacterS1_ENSt9enable_ifIXsrSt24__is_bitwise_relocatableIT_vE5valueEPS4_E4typeES6_S6_S6_RSaIT0_E @6772
    _ZSt18uninitialized_copyISt13move_iteratorIPP11btRigidBodyES3_ET0_T_S6_S5_ @6773
    _ZSt18uninitialized_copyISt13move_iteratorIPP13RayTestResultES3_ET0_T_S6_S5_ @6774
    _ZSt18uninitialized_copyISt13move_iteratorIPP16btCollisionShapeES3_ET0_T_S6_S5_ @6775
    _ZSt18uninitialized_copyISt13move_iteratorIPP16btRaycastVehicleES3_ET0_T_S6_S5_ @6776
    _ZSt18uninitialized_copyISt13move_iteratorIPP17btTypedConstraintES3_ET0_T_S6_S5_ @6777
    _ZSt18uninitialized_copyISt13move_iteratorIPP9CharacterES3_ET0_T_S6_S5_ @6778
    _ZSt22__uninitialized_copy_aISt13move_iteratorIPP11btRigidBodyES3_S2_ET0_T_S6_S5_RSaIT1_E @6779
    _ZSt22__uninitialized_copy_aISt13move_iteratorIPP13RayTestResultES3_S2_ET0_T_S6_S5_RSaIT1_E @6780
    _ZSt22__uninitialized_copy_aISt13move_iteratorIPP16btCollisionShapeES3_S2_ET0_T_S6_S5_RSaIT1_E @6781
    _ZSt22__uninitialized_copy_aISt13move_iteratorIPP16btRaycastVehicleES3_S2_ET0_T_S6_S5_RSaIT1_E @6782
    _ZSt22__uninitialized_copy_aISt13move_iteratorIPP17btTypedConstraintES3_S2_ET0_T_S6_S5_RSaIT1_E @6783
    _ZSt22__uninitialized_copy_aISt13move_iteratorIPP9CharacterES3_S2_ET0_T_S6_S5_RSaIT1_E @6784
    _ZSt32__make_move_if_noexcept_iteratorIP11btRigidBodySt13move_iteratorIPS1_EET0_PT_ @6785
    _ZSt32__make_move_if_noexcept_iteratorIP13RayTestResultSt13move_iteratorIPS1_EET0_PT_ @6786
    _ZSt32__make_move_if_noexcept_iteratorIP16btCollisionShapeSt13move_iteratorIPS1_EET0_PT_ @6787
    _ZSt32__make_move_if_noexcept_iteratorIP16btRaycastVehicleSt13move_iteratorIPS1_EET0_PT_ @6788
    _ZSt32__make_move_if_noexcept_iteratorIP17btTypedConstraintSt13move_iteratorIPS1_EET0_PT_ @6789
    _ZSt32__make_move_if_noexcept_iteratorIP9CharacterSt13move_iteratorIPS1_EET0_PT_ @6790
    _ZSt34__uninitialized_move_if_noexcept_aIPP11btRigidBodyS2_SaIS1_EET0_T_S5_S4_RT1_ @6791
    _ZSt34__uninitialized_move_if_noexcept_aIPP13RayTestResultS2_SaIS1_EET0_T_S5_S4_RT1_ @6792
    _ZSt34__uninitialized_move_if_noexcept_aIPP16btCollisionShapeS2_SaIS1_EET0_T_S5_S4_RT1_ @6793
    _ZSt34__uninitialized_move_if_noexcept_aIPP16btRaycastVehicleS2_SaIS1_EET0_T_S5_S4_RT1_ @6794
    _ZSt34__uninitialized_move_if_noexcept_aIPP17btTypedConstraintS2_SaIS1_EET0_T_S5_S4_RT1_ @6795
    _ZSt34__uninitialized_move_if_noexcept_aIPP9CharacterS2_SaIS1_EET0_T_S5_S4_RT1_ @6796
    _ZSt3maxIyERKT_S2_S2_ @6797
    _ZSt3minIyERKT_S2_S2_ @6798
    _ZSt4copyISt13move_iteratorIPP11btRigidBodyES3_ET0_T_S6_S5_ @6799
    _ZSt4copyISt13move_iteratorIPP13RayTestResultES3_ET0_T_S6_S5_ @6800
    _ZSt4copyISt13move_iteratorIPP16btCollisionShapeES3_ET0_T_S6_S5_ @6801
    _ZSt4copyISt13move_iteratorIPP16btRaycastVehicleES3_ET0_T_S6_S5_ @6802
    _ZSt4copyISt13move_iteratorIPP17btTypedConstraintES3_ET0_T_S6_S5_ @6803
    _ZSt4copyISt13move_iteratorIPP9CharacterES3_ET0_T_S6_S5_ @6804
    _ZSt4fabsf @6805
    _ZSt4sqrtf @6806
    _ZSt5floorf @6807
    _ZSt7forwardIRKP11btRigidBodyEOT_RNSt16remove_referenceIS4_E4typeE @6808
    _ZSt7forwardIRKP13RayTestResultEOT_RNSt16remove_referenceIS4_E4typeE @6809
    _ZSt7forwardIRKP16btCollisionShapeEOT_RNSt16remove_referenceIS4_E4typeE @6810
    _ZSt7forwardIRKP16btRaycastVehicleEOT_RNSt16remove_referenceIS4_E4typeE @6811
    _ZSt7forwardIRKP17btTypedConstraintEOT_RNSt16remove_referenceIS4_E4typeE @6812
    _ZSt7forwardIRKP9CharacterEOT_RNSt16remove_referenceIS4_E4typeE @6813
    _ZSt8_DestroyIPP11btRigidBodyEvT_S3_ @6814
    _ZSt8_DestroyIPP11btRigidBodyS1_EvT_S3_RSaIT0_E @6815
    _ZSt8_DestroyIPP13RayTestResultEvT_S3_ @6816
    _ZSt8_DestroyIPP13RayTestResultS1_EvT_S3_RSaIT0_E @6817
    _ZSt8_DestroyIPP16btCollisionShapeEvT_S3_ @6818
    _ZSt8_DestroyIPP16btCollisionShapeS1_EvT_S3_RSaIT0_E @6819
    _ZSt8_DestroyIPP16btRaycastVehicleEvT_S3_ @6820
    _ZSt8_DestroyIPP16btRaycastVehicleS1_EvT_S3_RSaIT0_E @6821
    _ZSt8_DestroyIPP17btTypedConstraintEvT_S3_ @6822
    _ZSt8_DestroyIPP17btTypedConstraintS1_EvT_S3_RSaIT0_E @6823
    _ZSt8_DestroyIPP9CharacterEvT_S3_ @6824
    _ZSt8_DestroyIPP9CharacterS1_EvT_S3_RSaIT0_E @6825
    _ZTI10btBoxShape @6826 DATA
    _ZTI10btSoftBody @6827 DATA
    _ZTI11btConeShape @6828 DATA
    _ZTI11btMultiBody @6829 DATA
    _ZTI11btRigidBody @6830 DATA
    _ZTI12btAxisSweep3 @6831 DATA
    _ZTI12btBox2dShape @6832 DATA
    _ZTI12btConeShapeX @6833 DATA
    _ZTI12btConeShapeZ @6834 DATA
    _ZTI12btConvexCast @6835 DATA
    _ZTI12btDispatcher @6836 DATA
    _ZTI12btEmptyShape @6837 DATA
    _ZTI12btMLCPSolver @6838 DATA
    _ZTI13BulletContext @6839 DATA
    _ZTI13btConvexShape @6840 DATA
    _ZTI13btGhostObject @6841 DATA
    _ZTI13btMotionState @6842 DATA
    _ZTI13btSphereShape @6843 DATA
    _ZTI13btTypedObject @6844 DATA
    _ZTI14btCapsuleShape @6845 DATA
    _ZTI14btConcaveShape @6846 DATA
    _ZTI14btOptimizedBvh @6847 DATA
    _ZTI14btQuantizedBvh @6848 DATA
    _ZTI14btTriangleMesh @6849 DATA
    _ZTI15btCapsuleShapeX @6850 DATA
    _ZTI15btCapsuleShapeZ @6851 DATA
    _ZTI15btCompoundShape @6852 DATA
    _ZTI15btConvex2dShape @6853 DATA
    _ZTI15btCylinderShape @6854 DATA
    _ZTI15btDynamicsWorld @6855 DATA
    _ZTI15btGjkConvexCast @6856 DATA
    _ZTI15btNullPairCache @6857 DATA
    _ZTI15btTriangleShape @6858 DATA
    _ZTI16btBU_Simplex1to4 @6859 DATA
    _ZTI16btBoxBoxDetector @6860 DATA
    _ZTI16btCollisionShape @6861 DATA
    _ZTI16btCollisionWorld @6862 DATA
    _ZTI16btCylinderShapeX @6863 DATA
    _ZTI16btCylinderShapeZ @6864 DATA
    _ZTI16btDbvtBroadphase @6865 DATA
    _ZTI16btEmptyAlgorithm @6866 DATA
    _ZTI16btGearConstraint @6867 DATA
    _ZTI16btITaskScheduler @6868 DATA
    _ZTI16btManifoldResult @6869 DATA
    _ZTI16btPointCollector @6870 DATA
    _ZTI16btRaycastVehicle @6871 DATA
    _ZTI16btSoftBodySolver @6872 DATA
    _ZTI16btTriangleBuffer @6873 DATA
    _ZTI17DebugDrawcallback @6874 DATA
    _ZTI17bt32BitAxisSweep3 @6875 DATA
    _ZTI17btActionInterface @6876 DATA
    _ZTI17btCollisionObject @6877 DATA
    _ZTI17btConvexHullShape @6878 DATA
    _ZTI17btFixedConstraint @6879 DATA
    _ZTI17btGjkPairDetector @6880 DATA
    _ZTI17btHingeConstraint @6881 DATA
    _ZTI17btOverlapCallback @6882 DATA
    _ZTI17btTriangleInfoMap @6883 DATA
    _ZTI17btTriangleShapeEx @6884 DATA
    _ZTI17btTypedConstraint @6885 DATA
    _ZTI18btConstraintSolver @6886 DATA
    _ZTI18btConvexPolyhedron @6887 DATA
    _ZTI18btDbvtTreeCollider @6888 DATA
    _ZTI18btGImpactMeshShape @6889 DATA
    _ZTI18btHinge2Constraint @6890 DATA
    _ZTI18btIParallelForBody @6891 DATA
    _ZTI18btMultiSphereShape @6892 DATA
    _ZTI18btSimpleBroadphase @6893 DATA
    _ZTI18btSliderConstraint @6894 DATA
    _ZTI18btStaticPlaneShape @6895 DATA
    _ZTI18btTriangleCallback @6896 DATA
    _ZTI18btVehicleRaycaster @6897 DATA
    _ZTI19BroadphaseRayTester @6898 DATA
    _ZTI19btContactConstraint @6899 DATA
    _ZTI19btGhostPairCallback @6900 DATA
    _ZTI19btMinkowskiSumShape @6901 DATA
    _ZTI19btSingleRayCallback @6902 DATA
    _ZTI19btTriangleMeshShape @6903 DATA
    _ZTI20BroadphaseAabbTester @6904 DATA
    _ZTI20btAxisSweep3InternalIjE @6905 DATA
    _ZTI20btAxisSweep3InternalItE @6906 DATA
    _ZTI20btCollisionAlgorithm @6907 DATA
    _ZTI20btDbvtNodeEnumerator @6908 DATA
    _ZTI20btDefaultMotionState @6909 DATA
    _ZTI20btTetrahedronShapeEx @6910 DATA
    _ZTI21SupportVertexCallback @6911 DATA
    _ZTI21btBroadphaseInterface @6912 DATA
    _ZTI21btCollisionDispatcher @6913 DATA
    _ZTI21btConeTwistConstraint @6914 DATA
    _ZTI21btConvexInternalShape @6915 DATA
    _ZTI21btMultiBodyConstraint @6916 DATA
    _ZTI21btMultiBodyJointMotor @6917 DATA
    _ZTI21btNodeOverlapCallback @6918 DATA
    _ZTI21btSimpleDynamicsWorld @6919 DATA
    _ZTI21btSingleSweepCallback @6920 DATA
    _ZTI21btUniformScalingShape @6921 DATA
    _ZTI21btUniversalConstraint @6922 DATA
    _ZTI22GIM_STANDARD_ALLOCATOR @6923 DATA
    _ZTI22SphereTriangleDetector @6924 DATA
    _ZTI22UpdateIslandDispatcher @6925 DATA
    _ZTI22btBvhTriangleMeshShape @6926 DATA
    _ZTI22btCompoundLeafCallback @6927 DATA
    _ZTI22btGImpactCompoundShape @6928 DATA
    _ZTI22btGImpactMeshShapePart @6929 DATA
    _ZTI22btGenericPoolAllocator @6930 DATA
    _ZTI22btMultiBodyPoint2Point @6931 DATA
    _ZTI22btNNCGConstraintSolver @6932 DATA
    _ZTI22btOverlappingPairCache @6933 DATA
    _ZTI22btPrimitiveManagerBase @6934 DATA
    _ZTI22btSubsimplexConvexCast @6935 DATA
    _ZTI23btBridgedManifoldResult @6936 DATA
    _ZTI23btBroadphaseRayCallback @6937 DATA
    _ZTI23btCollisionDispatcherMt @6938 DATA
    _ZTI23btCollisionPairCallback @6939 DATA
    _ZTI23btConnectivityProcessor @6940 DATA
    _ZTI23btConvexConvexAlgorithm @6941 DATA
    _ZTI23btConvexPointCloudShape @6942 DATA
    _ZTI23btDefaultSoftBodySolver @6943 DATA
    _ZTI23btDiscreteDynamicsWorld @6944 DATA
    _ZTI23btGImpactShapeInterface @6945 DATA
    _ZTI23btGeneric6DofConstraint @6946 DATA
    _ZTI23btHashedSimplePairCache @6947 DATA
    _ZTI23btPoint2PointConstraint @6948 DATA
    _ZTI23btPolyhedralConvexShape @6949 DATA
    _ZTI23btSingleContactCallback @6950 DATA
    _ZTI23btSoftSingleRayCallback @6951 DATA
    _ZTI23btStridingMeshInterface @6952 DATA
    _ZTI24btBroadphaseAabbCallback @6953 DATA
    _ZTI24btCollisionConfiguration @6954 DATA
    _ZTI24btCollisionWorldImporter @6955 DATA
    _ZTI24btConstraintSolverPoolMt @6956 DATA
    _ZTI24btConvexTriangleCallback @6957 DATA
    _ZTI24btMultiBodyDynamicsWorld @6958 DATA
    _ZTI24btPairCachingGhostObject @6959 DATA
    _ZTI24btPerturbedContactResult @6960 DATA
    _ZTI24btScaledTriangleCallback @6961 DATA
    _ZTI24btSoftBodyCollisionShape @6962 DATA
    _ZTI24btSoftRigidDynamicsWorld @6963 DATA
    _ZTI25btConvexTriangleMeshShape @6964 DATA
    _ZTI25btDefaultVehicleRaycaster @6965 DATA
    _ZTI25btDiscreteDynamicsWorldMt @6966 DATA
    _ZTI25btGImpactTriangleCallback @6967 DATA
    _ZTI25btHeightfieldTerrainShape @6968 DATA
    _ZTI25btMultiBodyGearConstraint @6969 DATA
    _ZTI25btOverlappingPairCallback @6970 DATA
    _ZTI25btSimulationIslandManager @6971 DATA
    _ZTI25btTaskSchedulerSequential @6972 DATA
    _ZTI25btTriangleRaycastCallback @6973 DATA
    _ZTI26CollisionDispatcherUpdater @6974 DATA
    _ZTI26LocalSupportVertexCallback @6975 DATA
    _ZTI26UpdaterUnconstrainedMotion @6976 DATA
    _ZTI26btBoxBoxCollisionAlgorithm @6977 DATA
    _ZTI26btMultiBodyFixedConstraint @6978 DATA
    _ZTI26btSoftBodyTriangleCallback @6979 DATA
    _ZTI26btTriangleIndexVertexArray @6980 DATA
    _ZTI27InplaceSolverIslandCallback @6981 DATA
    _ZTI27btContinuousConvexCollision @6982 DATA
    _ZTI27btConvex2dConvex2dAlgorithm @6983 DATA
    _ZTI27btGImpactCollisionAlgorithm @6984 DATA
    _ZTI27btMultiBodyConstraintSolver @6985 DATA
    _ZTI27btMultiBodySliderConstraint @6986 DATA
    _ZTI27btSimulationIslandManagerMt @6987 DATA
    _ZTI27btSoftClusterCollisionShape @6988 DATA
    _ZTI28btCompoundCollisionAlgorithm @6989 DATA
    _ZTI28btHashedOverlappingPairCache @6990 DATA
    _ZTI28btScaledBvhTriangleMeshShape @6991 DATA
    _ZTI28btSoftMultiBodyDynamicsWorld @6992 DATA
    _ZTI28btSoftSoftCollisionAlgorithm @6993 DATA
    _ZTI28btSortedOverlappingPairCache @6994 DATA
    _ZTI28btTriangleConvexcastCallback @6995 DATA
    _ZTI29InplaceSolverIslandCallbackMt @6996 DATA
    _ZTI29btGeneric6DofSpringConstraint @6997 DATA
    _ZTI29btSoftRigidCollisionAlgorithm @6998 DATA
    _ZTI29btSphereBoxCollisionAlgorithm @6999 DATA
    _ZTI30btActivatingCollisionAlgorithm @7000 DATA
    _ZTI30btBox2dBox2dCollisionAlgorithm @7001 DATA
    _ZTI30btCharacterControllerInterface @7002 DATA
    _ZTI30btCollisionAlgorithmCreateFunc @7003 DATA
    _ZTI30btCompoundCompoundLeafCallback @7004 DATA
    _ZTI30btConvexPenetrationDepthSolver @7005 DATA
    _ZTI30btGeneric6DofSpring2Constraint @7006 DATA
    _ZTI30btGjkEpaPenetrationDepthSolver @7007 DATA
    _ZTI30btKinematicCharacterController @7008 DATA
    _ZTI31btConvexPlaneCollisionAlgorithm @7009 DATA
    _ZTI31btDefaultCollisionConfiguration @7010 DATA
    _ZTI31btInternalTriangleIndexCallback @7011 DATA
    _ZTI31btMultiBodyJointLimitConstraint @7012 DATA
    _ZTI32btConvexInternalAabbCachingShape @7013 DATA
    _ZTI32btSphereSphereCollisionAlgorithm @7014 DATA
    _ZTI33btConvexConcaveCollisionAlgorithm @7015 DATA
    _ZTI33btHingeAccumulatedAngleConstraint @7016 DATA
    _ZTI33btMinkowskiPenetrationDepthSolver @7017 DATA
    _ZTI34btClosestNotMeConvexResultCallback @7018 DATA
    _ZTI34btPolyhedralConvexAabbCachingShape @7019 DATA
    _ZTI34btSphereTriangleCollisionAlgorithm @7020 DATA
    _ZTI34btTriangleIndexVertexMaterialArray @7021 DATA
    _ZTI35btSequentialImpulseConstraintSolver @7022 DATA
    _ZTI35btSoftBodyConcaveCollisionAlgorithm @7023 DATA
    _ZTI36MultiBodyInplaceSolverIslandCallback @7024 DATA
    _ZTI36btCompoundCompoundCollisionAlgorithm @7025 DATA
    _ZTI36btDiscreteCollisionDetectorInterface @7026 DATA
    _ZTI41btSoftBodyRigidBodyCollisionConfiguration @7027 DATA
    _ZTI43btKinematicClosestNotMeConvexResultCallback @7028 DATA
    _ZTI9btHashMapI9btHashInt14btTriangleInfoE @7029 DATA
    _ZTIN10btSoftBody15RayFromToCasterE @7030 DATA
    _ZTIN10btSoftBody5JointE @7031 DATA
    _ZTIN10btSoftBody6AJointE @7032 DATA
    _ZTIN10btSoftBody6CJointE @7033 DATA
    _ZTIN10btSoftBody6LJointE @7034 DATA
    _ZTIN12btConvexCast10CastResultE @7035 DATA
    _ZTIN15btSoftColliders11ClusterBaseE @7036 DATA
    _ZTIN15btSoftColliders12CollideCL_RSE @7037 DATA
    _ZTIN15btSoftColliders12CollideCL_SSE @7038 DATA
    _ZTIN15btSoftColliders12CollideVF_SSE @7039 DATA
    _ZTIN15btSoftColliders13CollideSDF_RSE @7040 DATA
    _ZTIN16btCollisionWorld17RayResultCallbackE @7041 DATA
    _ZTIN16btCollisionWorld20ConvexResultCallbackE @7042 DATA
    _ZTIN16btCollisionWorld24AllHitsRayResultCallbackE @7043 DATA
    _ZTIN16btCollisionWorld24ClosestRayResultCallbackE @7044 DATA
    _ZTIN16btCollisionWorld27ClosestConvexResultCallbackE @7045 DATA
    _ZTIN16btEmptyAlgorithm10CreateFuncE @7046 DATA
    _ZTIN18GIM_ShapeRetriever19ChildShapeRetrieverE @7047 DATA
    _ZTIN18GIM_ShapeRetriever19TetraShapeRetrieverE @7048 DATA
    _ZTIN18GIM_ShapeRetriever22TriangleShapeRetrieverE @7049 DATA
    _ZTIN22btGImpactCompoundShape24CompoundPrimitiveManagerE @7050 DATA
    _ZTIN22btGImpactMeshShapePart23TrimeshPrimitiveManagerE @7051 DATA
    _ZTIN23btConvexConvexAlgorithm10CreateFuncE @7052 DATA
    _ZTIN25btDiscreteDynamicsWorldMt26UpdaterIntegrateTransformsE @7053 DATA
    _ZTIN25btDiscreteDynamicsWorldMt31UpdaterCreatePredictiveContactsE @7054 DATA
    _ZTIN25btSimulationIslandManager14IslandCallbackE @7055 DATA
    _ZTIN26btBoxBoxCollisionAlgorithm10CreateFuncE @7056 DATA
    _ZTIN27btConvex2dConvex2dAlgorithm10CreateFuncE @7057 DATA
    _ZTIN27btGImpactCollisionAlgorithm10CreateFuncE @7058 DATA
    _ZTIN27btSimulationIslandManagerMt14IslandCallbackE @7059 DATA
    _ZTIN28btCompoundCollisionAlgorithm10CreateFuncE @7060 DATA
    _ZTIN28btCompoundCollisionAlgorithm17SwappedCreateFuncE @7061 DATA
    _ZTIN28btSoftSoftCollisionAlgorithm10CreateFuncE @7062 DATA
    _ZTIN29btSoftRigidCollisionAlgorithm10CreateFuncE @7063 DATA
    _ZTIN31btConvexPlaneCollisionAlgorithm10CreateFuncE @7064 DATA
    _ZTIN32btSphereSphereCollisionAlgorithm10CreateFuncE @7065 DATA
    _ZTIN33btConvexConcaveCollisionAlgorithm10CreateFuncE @7066 DATA
    _ZTIN33btConvexConcaveCollisionAlgorithm17SwappedCreateFuncE @7067 DATA
    _ZTIN34btSphereTriangleCollisionAlgorithm10CreateFuncE @7068 DATA
    _ZTIN35btSoftBodyConcaveCollisionAlgorithm10CreateFuncE @7069 DATA
    _ZTIN35btSoftBodyConcaveCollisionAlgorithm17SwappedCreateFuncE @7070 DATA
    _ZTIN36btCompoundCompoundCollisionAlgorithm10CreateFuncE @7071 DATA
    _ZTIN36btDiscreteCollisionDetectorInterface6ResultE @7072 DATA
    _ZTIN6btDbvt8ICollideE @7073 DATA
    _ZTS10btBoxShape @7074 DATA
    _ZTS10btSoftBody @7075 DATA
    _ZTS11btConeShape @7076 DATA
    _ZTS11btMultiBody @7077 DATA
    _ZTS11btRigidBody @7078 DATA
    _ZTS12btAxisSweep3 @7079 DATA
    _ZTS12btBox2dShape @7080 DATA
    _ZTS12btConeShapeX @7081 DATA
    _ZTS12btConeShapeZ @7082 DATA
    _ZTS12btConvexCast @7083 DATA
    _ZTS12btDispatcher @7084 DATA
    _ZTS12btEmptyShape @7085 DATA
    _ZTS12btMLCPSolver @7086 DATA
    _ZTS13BulletContext @7087 DATA
    _ZTS13btConvexShape @7088 DATA
    _ZTS13btGhostObject @7089 DATA
    _ZTS13btMotionState @7090 DATA
    _ZTS13btSphereShape @7091 DATA
    _ZTS13btTypedObject @7092 DATA
    _ZTS14btCapsuleShape @7093 DATA
    _ZTS14btConcaveShape @7094 DATA
    _ZTS14btOptimizedBvh @7095 DATA
    _ZTS14btQuantizedBvh @7096 DATA
    _ZTS14btTriangleMesh @7097 DATA
    _ZTS15btCapsuleShapeX @7098 DATA
    _ZTS15btCapsuleShapeZ @7099 DATA
    _ZTS15btCompoundShape @7100 DATA
    _ZTS15btConvex2dShape @7101 DATA
    _ZTS15btCylinderShape @7102 DATA
    _ZTS15btDynamicsWorld @7103 DATA
    _ZTS15btGjkConvexCast @7104 DATA
    _ZTS15btNullPairCache @7105 DATA
    _ZTS15btTriangleShape @7106 DATA
    _ZTS16btBU_Simplex1to4 @7107 DATA
    _ZTS16btBoxBoxDetector @7108 DATA
    _ZTS16btCollisionShape @7109 DATA
    _ZTS16btCollisionWorld @7110 DATA
    _ZTS16btCylinderShapeX @7111 DATA
    _ZTS16btCylinderShapeZ @7112 DATA
    _ZTS16btDbvtBroadphase @7113 DATA
    _ZTS16btEmptyAlgorithm @7114 DATA
    _ZTS16btGearConstraint @7115 DATA
    _ZTS16btITaskScheduler @7116 DATA
    _ZTS16btManifoldResult @7117 DATA
    _ZTS16btPointCollector @7118 DATA
    _ZTS16btRaycastVehicle @7119 DATA
    _ZTS16btSoftBodySolver @7120 DATA
    _ZTS16btTriangleBuffer @7121 DATA
    _ZTS17DebugDrawcallback @7122 DATA
    _ZTS17bt32BitAxisSweep3 @7123 DATA
    _ZTS17btActionInterface @7124 DATA
    _ZTS17btCollisionObject @7125 DATA
    _ZTS17btConvexHullShape @7126 DATA
    _ZTS17btFixedConstraint @7127 DATA
    _ZTS17btGjkPairDetector @7128 DATA
    _ZTS17btHingeConstraint @7129 DATA
    _ZTS17btOverlapCallback @7130 DATA
    _ZTS17btTriangleInfoMap @7131 DATA
    _ZTS17btTriangleShapeEx @7132 DATA
    _ZTS17btTypedConstraint @7133 DATA
    _ZTS18btConstraintSolver @7134 DATA
    _ZTS18btConvexPolyhedron @7135 DATA
    _ZTS18btDbvtTreeCollider @7136 DATA
    _ZTS18btGImpactMeshShape @7137 DATA
    _ZTS18btHinge2Constraint @7138 DATA
    _ZTS18btIParallelForBody @7139 DATA
    _ZTS18btMultiSphereShape @7140 DATA
    _ZTS18btSimpleBroadphase @7141 DATA
    _ZTS18btSliderConstraint @7142 DATA
    _ZTS18btStaticPlaneShape @7143 DATA
    _ZTS18btTriangleCallback @7144 DATA
    _ZTS18btVehicleRaycaster @7145 DATA
    _ZTS19BroadphaseRayTester @7146 DATA
    _ZTS19btContactConstraint @7147 DATA
    _ZTS19btGhostPairCallback @7148 DATA
    _ZTS19btMinkowskiSumShape @7149 DATA
    _ZTS19btSingleRayCallback @7150 DATA
    _ZTS19btTriangleMeshShape @7151 DATA
    _ZTS20BroadphaseAabbTester @7152 DATA
    _ZTS20btAxisSweep3InternalIjE @7153 DATA
    _ZTS20btAxisSweep3InternalItE @7154 DATA
    _ZTS20btCollisionAlgorithm @7155 DATA
    _ZTS20btDbvtNodeEnumerator @7156 DATA
    _ZTS20btDefaultMotionState @7157 DATA
    _ZTS20btTetrahedronShapeEx @7158 DATA
    _ZTS21SupportVertexCallback @7159 DATA
    _ZTS21btBroadphaseInterface @7160 DATA
    _ZTS21btCollisionDispatcher @7161 DATA
    _ZTS21btConeTwistConstraint @7162 DATA
    _ZTS21btConvexInternalShape @7163 DATA
    _ZTS21btMultiBodyConstraint @7164 DATA
    _ZTS21btMultiBodyJointMotor @7165 DATA
    _ZTS21btNodeOverlapCallback @7166 DATA
    _ZTS21btSimpleDynamicsWorld @7167 DATA
    _ZTS21btSingleSweepCallback @7168 DATA
    _ZTS21btUniformScalingShape @7169 DATA
    _ZTS21btUniversalConstraint @7170 DATA
    _ZTS22GIM_STANDARD_ALLOCATOR @7171 DATA
    _ZTS22SphereTriangleDetector @7172 DATA
    _ZTS22UpdateIslandDispatcher @7173 DATA
    _ZTS22btBvhTriangleMeshShape @7174 DATA
    _ZTS22btCompoundLeafCallback @7175 DATA
    _ZTS22btGImpactCompoundShape @7176 DATA
    _ZTS22btGImpactMeshShapePart @7177 DATA
    _ZTS22btGenericPoolAllocator @7178 DATA
    _ZTS22btMultiBodyPoint2Point @7179 DATA
    _ZTS22btNNCGConstraintSolver @7180 DATA
    _ZTS22btOverlappingPairCache @7181 DATA
    _ZTS22btPrimitiveManagerBase @7182 DATA
    _ZTS22btSubsimplexConvexCast @7183 DATA
    _ZTS23btBridgedManifoldResult @7184 DATA
    _ZTS23btBroadphaseRayCallback @7185 DATA
    _ZTS23btCollisionDispatcherMt @7186 DATA
    _ZTS23btCollisionPairCallback @7187 DATA
    _ZTS23btConnectivityProcessor @7188 DATA
    _ZTS23btConvexConvexAlgorithm @7189 DATA
    _ZTS23btConvexPointCloudShape @7190 DATA
    _ZTS23btDefaultSoftBodySolver @7191 DATA
    _ZTS23btDiscreteDynamicsWorld @7192 DATA
    _ZTS23btGImpactShapeInterface @7193 DATA
    _ZTS23btGeneric6DofConstraint @7194 DATA
    _ZTS23btHashedSimplePairCache @7195 DATA
    _ZTS23btPoint2PointConstraint @7196 DATA
    _ZTS23btPolyhedralConvexShape @7197 DATA
    _ZTS23btSingleContactCallback @7198 DATA
    _ZTS23btSoftSingleRayCallback @7199 DATA
    _ZTS23btStridingMeshInterface @7200 DATA
    _ZTS24btBroadphaseAabbCallback @7201 DATA
    _ZTS24btCollisionConfiguration @7202 DATA
    _ZTS24btCollisionWorldImporter @7203 DATA
    _ZTS24btConstraintSolverPoolMt @7204 DATA
    _ZTS24btConvexTriangleCallback @7205 DATA
    _ZTS24btMultiBodyDynamicsWorld @7206 DATA
    _ZTS24btPairCachingGhostObject @7207 DATA
    _ZTS24btPerturbedContactResult @7208 DATA
    _ZTS24btScaledTriangleCallback @7209 DATA
    _ZTS24btSoftBodyCollisionShape @7210 DATA
    _ZTS24btSoftRigidDynamicsWorld @7211 DATA
    _ZTS25btConvexTriangleMeshShape @7212 DATA
    _ZTS25btDefaultVehicleRaycaster @7213 DATA
    _ZTS25btDiscreteDynamicsWorldMt @7214 DATA
    _ZTS25btGImpactTriangleCallback @7215 DATA
    _ZTS25btHeightfieldTerrainShape @7216 DATA
    _ZTS25btMultiBodyGearConstraint @7217 DATA
    _ZTS25btOverlappingPairCallback @7218 DATA
    _ZTS25btSimulationIslandManager @7219 DATA
    _ZTS25btTaskSchedulerSequential @7220 DATA
    _ZTS25btTriangleRaycastCallback @7221 DATA
    _ZTS26CollisionDispatcherUpdater @7222 DATA
    _ZTS26LocalSupportVertexCallback @7223 DATA
    _ZTS26UpdaterUnconstrainedMotion @7224 DATA
    _ZTS26btBoxBoxCollisionAlgorithm @7225 DATA
    _ZTS26btMultiBodyFixedConstraint @7226 DATA
    _ZTS26btSoftBodyTriangleCallback @7227 DATA
    _ZTS26btTriangleIndexVertexArray @7228 DATA
    _ZTS27InplaceSolverIslandCallback @7229 DATA
    _ZTS27btContinuousConvexCollision @7230 DATA
    _ZTS27btConvex2dConvex2dAlgorithm @7231 DATA
    _ZTS27btGImpactCollisionAlgorithm @7232 DATA
    _ZTS27btMultiBodyConstraintSolver @7233 DATA
    _ZTS27btMultiBodySliderConstraint @7234 DATA
    _ZTS27btSimulationIslandManagerMt @7235 DATA
    _ZTS27btSoftClusterCollisionShape @7236 DATA
    _ZTS28btCompoundCollisionAlgorithm @7237 DATA
    _ZTS28btHashedOverlappingPairCache @7238 DATA
    _ZTS28btScaledBvhTriangleMeshShape @7239 DATA
    _ZTS28btSoftMultiBodyDynamicsWorld @7240 DATA
    _ZTS28btSoftSoftCollisionAlgorithm @7241 DATA
    _ZTS28btSortedOverlappingPairCache @7242 DATA
    _ZTS28btTriangleConvexcastCallback @7243 DATA
    _ZTS29InplaceSolverIslandCallbackMt @7244 DATA
    _ZTS29btGeneric6DofSpringConstraint @7245 DATA
    _ZTS29btSoftRigidCollisionAlgorithm @7246 DATA
    _ZTS29btSphereBoxCollisionAlgorithm @7247 DATA
    _ZTS30btActivatingCollisionAlgorithm @7248 DATA
    _ZTS30btBox2dBox2dCollisionAlgorithm @7249 DATA
    _ZTS30btCharacterControllerInterface @7250 DATA
    _ZTS30btCollisionAlgorithmCreateFunc @7251 DATA
    _ZTS30btCompoundCompoundLeafCallback @7252 DATA
    _ZTS30btConvexPenetrationDepthSolver @7253 DATA
    _ZTS30btGeneric6DofSpring2Constraint @7254 DATA
    _ZTS30btGjkEpaPenetrationDepthSolver @7255 DATA
    _ZTS30btKinematicCharacterController @7256 DATA
    _ZTS31btConvexPlaneCollisionAlgorithm @7257 DATA
    _ZTS31btDefaultCollisionConfiguration @7258 DATA
    _ZTS31btInternalTriangleIndexCallback @7259 DATA
    _ZTS31btMultiBodyJointLimitConstraint @7260 DATA
    _ZTS32btConvexInternalAabbCachingShape @7261 DATA
    _ZTS32btSphereSphereCollisionAlgorithm @7262 DATA
    _ZTS33btConvexConcaveCollisionAlgorithm @7263 DATA
    _ZTS33btHingeAccumulatedAngleConstraint @7264 DATA
    _ZTS33btMinkowskiPenetrationDepthSolver @7265 DATA
    _ZTS34btClosestNotMeConvexResultCallback @7266 DATA
    _ZTS34btPolyhedralConvexAabbCachingShape @7267 DATA
    _ZTS34btSphereTriangleCollisionAlgorithm @7268 DATA
    _ZTS34btTriangleIndexVertexMaterialArray @7269 DATA
    _ZTS35btSequentialImpulseConstraintSolver @7270 DATA
    _ZTS35btSoftBodyConcaveCollisionAlgorithm @7271 DATA
    _ZTS36MultiBodyInplaceSolverIslandCallback @7272 DATA
    _ZTS36btCompoundCompoundCollisionAlgorithm @7273 DATA
    _ZTS36btDiscreteCollisionDetectorInterface @7274 DATA
    _ZTS41btSoftBodyRigidBodyCollisionConfiguration @7275 DATA
    _ZTS43btKinematicClosestNotMeConvexResultCallback @7276 DATA
    _ZTS9btHashMapI9btHashInt14btTriangleInfoE @7277 DATA
    _ZTSN10btSoftBody15RayFromToCasterE @7278 DATA
    _ZTSN10btSoftBody5JointE @7279 DATA
    _ZTSN10btSoftBody6AJointE @7280 DATA
    _ZTSN10btSoftBody6CJointE @7281 DATA
    _ZTSN10btSoftBody6LJointE @7282 DATA
    _ZTSN12btConvexCast10CastResultE @7283 DATA
    _ZTSN15btSoftColliders11ClusterBaseE @7284 DATA
    _ZTSN15btSoftColliders12CollideCL_RSE @7285 DATA
    _ZTSN15btSoftColliders12CollideCL_SSE @7286 DATA
    _ZTSN15btSoftColliders12CollideVF_SSE @7287 DATA
    _ZTSN15btSoftColliders13CollideSDF_RSE @7288 DATA
    _ZTSN16btCollisionWorld17RayResultCallbackE @7289 DATA
    _ZTSN16btCollisionWorld20ConvexResultCallbackE @7290 DATA
    _ZTSN16btCollisionWorld24AllHitsRayResultCallbackE @7291 DATA
    _ZTSN16btCollisionWorld24ClosestRayResultCallbackE @7292 DATA
    _ZTSN16btCollisionWorld27ClosestConvexResultCallbackE @7293 DATA
    _ZTSN16btEmptyAlgorithm10CreateFuncE @7294 DATA
    _ZTSN18GIM_ShapeRetriever19ChildShapeRetrieverE @7295 DATA
    _ZTSN18GIM_ShapeRetriever19TetraShapeRetrieverE @7296 DATA
    _ZTSN18GIM_ShapeRetriever22TriangleShapeRetrieverE @7297 DATA
    _ZTSN22btGImpactCompoundShape24CompoundPrimitiveManagerE @7298 DATA
    _ZTSN22btGImpactMeshShapePart23TrimeshPrimitiveManagerE @7299 DATA
    _ZTSN23btConvexConvexAlgorithm10CreateFuncE @7300 DATA
    _ZTSN25btDiscreteDynamicsWorldMt26UpdaterIntegrateTransformsE @7301 DATA
    _ZTSN25btDiscreteDynamicsWorldMt31UpdaterCreatePredictiveContactsE @7302 DATA
    _ZTSN25btSimulationIslandManager14IslandCallbackE @7303 DATA
    _ZTSN26btBoxBoxCollisionAlgorithm10CreateFuncE @7304 DATA
    _ZTSN27btConvex2dConvex2dAlgorithm10CreateFuncE @7305 DATA
    _ZTSN27btGImpactCollisionAlgorithm10CreateFuncE @7306 DATA
    _ZTSN27btSimulationIslandManagerMt14IslandCallbackE @7307 DATA
    _ZTSN28btCompoundCollisionAlgorithm10CreateFuncE @7308 DATA
    _ZTSN28btCompoundCollisionAlgorithm17SwappedCreateFuncE @7309 DATA
    _ZTSN28btSoftSoftCollisionAlgorithm10CreateFuncE @7310 DATA
    _ZTSN29btSoftRigidCollisionAlgorithm10CreateFuncE @7311 DATA
    _ZTSN31btConvexPlaneCollisionAlgorithm10CreateFuncE @7312 DATA
    _ZTSN32btSphereSphereCollisionAlgorithm10CreateFuncE @7313 DATA
    _ZTSN33btConvexConcaveCollisionAlgorithm10CreateFuncE @7314 DATA
    _ZTSN33btConvexConcaveCollisionAlgorithm17SwappedCreateFuncE @7315 DATA
    _ZTSN34btSphereTriangleCollisionAlgorithm10CreateFuncE @7316 DATA
    _ZTSN35btSoftBodyConcaveCollisionAlgorithm10CreateFuncE @7317 DATA
    _ZTSN35btSoftBodyConcaveCollisionAlgorithm17SwappedCreateFuncE @7318 DATA
    _ZTSN36btCompoundCompoundCollisionAlgorithm10CreateFuncE @7319 DATA
    _ZTSN36btDiscreteCollisionDetectorInterface6ResultE @7320 DATA
    _ZTSN6btDbvt8ICollideE @7321 DATA
    _ZTV10btBoxShape @7322 DATA
    _ZTV10btSoftBody @7323 DATA
    _ZTV11btConeShape @7324 DATA
    _ZTV11btMultiBody @7325 DATA
    _ZTV11btRigidBody @7326 DATA
    _ZTV12btAxisSweep3 @7327 DATA
    _ZTV12btBox2dShape @7328 DATA
    _ZTV12btConeShapeX @7329 DATA
    _ZTV12btConeShapeZ @7330 DATA
    _ZTV12btConvexCast @7331 DATA
    _ZTV12btDispatcher @7332 DATA
    _ZTV12btEmptyShape @7333 DATA
    _ZTV12btMLCPSolver @7334 DATA
    _ZTV13BulletContext @7335 DATA
    _ZTV13btConvexShape @7336 DATA
    _ZTV13btGhostObject @7337 DATA
    _ZTV13btMotionState @7338 DATA
    _ZTV13btSphereShape @7339 DATA
    _ZTV14btCapsuleShape @7340 DATA
    _ZTV14btConcaveShape @7341 DATA
    _ZTV14btOptimizedBvh @7342 DATA
    _ZTV14btQuantizedBvh @7343 DATA
    _ZTV14btTriangleMesh @7344 DATA
    _ZTV15btCapsuleShapeX @7345 DATA
    _ZTV15btCapsuleShapeZ @7346 DATA
    _ZTV15btCompoundShape @7347 DATA
    _ZTV15btConvex2dShape @7348 DATA
    _ZTV15btCylinderShape @7349 DATA
    _ZTV15btDynamicsWorld @7350 DATA
    _ZTV15btGjkConvexCast @7351 DATA
    _ZTV15btNullPairCache @7352 DATA
    _ZTV15btTriangleShape @7353 DATA
    _ZTV16btBU_Simplex1to4 @7354 DATA
    _ZTV16btBoxBoxDetector @7355 DATA
    _ZTV16btCollisionShape @7356 DATA
    _ZTV16btCollisionWorld @7357 DATA
    _ZTV16btCylinderShapeX @7358 DATA
    _ZTV16btCylinderShapeZ @7359 DATA
    _ZTV16btDbvtBroadphase @7360 DATA
    _ZTV16btEmptyAlgorithm @7361 DATA
    _ZTV16btGearConstraint @7362 DATA
    _ZTV16btITaskScheduler @7363 DATA
    _ZTV16btManifoldResult @7364 DATA
    _ZTV16btPointCollector @7365 DATA
    _ZTV16btRaycastVehicle @7366 DATA
    _ZTV16btSoftBodySolver @7367 DATA
    _ZTV16btTriangleBuffer @7368 DATA
    _ZTV17DebugDrawcallback @7369 DATA
    _ZTV17bt32BitAxisSweep3 @7370 DATA
    _ZTV17btActionInterface @7371 DATA
    _ZTV17btCollisionObject @7372 DATA
    _ZTV17btConvexHullShape @7373 DATA
    _ZTV17btFixedConstraint @7374 DATA
    _ZTV17btGjkPairDetector @7375 DATA
    _ZTV17btHingeConstraint @7376 DATA
    _ZTV17btOverlapCallback @7377 DATA
    _ZTV17btTriangleInfoMap @7378 DATA
    _ZTV17btTriangleShapeEx @7379 DATA
    _ZTV17btTypedConstraint @7380 DATA
    _ZTV18btConstraintSolver @7381 DATA
    _ZTV18btConvexPolyhedron @7382 DATA
    _ZTV18btDbvtTreeCollider @7383 DATA
    _ZTV18btGImpactMeshShape @7384 DATA
    _ZTV18btHinge2Constraint @7385 DATA
    _ZTV18btIParallelForBody @7386 DATA
    _ZTV18btMultiSphereShape @7387 DATA
    _ZTV18btSimpleBroadphase @7388 DATA
    _ZTV18btSliderConstraint @7389 DATA
    _ZTV18btStaticPlaneShape @7390 DATA
    _ZTV18btTriangleCallback @7391 DATA
    _ZTV18btVehicleRaycaster @7392 DATA
    _ZTV19BroadphaseRayTester @7393 DATA
    _ZTV19btContactConstraint @7394 DATA
    _ZTV19btGhostPairCallback @7395 DATA
    _ZTV19btMinkowskiSumShape @7396 DATA
    _ZTV19btSingleRayCallback @7397 DATA
    _ZTV19btTriangleMeshShape @7398 DATA
    _ZTV20BroadphaseAabbTester @7399 DATA
    _ZTV20btAxisSweep3InternalIjE @7400 DATA
    _ZTV20btAxisSweep3InternalItE @7401 DATA
    _ZTV20btCollisionAlgorithm @7402 DATA
    _ZTV20btDbvtNodeEnumerator @7403 DATA
    _ZTV20btDefaultMotionState @7404 DATA
    _ZTV20btTetrahedronShapeEx @7405 DATA
    _ZTV21SupportVertexCallback @7406 DATA
    _ZTV21btBroadphaseInterface @7407 DATA
    _ZTV21btCollisionDispatcher @7408 DATA
    _ZTV21btConeTwistConstraint @7409 DATA
    _ZTV21btConvexInternalShape @7410 DATA
    _ZTV21btMultiBodyConstraint @7411 DATA
    _ZTV21btMultiBodyJointMotor @7412 DATA
    _ZTV21btNodeOverlapCallback @7413 DATA
    _ZTV21btSimpleDynamicsWorld @7414 DATA
    _ZTV21btSingleSweepCallback @7415 DATA
    _ZTV21btUniformScalingShape @7416 DATA
    _ZTV21btUniversalConstraint @7417 DATA
    _ZTV22GIM_STANDARD_ALLOCATOR @7418 DATA
    _ZTV22SphereTriangleDetector @7419 DATA
    _ZTV22UpdateIslandDispatcher @7420 DATA
    _ZTV22btBvhTriangleMeshShape @7421 DATA
    _ZTV22btCompoundLeafCallback @7422 DATA
    _ZTV22btGImpactCompoundShape @7423 DATA
    _ZTV22btGImpactMeshShapePart @7424 DATA
    _ZTV22btGenericPoolAllocator @7425 DATA
    _ZTV22btMultiBodyPoint2Point @7426 DATA
    _ZTV22btNNCGConstraintSolver @7427 DATA
    _ZTV22btOverlappingPairCache @7428 DATA
    _ZTV22btPrimitiveManagerBase @7429 DATA
    _ZTV22btSubsimplexConvexCast @7430 DATA
    _ZTV23btBridgedManifoldResult @7431 DATA
    _ZTV23btBroadphaseRayCallback @7432 DATA
    _ZTV23btCollisionDispatcherMt @7433 DATA
    _ZTV23btCollisionPairCallback @7434 DATA
    _ZTV23btConnectivityProcessor @7435 DATA
    _ZTV23btConvexConvexAlgorithm @7436 DATA
    _ZTV23btConvexPointCloudShape @7437 DATA
    _ZTV23btDefaultSoftBodySolver @7438 DATA
    _ZTV23btDiscreteDynamicsWorld @7439 DATA
    _ZTV23btGImpactShapeInterface @7440 DATA
    _ZTV23btGeneric6DofConstraint @7441 DATA
    _ZTV23btHashedSimplePairCache @7442 DATA
    _ZTV23btPoint2PointConstraint @7443 DATA
    _ZTV23btPolyhedralConvexShape @7444 DATA
    _ZTV23btSingleContactCallback @7445 DATA
    _ZTV23btSoftSingleRayCallback @7446 DATA
    _ZTV23btStridingMeshInterface @7447 DATA
    _ZTV24btBroadphaseAabbCallback @7448 DATA
    _ZTV24btCollisionConfiguration @7449 DATA
    _ZTV24btCollisionWorldImporter @7450 DATA
    _ZTV24btConstraintSolverPoolMt @7451 DATA
    _ZTV24btConvexTriangleCallback @7452 DATA
    _ZTV24btMultiBodyDynamicsWorld @7453 DATA
    _ZTV24btPairCachingGhostObject @7454 DATA
    _ZTV24btPerturbedContactResult @7455 DATA
    _ZTV24btScaledTriangleCallback @7456 DATA
    _ZTV24btSoftBodyCollisionShape @7457 DATA
    _ZTV24btSoftRigidDynamicsWorld @7458 DATA
    _ZTV25btConvexTriangleMeshShape @7459 DATA
    _ZTV25btDefaultVehicleRaycaster @7460 DATA
    _ZTV25btDiscreteDynamicsWorldMt @7461 DATA
    _ZTV25btGImpactTriangleCallback @7462 DATA
    _ZTV25btHeightfieldTerrainShape @7463 DATA
    _ZTV25btMultiBodyGearConstraint @7464 DATA
    _ZTV25btOverlappingPairCallback @7465 DATA
    _ZTV25btSimulationIslandManager @7466 DATA
    _ZTV25btTaskSchedulerSequential @7467 DATA
    _ZTV25btTriangleRaycastCallback @7468 DATA
    _ZTV26CollisionDispatcherUpdater @7469 DATA
    _ZTV26LocalSupportVertexCallback @7470 DATA
    _ZTV26UpdaterUnconstrainedMotion @7471 DATA
    _ZTV26btBoxBoxCollisionAlgorithm @7472 DATA
    _ZTV26btMultiBodyFixedConstraint @7473 DATA
    _ZTV26btSoftBodyTriangleCallback @7474 DATA
    _ZTV26btTriangleIndexVertexArray @7475 DATA
    _ZTV27InplaceSolverIslandCallback @7476 DATA
    _ZTV27btContinuousConvexCollision @7477 DATA
    _ZTV27btConvex2dConvex2dAlgorithm @7478 DATA
    _ZTV27btGImpactCollisionAlgorithm @7479 DATA
    _ZTV27btMultiBodyConstraintSolver @7480 DATA
    _ZTV27btMultiBodySliderConstraint @7481 DATA
    _ZTV27btSimulationIslandManagerMt @7482 DATA
    _ZTV27btSoftClusterCollisionShape @7483 DATA
    _ZTV28btCompoundCollisionAlgorithm @7484 DATA
    _ZTV28btHashedOverlappingPairCache @7485 DATA
    _ZTV28btScaledBvhTriangleMeshShape @7486 DATA
    _ZTV28btSoftMultiBodyDynamicsWorld @7487 DATA
    _ZTV28btSoftSoftCollisionAlgorithm @7488 DATA
    _ZTV28btSortedOverlappingPairCache @7489 DATA
    _ZTV28btTriangleConvexcastCallback @7490 DATA
    _ZTV29InplaceSolverIslandCallbackMt @7491 DATA
    _ZTV29btGeneric6DofSpringConstraint @7492 DATA
    _ZTV29btSoftRigidCollisionAlgorithm @7493 DATA
    _ZTV29btSphereBoxCollisionAlgorithm @7494 DATA
    _ZTV30btActivatingCollisionAlgorithm @7495 DATA
    _ZTV30btBox2dBox2dCollisionAlgorithm @7496 DATA
    _ZTV30btCharacterControllerInterface @7497 DATA
    _ZTV30btCollisionAlgorithmCreateFunc @7498 DATA
    _ZTV30btCompoundCompoundLeafCallback @7499 DATA
    _ZTV30btConvexPenetrationDepthSolver @7500 DATA
    _ZTV30btGeneric6DofSpring2Constraint @7501 DATA
    _ZTV30btGjkEpaPenetrationDepthSolver @7502 DATA
    _ZTV30btKinematicCharacterController @7503 DATA
    _ZTV31btConvexPlaneCollisionAlgorithm @7504 DATA
    _ZTV31btDefaultCollisionConfiguration @7505 DATA
    _ZTV31btInternalTriangleIndexCallback @7506 DATA
    _ZTV31btMultiBodyJointLimitConstraint @7507 DATA
    _ZTV32btConvexInternalAabbCachingShape @7508 DATA
    _ZTV32btSphereSphereCollisionAlgorithm @7509 DATA
    _ZTV33btConvexConcaveCollisionAlgorithm @7510 DATA
    _ZTV33btHingeAccumulatedAngleConstraint @7511 DATA
    _ZTV33btMinkowskiPenetrationDepthSolver @7512 DATA
    _ZTV34btClosestNotMeConvexResultCallback @7513 DATA
    _ZTV34btPolyhedralConvexAabbCachingShape @7514 DATA
    _ZTV34btSphereTriangleCollisionAlgorithm @7515 DATA
    _ZTV34btTriangleIndexVertexMaterialArray @7516 DATA
    _ZTV35btSequentialImpulseConstraintSolver @7517 DATA
    _ZTV35btSoftBodyConcaveCollisionAlgorithm @7518 DATA
    _ZTV36MultiBodyInplaceSolverIslandCallback @7519 DATA
    _ZTV36btCompoundCompoundCollisionAlgorithm @7520 DATA
    _ZTV36btDiscreteCollisionDetectorInterface @7521 DATA
    _ZTV41btSoftBodyRigidBodyCollisionConfiguration @7522 DATA
    _ZTV43btKinematicClosestNotMeConvexResultCallback @7523 DATA
    _ZTVN10btSoftBody15RayFromToCasterE @7524 DATA
    _ZTVN10btSoftBody5JointE @7525 DATA
    _ZTVN10btSoftBody6AJointE @7526 DATA
    _ZTVN10btSoftBody6CJointE @7527 DATA
    _ZTVN10btSoftBody6LJointE @7528 DATA
    _ZTVN12btConvexCast10CastResultE @7529 DATA
    _ZTVN15btSoftColliders11ClusterBaseE @7530 DATA
    _ZTVN15btSoftColliders12CollideCL_RSE @7531 DATA
    _ZTVN15btSoftColliders12CollideCL_SSE @7532 DATA
    _ZTVN15btSoftColliders12CollideVF_SSE @7533 DATA
    _ZTVN15btSoftColliders13CollideSDF_RSE @7534 DATA
    _ZTVN16btCollisionWorld17RayResultCallbackE @7535 DATA
    _ZTVN16btCollisionWorld20ConvexResultCallbackE @7536 DATA
    _ZTVN16btCollisionWorld24AllHitsRayResultCallbackE @7537 DATA
    _ZTVN16btCollisionWorld24ClosestRayResultCallbackE @7538 DATA
    _ZTVN16btCollisionWorld27ClosestConvexResultCallbackE @7539 DATA
    _ZTVN16btEmptyAlgorithm10CreateFuncE @7540 DATA
    _ZTVN18GIM_ShapeRetriever19ChildShapeRetrieverE @7541 DATA
    _ZTVN18GIM_ShapeRetriever19TetraShapeRetrieverE @7542 DATA
    _ZTVN18GIM_ShapeRetriever22TriangleShapeRetrieverE @7543 DATA
    _ZTVN22btGImpactCompoundShape24CompoundPrimitiveManagerE @7544 DATA
    _ZTVN22btGImpactMeshShapePart23TrimeshPrimitiveManagerE @7545 DATA
    _ZTVN23btConvexConvexAlgorithm10CreateFuncE @7546 DATA
    _ZTVN25btDiscreteDynamicsWorldMt26UpdaterIntegrateTransformsE @7547 DATA
    _ZTVN25btDiscreteDynamicsWorldMt31UpdaterCreatePredictiveContactsE @7548 DATA
    _ZTVN25btSimulationIslandManager14IslandCallbackE @7549 DATA
    _ZTVN26btBoxBoxCollisionAlgorithm10CreateFuncE @7550 DATA
    _ZTVN27btConvex2dConvex2dAlgorithm10CreateFuncE @7551 DATA
    _ZTVN27btGImpactCollisionAlgorithm10CreateFuncE @7552 DATA
    _ZTVN27btSimulationIslandManagerMt14IslandCallbackE @7553 DATA
    _ZTVN28btCompoundCollisionAlgorithm10CreateFuncE @7554 DATA
    _ZTVN28btCompoundCollisionAlgorithm17SwappedCreateFuncE @7555 DATA
    _ZTVN28btSoftSoftCollisionAlgorithm10CreateFuncE @7556 DATA
    _ZTVN29btSoftRigidCollisionAlgorithm10CreateFuncE @7557 DATA
    _ZTVN31btConvexPlaneCollisionAlgorithm10CreateFuncE @7558 DATA
    _ZTVN32btSphereSphereCollisionAlgorithm10CreateFuncE @7559 DATA
    _ZTVN33btConvexConcaveCollisionAlgorithm10CreateFuncE @7560 DATA
    _ZTVN33btConvexConcaveCollisionAlgorithm17SwappedCreateFuncE @7561 DATA
    _ZTVN34btSphereTriangleCollisionAlgorithm10CreateFuncE @7562 DATA
    _ZTVN35btSoftBodyConcaveCollisionAlgorithm10CreateFuncE @7563 DATA
    _ZTVN35btSoftBodyConcaveCollisionAlgorithm17SwappedCreateFuncE @7564 DATA
    _ZTVN36btCompoundCompoundCollisionAlgorithm10CreateFuncE @7565 DATA
    _ZTVN36btDiscreteCollisionDetectorInterface6ResultE @7566 DATA
    _ZTVN6btDbvt8ICollideE @7567 DATA
    _ZThn8_N17DebugDrawcallback28internalProcessTriangleIndexEP9btVector3ii @7568
    _ZThn8_N17DebugDrawcallbackD0Ev @7569
    _ZThn8_N17DebugDrawcallbackD1Ev @7570
    _ZZN11btMatrix3x311getIdentityEvE14identityMatrix @7571 DATA
    _ZZN11btSparseSdfILi3EE8EvaluateERK9btVector3PK16btCollisionShapeRS1_fE9numResets @7572 DATA
    _ZZN11btTransform11getIdentityEvE17identityTransform @7573 DATA
    _ZZN12btQuaternion11getIdentityEvE12identityQuat @7574 DATA
    _ZZN12gjkepa2_impl3EPA6expandEjPNS_3GJK3sSVEPNS0_5sFaceEjRNS0_8sHorizonEE4i1m3 @7575 DATA
    _ZZN12gjkepa2_impl3EPA6expandEjPNS_3GJK3sSVEPNS0_5sFaceEjRNS0_8sHorizonEE4i2m3 @7576 DATA
    _ZZN12gjkepa2_impl3GJK13projectoriginERK9btVector3S3_S3_PfRjE4imd3 @7577 DATA
    _ZZN12gjkepa2_impl3GJK13projectoriginERK9btVector3S3_S3_S3_PfRjE4imd3 @7578 DATA
    _ZZN15btSoftColliders12CollideCL_SS7ProcessEPK10btDbvtNodeS3_E5count @7579 DATA
    _ZZNK10btSoftBody4Body15invWorldInertiaEvE3iwi @7580 DATA
    _ZZNK10btSoftBody4Body5xformEvE8identity @7581 DATA
    _ZZNK15btSoftColliders13CollideSDF_RS6DoNodeERN10btSoftBody4NodeEE9iwiStatic @7582 DATA
    _ZZNK24btSoftBodyCollisionShape15getLocalScalingEvE5dummy @7583 DATA
    _ZdlPvS_ @7584
    _ZdvRK9btVector3RKf @7585
    _ZdvRK9btVector3S1_ @7586
    _ZeqRK11btMatrix3x3S1_ @7587
    _ZeqRK11btTransformS1_ @7588
    _ZeqRK16btBroadphasePairS1_ @7589
    _ZeqRK4int3S1_ @7590
    _ZmiRK11btMatrix3x3S1_ @7591
    _ZmiRK9btVector3S1_ @7592
    _ZmlRK11btMatrix3x3RK9btVector3 @7593
    _ZmlRK11btMatrix3x3RKf @7594
    _ZmlRK11btMatrix3x3S1_ @7595
    _ZmlRK12btQuaternionRK9btVector3 @7596
    _ZmlRK12btQuaternionS1_ @7597
    _ZmlRK9btVector3RK11btMatrix3x3 @7598
    _ZmlRK9btVector3RKf @7599
    _ZmlRK9btVector3S1_ @7600
    _ZmlRKfRK9btVector3 @7601
    _ZnayPv @7602
    _ZngRK9btVector3 @7603
    _ZnwyPv @7604
    _ZplRK11btMatrix3x3S1_ @7605
    _ZplRK9btVector3S1_ @7606
    b2_maxManifoldPoints @7607 DATA
    btBulletCollisionProbe @7608
    btBulletDynamicsProbe @7609
    btBulletMathProbe @7610
    contactCB @7611 DATA
    ctx @7612 DATA
    disableCcd @7613 DATA
    gActualNbTests @7614 DATA
    gAddedPairs @7615 DATA
    gAddedSimplePairs @7616 DATA
    gCompoundChildShapePairCallback @7617 DATA
    gCompoundCompoundChildShapePairCallback @7618 DATA
    gContactAddedCallback @7619 DATA
    gContactBreakingThreshold @7620 DATA
    gContactCalcArea3Points @7621 DATA
    gContactDestroyedCallback @7622 DATA
    gContactEndedCallback @7623 DATA
    gContactProcessedCallback @7624 DATA
    gContactStartedCallback @7625 DATA
    gCurrentNodes @7626 DATA
    gDeactivationTime @7627 DATA
    gDisableDeactivation @7628 DATA
    gExpectedNbTests @7629 DATA
    gFindPairs @7630 DATA
    gFindSimplePairs @7631 DATA
    gGjkEpaPenetrationTolerance @7632 DATA
    gJointFeedbackInJointFrame @7633 DATA
    gJointFeedbackInWorldSpace @7634 DATA
    gNumAlignedAllocs @7635 DATA
    gNumAlignedFree @7636 DATA
    gNumClampedCcdMotions @7637 DATA
    gNumDeepPenetrationChecks @7638 DATA
    gNumGjkChecks @7639 DATA
    gNumManifold @7640 DATA
    gNumSplitImpulseRecoveries @7641 DATA
    gOverlappingPairs @7642 DATA
    gOverlappingSimplePairs @7643 DATA
    gRemovePairs @7644 DATA
    gRemoveSimplePairs @7645 DATA
    gRoots @7646 DATA
    gTotalBytesAlignedAllocs @7647 DATA
    gUseInternalObject @7648 DATA
    gUseMatrixMultiply @7649 DATA
    g_main_allocator @7650 DATA
    interleaveContactAndFriction @7651 DATA
    maxIterations @7652 DATA
    planetestepsilon @7653 DATA
    sBulletDNAlen @7654 DATA
    sBulletDNAlen64 @7655 DATA
    sBulletDNAstr @7656 DATA
    sBulletDNAstr64 @7657 DATA
    s_error @7658 DATA
    sideFrictionStiffness2 @7659 DATA
